Archive member included because of file (symbol)

..\..\..\..\..\..\..\..\..\..\microchip\harmony\v1_07_01\bin\framework\peripheral\PIC32MX440F256H_peripherals.a(peripheral.o)
                              build/PINGUINO/production/_ext/55825582/halSYS.o (PLIB_BMX_ExistsDataRamWaitState)
c:/program files/microchip/xc32/v1.40/bin/bin/../../lib/gcc/pic32mx/4.8.3/../../../../pic32mx/lib/no-float\libsupc++.a(del_op.o)
                              build/PINGUINO/production/_ext/1472/Main.o (operator delete(void*))
c:/program files/microchip/xc32/v1.40/bin/bin/../../lib/gcc/pic32mx/4.8.3/../../../../pic32mx/lib/no-float\libsupc++.a(new_op.o)
                              build/PINGUINO/production/_ext/1472/Main.o (operator new(unsigned long))
c:/program files/microchip/xc32/v1.40/bin/bin/../../lib/gcc/pic32mx/4.8.3/../../../../pic32mx/lib/no-float\libsupc++.a(pure.o)
                              build/PINGUINO/production/_ext/2012494728/eosUsbClient.o (__cxa_pure_virtual)
c:/program files/microchip/xc32/v1.40/bin/bin/../../lib/gcc/pic32mx/4.8.3/../../../../pic32mx/lib/no-float\libsupc++.a(bad_alloc.o)
                              c:/program files/microchip/xc32/v1.40/bin/bin/../../lib/gcc/pic32mx/4.8.3/../../../../pic32mx/lib/no-float\libsupc++.a(new_op.o) (vtable for std::bad_alloc)
c:/program files/microchip/xc32/v1.40/bin/bin/../../lib/gcc/pic32mx/4.8.3/../../../../pic32mx/lib/no-float\libsupc++.a(eh_alloc.o)
                              c:/program files/microchip/xc32/v1.40/bin/bin/../../lib/gcc/pic32mx/4.8.3/../../../../pic32mx/lib/no-float\libsupc++.a(new_op.o) (__cxa_allocate_exception)
c:/program files/microchip/xc32/v1.40/bin/bin/../../lib/gcc/pic32mx/4.8.3/../../../../pic32mx/lib/no-float\libsupc++.a(eh_exception.o)
                              c:/program files/microchip/xc32/v1.40/bin/bin/../../lib/gcc/pic32mx/4.8.3/../../../../pic32mx/lib/no-float\libsupc++.a(bad_alloc.o) (std::exception::~exception())
c:/program files/microchip/xc32/v1.40/bin/bin/../../lib/gcc/pic32mx/4.8.3/../../../../pic32mx/lib/no-float\libsupc++.a(eh_terminate.o)
                              c:/program files/microchip/xc32/v1.40/bin/bin/../../lib/gcc/pic32mx/4.8.3/../../../../pic32mx/lib/no-float\libsupc++.a(pure.o) (std::terminate())
c:/program files/microchip/xc32/v1.40/bin/bin/../../lib/gcc/pic32mx/4.8.3/../../../../pic32mx/lib/no-float\libsupc++.a(eh_throw.o)
                              c:/program files/microchip/xc32/v1.40/bin/bin/../../lib/gcc/pic32mx/4.8.3/../../../../pic32mx/lib/no-float\libsupc++.a(new_op.o) (__cxa_throw)
c:/program files/microchip/xc32/v1.40/bin/bin/../../lib/gcc/pic32mx/4.8.3/../../../../pic32mx/lib/no-float\libsupc++.a(eh_unex_handler.o)
                              c:/program files/microchip/xc32/v1.40/bin/bin/../../lib/gcc/pic32mx/4.8.3/../../../../pic32mx/lib/no-float\libsupc++.a(eh_terminate.o) (__cxxabiv1::__unexpected_handler)
c:/program files/microchip/xc32/v1.40/bin/bin/../../lib/gcc/pic32mx/4.8.3/../../../../pic32mx/lib/no-float\libsupc++.a(new_handler.o)
                              c:/program files/microchip/xc32/v1.40/bin/bin/../../lib/gcc/pic32mx/4.8.3/../../../../pic32mx/lib/no-float\libsupc++.a(new_op.o) (__new_handler)
c:/program files/microchip/xc32/v1.40/bin/bin/../../lib/gcc/pic32mx/4.8.3/../../../../pic32mx/lib/no-float\libsupc++.a(si_class_type_info.o)
                              c:/program files/microchip/xc32/v1.40/bin/bin/../../lib/gcc/pic32mx/4.8.3/../../../../pic32mx/lib/no-float\libsupc++.a(bad_alloc.o) (vtable for __cxxabiv1::__si_class_type_info)
c:/program files/microchip/xc32/v1.40/bin/bin/../../lib/gcc/pic32mx/4.8.3/../../../../pic32mx/lib/no-float\libsupc++.a(tinfo.o)
                              c:/program files/microchip/xc32/v1.40/bin/bin/../../lib/gcc/pic32mx/4.8.3/../../../../pic32mx/lib/no-float\libsupc++.a(si_class_type_info.o) (std::type_info::__is_pointer_p() const)
c:/program files/microchip/xc32/v1.40/bin/bin/../../lib/gcc/pic32mx/4.8.3/../../../../pic32mx/lib/no-float\libsupc++.a(class_type_info.o)
                              c:/program files/microchip/xc32/v1.40/bin/bin/../../lib/gcc/pic32mx/4.8.3/../../../../pic32mx/lib/no-float\libsupc++.a(si_class_type_info.o) (__cxxabiv1::__class_type_info::~__class_type_info())
c:/program files/microchip/xc32/v1.40/bin/bin/../../lib/gcc/pic32mx/4.8.3/../../../../pic32mx/lib/no-float\libsupc++.a(eh_catch.o)
                              c:/program files/microchip/xc32/v1.40/bin/bin/../../lib/gcc/pic32mx/4.8.3/../../../../pic32mx/lib/no-float\libsupc++.a(eh_terminate.o) (__cxa_begin_catch)
c:/program files/microchip/xc32/v1.40/bin/bin/../../lib/gcc/pic32mx/4.8.3/../../../../pic32mx/lib/no-float\libsupc++.a(eh_globals.o)
                              c:/program files/microchip/xc32/v1.40/bin/bin/../../lib/gcc/pic32mx/4.8.3/../../../../pic32mx/lib/no-float\libsupc++.a(eh_catch.o) (__cxa_get_globals_fast)
c:/program files/microchip/xc32/v1.40/bin/bin/../../lib/gcc/pic32mx/4.8.3/../../../../pic32mx/lib/no-float\libsupc++.a(eh_personality.o)
                              c:/program files/microchip/xc32/v1.40/bin/bin/../../lib/gcc/pic32mx/4.8.3/../../../../pic32mx/lib/no-float\libsupc++.a(eh_terminate.o) (__gxx_personality_sj0)
c:/program files/microchip/xc32/v1.40/bin/bin/../../lib/gcc/pic32mx/4.8.3/../../../../pic32mx/lib/no-float\libsupc++.a(eh_term_handler.o)
                              c:/program files/microchip/xc32/v1.40/bin/bin/../../lib/gcc/pic32mx/4.8.3/../../../../pic32mx/lib/no-float\libsupc++.a(eh_terminate.o) (__cxxabiv1::__terminate_handler)
c:/program files/microchip/xc32/v1.40/bin/bin/../../lib/gcc/pic32mx/4.8.3/../../../../pic32mx/lib/no-float\libsupc++.a(eh_call.o)
                              c:/program files/microchip/xc32/v1.40/bin/bin/../../lib/gcc/pic32mx/4.8.3/../../../../pic32mx/lib/no-float\libsupc++.a(eh_personality.o) (__cxa_call_terminate)
c:/program files/microchip/xc32/v1.40/bin/bin/../../lib/gcc/pic32mx/4.8.3/../../../../pic32mx/lib/no-float\libxcpp.a(abort.o)
                              c:/program files/microchip/xc32/v1.40/bin/bin/../../lib/gcc/pic32mx/4.8.3/../../../../pic32mx/lib/no-float\libsupc++.a(eh_terminate.o) (abort)
c:/program files/microchip/xc32/v1.40/bin/bin/../../lib/gcc/pic32mx/4.8.3/../../../../pic32mx/lib/no-float\libxcpp.a(abs.o)
                              c:/program files/microchip/xc32/v1.40/bin/bin/../../lib/gcc/pic32mx/4.8.3/../../../../pic32mx/lib/no-float\libsupc++.a(eh_personality.o) (abs)
c:/program files/microchip/xc32/v1.40/bin/bin/../../lib/gcc/pic32mx/4.8.3/../../../../pic32mx/lib/no-float\libxcpp.a(exit.o)
                              c:/program files/microchip/xc32/v1.40/bin/bin/../../lib/gcc/pic32mx/4.8.3/../../../../pic32mx/lib/no-float\libxcpp.a(abort.o) (exit)
c:/program files/microchip/xc32/v1.40/bin/bin/../../lib/gcc/pic32mx/4.8.3/../../../../pic32mx/lib/no-float\libxcpp.a(free.o)
                              c:/program files/microchip/xc32/v1.40/bin/bin/../../lib/gcc/pic32mx/4.8.3/../../../../pic32mx/lib/no-float\libsupc++.a(del_op.o) (free)
c:/program files/microchip/xc32/v1.40/bin/bin/../../lib/gcc/pic32mx/4.8.3/../../../../pic32mx/lib/no-float\libxcpp.a(malloc.o)
                              c:/program files/microchip/xc32/v1.40/bin/bin/../../lib/gcc/pic32mx/4.8.3/../../../../pic32mx/lib/no-float\libxcpp.a(free.o) (_Aldata)
c:/program files/microchip/xc32/v1.40/bin/bin/../../lib/gcc/pic32mx/4.8.3/../../../../pic32mx/lib/no-float\libxcpp.a(memcpy.o)
                              build/PINGUINO/production/_ext/2129976512/queue.o (memcpy)
c:/program files/microchip/xc32/v1.40/bin/bin/../../lib/gcc/pic32mx/4.8.3/../../../../pic32mx/lib/no-float\libxcpp.a(memset.o)
                              build/PINGUINO/production/_ext/2129976512/tasks.o (memset)
c:/program files/microchip/xc32/v1.40/bin/bin/../../lib/gcc/pic32mx/4.8.3/../../../../pic32mx/lib/no-float\libxcpp.a(raise.o)
                              c:/program files/microchip/xc32/v1.40/bin/bin/../../lib/gcc/pic32mx/4.8.3/../../../../pic32mx/lib/no-float\libxcpp.a(abort.o) (raise)
c:/program files/microchip/xc32/v1.40/bin/bin/../../lib/gcc/pic32mx/4.8.3/../../../../pic32mx/lib/no-float\libxcpp.a(strcmp.o)
                              c:/program files/microchip/xc32/v1.40/bin/bin/../../lib/gcc/pic32mx/4.8.3/../../../../pic32mx/lib/no-float\libsupc++.a(si_class_type_info.o) (strcmp)
c:/program files/microchip/xc32/v1.40/bin/bin/../../lib/gcc/pic32mx/4.8.3/../../../../pic32mx/lib/no-float\libxcpp.a(xexit.o)
                              c:/program files/microchip/xc32/v1.40/bin/bin/../../lib/gcc/pic32mx/4.8.3/../../../../pic32mx/lib/no-float\libxcpp.a(exit.o) (_Exit)
c:/program files/microchip/xc32/v1.40/bin/bin/../../lib/gcc/pic32mx/4.8.3/../../../../pic32mx/lib/no-float\libxcpp.a(xgetmem.o)
                              c:/program files/microchip/xc32/v1.40/bin/bin/../../lib/gcc/pic32mx/4.8.3/../../../../pic32mx/lib/no-float\libxcpp.a(malloc.o) (_Getmem)

Optional file libmchp_peripheral.a not found

Optional file libmchp_peripheral_32MX440F256H.a not found
c:/program files/microchip/xc32/v1.40/bin/bin/../../lib/gcc/pic32mx/4.8.3/no-float\libgcc.a(unwind-sjlj.o)
                              c:/program files/microchip/xc32/v1.40/bin/bin/../../lib/gcc/pic32mx/4.8.3/../../../../pic32mx/lib/no-float\libsupc++.a(eh_terminate.o) (_Unwind_SjLj_Register)
c:/program files/microchip/xc32/v1.40/bin/bin/../../lib/gcc/pic32mx/4.8.3/../../../../pic32mx/lib/no-float\libpic32.a(sbrk.o)
                              c:/program files/microchip/xc32/v1.40/bin/bin/../../lib/gcc/pic32mx/4.8.3/../../../../pic32mx/lib/no-float\libxcpp.a(xgetmem.o) (sbrk)
c:/program files/microchip/xc32/v1.40/bin/bin/../../lib/gcc/pic32mx/4.8.3/../../../../pic32mx/lib/no-float\libpic32.a(default-bootstrap-exception-handler.o)
                              c:/program files/microchip/xc32/v1.40/bin/bin/../../lib/gcc/pic32mx/4.8.3/../../../../pic32mx/lib/./proc/32MX440F256H/cpprt0_mips32r2.o (_bootstrap_exception_handler)
c:/program files/microchip/xc32/v1.40/bin/bin/../../lib/gcc/pic32mx/4.8.3/../../../../pic32mx/lib/no-float\libpic32.a(default-on-reset.o)
                              c:/program files/microchip/xc32/v1.40/bin/bin/../../lib/gcc/pic32mx/4.8.3/../../../../pic32mx/lib/./proc/32MX440F256H/cpprt0_mips32r2.o (_on_reset)
c:/program files/microchip/xc32/v1.40/bin/bin/../../lib/gcc/pic32mx/4.8.3/../../../../pic32mx/lib/no-float\libpic32.a(default-on-bootstrap.o)
                              c:/program files/microchip/xc32/v1.40/bin/bin/../../lib/gcc/pic32mx/4.8.3/../../../../pic32mx/lib/./proc/32MX440F256H/cpprt0_mips32r2.o (_on_bootstrap)
c:/program files/microchip/xc32/v1.40/bin/bin/../../lib/gcc/pic32mx/4.8.3/../../../../pic32mx/lib/no-float\libpic32.a(default-nmi-handler.o)
                              c:/program files/microchip/xc32/v1.40/bin/bin/../../lib/gcc/pic32mx/4.8.3/../../../../pic32mx/lib/./proc/32MX440F256H/cpprt0_mips32r2.o (_nmi_handler)
c:/program files/microchip/xc32/v1.40/bin/bin/../../lib/gcc/pic32mx/4.8.3/../../../../pic32mx/lib/no-float\libpic32.a(_exit.o)
                              c:/program files/microchip/xc32/v1.40/bin/bin/../../lib/gcc/pic32mx/4.8.3/../../../../pic32mx/lib/no-float\libxcpp.a(xexit.o) (_exit)
c:/program files/microchip/xc32/v1.40/bin/bin/../../lib/gcc/pic32mx/4.8.3/../../../../pic32mx/lib/no-float\libpic32.a(kill.o)
                              c:/program files/microchip/xc32/v1.40/bin/bin/../../lib/gcc/pic32mx/4.8.3/../../../../pic32mx/lib/no-float\libxcpp.a(raise.o) (kill)
c:/program files/microchip/xc32/v1.40/bin/bin/../../lib/gcc/pic32mx/4.8.3/../../../../pic32mx/lib/no-float\libpic32.a(getpid.o)
                              c:/program files/microchip/xc32/v1.40/bin/bin/../../lib/gcc/pic32mx/4.8.3/../../../../pic32mx/lib/no-float\libxcpp.a(raise.o) (getpid)
c:/program files/microchip/xc32/v1.40/bin/bin/../../lib/gcc/pic32mx/4.8.3/../../../../pic32mx/lib/no-float\libpic32.a(errno.o)
                              c:/program files/microchip/xc32/v1.40/bin/bin/../../lib/gcc/pic32mx/4.8.3/../../../../pic32mx/lib/no-float\libpic32.a(sbrk.o) (errno)
c:/program files/microchip/xc32/v1.40/bin/bin/../../lib/gcc/pic32mx/4.8.3/../../../../pic32mx/lib/no-float\libpic32.a(general-exception.o)
                              c:/program files/microchip/xc32/v1.40/bin/bin/../../lib/gcc/pic32mx/4.8.3/../../../../pic32mx/lib/./proc/32MX440F256H/cpprt0_mips32r2.o (_general_exception_context)
c:/program files/microchip/xc32/v1.40/bin/bin/../../lib/gcc/pic32mx/4.8.3/../../../../pic32mx/lib/no-float\libpic32.a(vector0.o)
                              c:/program files/microchip/xc32/v1.40/bin/bin/../../lib/gcc/pic32mx/4.8.3/../../../../pic32mx/lib/./proc/32MX440F256H\default_isr_vectors.o (__vector_dispatch_0)
c:/program files/microchip/xc32/v1.40/bin/bin/../../lib/gcc/pic32mx/4.8.3/../../../../pic32mx/lib/no-float\libpic32.a(vector2.o)
                              c:/program files/microchip/xc32/v1.40/bin/bin/../../lib/gcc/pic32mx/4.8.3/../../../../pic32mx/lib/./proc/32MX440F256H\default_isr_vectors.o (__vector_dispatch_2)
c:/program files/microchip/xc32/v1.40/bin/bin/../../lib/gcc/pic32mx/4.8.3/../../../../pic32mx/lib/no-float\libpic32.a(vector3.o)
                              c:/program files/microchip/xc32/v1.40/bin/bin/../../lib/gcc/pic32mx/4.8.3/../../../../pic32mx/lib/./proc/32MX440F256H\default_isr_vectors.o (__vector_dispatch_3)
c:/program files/microchip/xc32/v1.40/bin/bin/../../lib/gcc/pic32mx/4.8.3/../../../../pic32mx/lib/no-float\libpic32.a(vector5.o)
                              c:/program files/microchip/xc32/v1.40/bin/bin/../../lib/gcc/pic32mx/4.8.3/../../../../pic32mx/lib/./proc/32MX440F256H\default_isr_vectors.o (__vector_dispatch_5)
c:/program files/microchip/xc32/v1.40/bin/bin/../../lib/gcc/pic32mx/4.8.3/../../../../pic32mx/lib/no-float\libpic32.a(vector6.o)
                              c:/program files/microchip/xc32/v1.40/bin/bin/../../lib/gcc/pic32mx/4.8.3/../../../../pic32mx/lib/./proc/32MX440F256H\default_isr_vectors.o (__vector_dispatch_6)
c:/program files/microchip/xc32/v1.40/bin/bin/../../lib/gcc/pic32mx/4.8.3/../../../../pic32mx/lib/no-float\libpic32.a(vector7.o)
                              c:/program files/microchip/xc32/v1.40/bin/bin/../../lib/gcc/pic32mx/4.8.3/../../../../pic32mx/lib/./proc/32MX440F256H\default_isr_vectors.o (__vector_dispatch_7)
c:/program files/microchip/xc32/v1.40/bin/bin/../../lib/gcc/pic32mx/4.8.3/../../../../pic32mx/lib/no-float\libpic32.a(vector8.o)
                              c:/program files/microchip/xc32/v1.40/bin/bin/../../lib/gcc/pic32mx/4.8.3/../../../../pic32mx/lib/./proc/32MX440F256H\default_isr_vectors.o (__vector_dispatch_8)
c:/program files/microchip/xc32/v1.40/bin/bin/../../lib/gcc/pic32mx/4.8.3/../../../../pic32mx/lib/no-float\libpic32.a(vector9.o)
                              c:/program files/microchip/xc32/v1.40/bin/bin/../../lib/gcc/pic32mx/4.8.3/../../../../pic32mx/lib/./proc/32MX440F256H\default_isr_vectors.o (__vector_dispatch_9)
c:/program files/microchip/xc32/v1.40/bin/bin/../../lib/gcc/pic32mx/4.8.3/../../../../pic32mx/lib/no-float\libpic32.a(vector10.o)
                              c:/program files/microchip/xc32/v1.40/bin/bin/../../lib/gcc/pic32mx/4.8.3/../../../../pic32mx/lib/./proc/32MX440F256H\default_isr_vectors.o (__vector_dispatch_10)
c:/program files/microchip/xc32/v1.40/bin/bin/../../lib/gcc/pic32mx/4.8.3/../../../../pic32mx/lib/no-float\libpic32.a(vector11.o)
                              c:/program files/microchip/xc32/v1.40/bin/bin/../../lib/gcc/pic32mx/4.8.3/../../../../pic32mx/lib/./proc/32MX440F256H\default_isr_vectors.o (__vector_dispatch_11)
c:/program files/microchip/xc32/v1.40/bin/bin/../../lib/gcc/pic32mx/4.8.3/../../../../pic32mx/lib/no-float\libpic32.a(vector12.o)
                              c:/program files/microchip/xc32/v1.40/bin/bin/../../lib/gcc/pic32mx/4.8.3/../../../../pic32mx/lib/./proc/32MX440F256H\default_isr_vectors.o (__vector_dispatch_12)
c:/program files/microchip/xc32/v1.40/bin/bin/../../lib/gcc/pic32mx/4.8.3/../../../../pic32mx/lib/no-float\libpic32.a(vector13.o)
                              c:/program files/microchip/xc32/v1.40/bin/bin/../../lib/gcc/pic32mx/4.8.3/../../../../pic32mx/lib/./proc/32MX440F256H\default_isr_vectors.o (__vector_dispatch_13)
c:/program files/microchip/xc32/v1.40/bin/bin/../../lib/gcc/pic32mx/4.8.3/../../../../pic32mx/lib/no-float\libpic32.a(vector14.o)
                              c:/program files/microchip/xc32/v1.40/bin/bin/../../lib/gcc/pic32mx/4.8.3/../../../../pic32mx/lib/./proc/32MX440F256H\default_isr_vectors.o (__vector_dispatch_14)
c:/program files/microchip/xc32/v1.40/bin/bin/../../lib/gcc/pic32mx/4.8.3/../../../../pic32mx/lib/no-float\libpic32.a(vector15.o)
                              c:/program files/microchip/xc32/v1.40/bin/bin/../../lib/gcc/pic32mx/4.8.3/../../../../pic32mx/lib/./proc/32MX440F256H\default_isr_vectors.o (__vector_dispatch_15)
c:/program files/microchip/xc32/v1.40/bin/bin/../../lib/gcc/pic32mx/4.8.3/../../../../pic32mx/lib/no-float\libpic32.a(vector16.o)
                              c:/program files/microchip/xc32/v1.40/bin/bin/../../lib/gcc/pic32mx/4.8.3/../../../../pic32mx/lib/./proc/32MX440F256H\default_isr_vectors.o (__vector_dispatch_16)
c:/program files/microchip/xc32/v1.40/bin/bin/../../lib/gcc/pic32mx/4.8.3/../../../../pic32mx/lib/no-float\libpic32.a(vector17.o)
                              c:/program files/microchip/xc32/v1.40/bin/bin/../../lib/gcc/pic32mx/4.8.3/../../../../pic32mx/lib/./proc/32MX440F256H\default_isr_vectors.o (__vector_dispatch_17)
c:/program files/microchip/xc32/v1.40/bin/bin/../../lib/gcc/pic32mx/4.8.3/../../../../pic32mx/lib/no-float\libpic32.a(vector18.o)
                              c:/program files/microchip/xc32/v1.40/bin/bin/../../lib/gcc/pic32mx/4.8.3/../../../../pic32mx/lib/./proc/32MX440F256H\default_isr_vectors.o (__vector_dispatch_18)
c:/program files/microchip/xc32/v1.40/bin/bin/../../lib/gcc/pic32mx/4.8.3/../../../../pic32mx/lib/no-float\libpic32.a(vector19.o)
                              c:/program files/microchip/xc32/v1.40/bin/bin/../../lib/gcc/pic32mx/4.8.3/../../../../pic32mx/lib/./proc/32MX440F256H\default_isr_vectors.o (__vector_dispatch_19)
c:/program files/microchip/xc32/v1.40/bin/bin/../../lib/gcc/pic32mx/4.8.3/../../../../pic32mx/lib/no-float\libpic32.a(vector20.o)
                              c:/program files/microchip/xc32/v1.40/bin/bin/../../lib/gcc/pic32mx/4.8.3/../../../../pic32mx/lib/./proc/32MX440F256H\default_isr_vectors.o (__vector_dispatch_20)
c:/program files/microchip/xc32/v1.40/bin/bin/../../lib/gcc/pic32mx/4.8.3/../../../../pic32mx/lib/no-float\libpic32.a(vector21.o)
                              c:/program files/microchip/xc32/v1.40/bin/bin/../../lib/gcc/pic32mx/4.8.3/../../../../pic32mx/lib/./proc/32MX440F256H\default_isr_vectors.o (__vector_dispatch_21)
c:/program files/microchip/xc32/v1.40/bin/bin/../../lib/gcc/pic32mx/4.8.3/../../../../pic32mx/lib/no-float\libpic32.a(vector22.o)
                              c:/program files/microchip/xc32/v1.40/bin/bin/../../lib/gcc/pic32mx/4.8.3/../../../../pic32mx/lib/./proc/32MX440F256H\default_isr_vectors.o (__vector_dispatch_22)
c:/program files/microchip/xc32/v1.40/bin/bin/../../lib/gcc/pic32mx/4.8.3/../../../../pic32mx/lib/no-float\libpic32.a(vector23.o)
                              c:/program files/microchip/xc32/v1.40/bin/bin/../../lib/gcc/pic32mx/4.8.3/../../../../pic32mx/lib/./proc/32MX440F256H\default_isr_vectors.o (__vector_dispatch_23)
c:/program files/microchip/xc32/v1.40/bin/bin/../../lib/gcc/pic32mx/4.8.3/../../../../pic32mx/lib/no-float\libpic32.a(vector24.o)
                              c:/program files/microchip/xc32/v1.40/bin/bin/../../lib/gcc/pic32mx/4.8.3/../../../../pic32mx/lib/./proc/32MX440F256H\default_isr_vectors.o (__vector_dispatch_24)
c:/program files/microchip/xc32/v1.40/bin/bin/../../lib/gcc/pic32mx/4.8.3/../../../../pic32mx/lib/no-float\libpic32.a(vector25.o)
                              c:/program files/microchip/xc32/v1.40/bin/bin/../../lib/gcc/pic32mx/4.8.3/../../../../pic32mx/lib/./proc/32MX440F256H\default_isr_vectors.o (__vector_dispatch_25)
c:/program files/microchip/xc32/v1.40/bin/bin/../../lib/gcc/pic32mx/4.8.3/../../../../pic32mx/lib/no-float\libpic32.a(vector26.o)
                              c:/program files/microchip/xc32/v1.40/bin/bin/../../lib/gcc/pic32mx/4.8.3/../../../../pic32mx/lib/./proc/32MX440F256H\default_isr_vectors.o (__vector_dispatch_26)
c:/program files/microchip/xc32/v1.40/bin/bin/../../lib/gcc/pic32mx/4.8.3/../../../../pic32mx/lib/no-float\libpic32.a(vector27.o)
                              c:/program files/microchip/xc32/v1.40/bin/bin/../../lib/gcc/pic32mx/4.8.3/../../../../pic32mx/lib/./proc/32MX440F256H\default_isr_vectors.o (__vector_dispatch_27)
c:/program files/microchip/xc32/v1.40/bin/bin/../../lib/gcc/pic32mx/4.8.3/../../../../pic32mx/lib/no-float\libpic32.a(vector28.o)
                              c:/program files/microchip/xc32/v1.40/bin/bin/../../lib/gcc/pic32mx/4.8.3/../../../../pic32mx/lib/./proc/32MX440F256H\default_isr_vectors.o (__vector_dispatch_28)
c:/program files/microchip/xc32/v1.40/bin/bin/../../lib/gcc/pic32mx/4.8.3/../../../../pic32mx/lib/no-float\libpic32.a(vector29.o)
                              c:/program files/microchip/xc32/v1.40/bin/bin/../../lib/gcc/pic32mx/4.8.3/../../../../pic32mx/lib/./proc/32MX440F256H\default_isr_vectors.o (__vector_dispatch_29)
c:/program files/microchip/xc32/v1.40/bin/bin/../../lib/gcc/pic32mx/4.8.3/../../../../pic32mx/lib/no-float\libpic32.a(vector30.o)
                              c:/program files/microchip/xc32/v1.40/bin/bin/../../lib/gcc/pic32mx/4.8.3/../../../../pic32mx/lib/./proc/32MX440F256H\default_isr_vectors.o (__vector_dispatch_30)
c:/program files/microchip/xc32/v1.40/bin/bin/../../lib/gcc/pic32mx/4.8.3/../../../../pic32mx/lib/no-float\libpic32.a(vector31.o)
                              c:/program files/microchip/xc32/v1.40/bin/bin/../../lib/gcc/pic32mx/4.8.3/../../../../pic32mx/lib/./proc/32MX440F256H\default_isr_vectors.o (__vector_dispatch_31)
c:/program files/microchip/xc32/v1.40/bin/bin/../../lib/gcc/pic32mx/4.8.3/../../../../pic32mx/lib/no-float\libpic32.a(vector32.o)
                              c:/program files/microchip/xc32/v1.40/bin/bin/../../lib/gcc/pic32mx/4.8.3/../../../../pic32mx/lib/./proc/32MX440F256H\default_isr_vectors.o (__vector_dispatch_32)
c:/program files/microchip/xc32/v1.40/bin/bin/../../lib/gcc/pic32mx/4.8.3/../../../../pic32mx/lib/no-float\libpic32.a(vector33.o)
                              c:/program files/microchip/xc32/v1.40/bin/bin/../../lib/gcc/pic32mx/4.8.3/../../../../pic32mx/lib/./proc/32MX440F256H\default_isr_vectors.o (__vector_dispatch_33)
c:/program files/microchip/xc32/v1.40/bin/bin/../../lib/gcc/pic32mx/4.8.3/../../../../pic32mx/lib/no-float\libpic32.a(vector34.o)
                              c:/program files/microchip/xc32/v1.40/bin/bin/../../lib/gcc/pic32mx/4.8.3/../../../../pic32mx/lib/./proc/32MX440F256H\default_isr_vectors.o (__vector_dispatch_34)
c:/program files/microchip/xc32/v1.40/bin/bin/../../lib/gcc/pic32mx/4.8.3/../../../../pic32mx/lib/no-float\libpic32.a(vector35.o)
                              c:/program files/microchip/xc32/v1.40/bin/bin/../../lib/gcc/pic32mx/4.8.3/../../../../pic32mx/lib/./proc/32MX440F256H\default_isr_vectors.o (__vector_dispatch_35)
c:/program files/microchip/xc32/v1.40/bin/bin/../../lib/gcc/pic32mx/4.8.3/../../../../pic32mx/lib/no-float\libpic32.a(vector36.o)
                              c:/program files/microchip/xc32/v1.40/bin/bin/../../lib/gcc/pic32mx/4.8.3/../../../../pic32mx/lib/./proc/32MX440F256H\default_isr_vectors.o (__vector_dispatch_36)
c:/program files/microchip/xc32/v1.40/bin/bin/../../lib/gcc/pic32mx/4.8.3/../../../../pic32mx/lib/no-float\libpic32.a(vector37.o)
                              c:/program files/microchip/xc32/v1.40/bin/bin/../../lib/gcc/pic32mx/4.8.3/../../../../pic32mx/lib/./proc/32MX440F256H\default_isr_vectors.o (__vector_dispatch_37)
c:/program files/microchip/xc32/v1.40/bin/bin/../../lib/gcc/pic32mx/4.8.3/../../../../pic32mx/lib/no-float\libpic32.a(vector38.o)
                              c:/program files/microchip/xc32/v1.40/bin/bin/../../lib/gcc/pic32mx/4.8.3/../../../../pic32mx/lib/./proc/32MX440F256H\default_isr_vectors.o (__vector_dispatch_38)
c:/program files/microchip/xc32/v1.40/bin/bin/../../lib/gcc/pic32mx/4.8.3/../../../../pic32mx/lib/no-float\libpic32.a(vector39.o)
                              c:/program files/microchip/xc32/v1.40/bin/bin/../../lib/gcc/pic32mx/4.8.3/../../../../pic32mx/lib/./proc/32MX440F256H\default_isr_vectors.o (__vector_dispatch_39)
c:/program files/microchip/xc32/v1.40/bin/bin/../../lib/gcc/pic32mx/4.8.3/../../../../pic32mx/lib/no-float\libpic32.a(vector40.o)
                              c:/program files/microchip/xc32/v1.40/bin/bin/../../lib/gcc/pic32mx/4.8.3/../../../../pic32mx/lib/./proc/32MX440F256H\default_isr_vectors.o (__vector_dispatch_40)
c:/program files/microchip/xc32/v1.40/bin/bin/../../lib/gcc/pic32mx/4.8.3/../../../../pic32mx/lib/no-float\libpic32.a(vector41.o)
                              c:/program files/microchip/xc32/v1.40/bin/bin/../../lib/gcc/pic32mx/4.8.3/../../../../pic32mx/lib/./proc/32MX440F256H\default_isr_vectors.o (__vector_dispatch_41)
c:/program files/microchip/xc32/v1.40/bin/bin/../../lib/gcc/pic32mx/4.8.3/../../../../pic32mx/lib/no-float\libpic32.a(vector42.o)
                              c:/program files/microchip/xc32/v1.40/bin/bin/../../lib/gcc/pic32mx/4.8.3/../../../../pic32mx/lib/./proc/32MX440F256H\default_isr_vectors.o (__vector_dispatch_42)
c:/program files/microchip/xc32/v1.40/bin/bin/../../lib/gcc/pic32mx/4.8.3/../../../../pic32mx/lib/no-float\libpic32.a(vector43.o)
                              c:/program files/microchip/xc32/v1.40/bin/bin/../../lib/gcc/pic32mx/4.8.3/../../../../pic32mx/lib/./proc/32MX440F256H\default_isr_vectors.o (__vector_dispatch_43)
c:/program files/microchip/xc32/v1.40/bin/bin/../../lib/gcc/pic32mx/4.8.3/../../../../pic32mx/lib/no-float\libpic32.a(vector44.o)
                              c:/program files/microchip/xc32/v1.40/bin/bin/../../lib/gcc/pic32mx/4.8.3/../../../../pic32mx/lib/./proc/32MX440F256H\default_isr_vectors.o (__vector_dispatch_44)
c:/program files/microchip/xc32/v1.40/bin/bin/../../lib/gcc/pic32mx/4.8.3/../../../../pic32mx/lib/no-float\libpic32.a(default-general-exception-handler.o)
                              c:/program files/microchip/xc32/v1.40/bin/bin/../../lib/gcc/pic32mx/4.8.3/../../../../pic32mx/lib/no-float\libpic32.a(general-exception.o) (_general_exception_handler)
c:/program files/microchip/xc32/v1.40/bin/bin/../../lib/gcc/pic32mx/4.8.3/../../../../pic32mx/lib/no-float\libpic32.a(defaultinterrupt.o)
                              c:/program files/microchip/xc32/v1.40/bin/bin/../../lib/gcc/pic32mx/4.8.3/../../../../pic32mx/lib/no-float\libpic32.a(vector0.o) (_DefaultInterrupt)

Allocating common symbols
Common symbol       size              file

gUSBDeviceCDCInstance
                    0x40              build/PINGUINO/production/_ext/1663442938/usb_device_cdc.o
readBuffer          0x40              build/PINGUINO/production/_ext/1705198617/app.o
endPointTable       0x60              build/PINGUINO/production/_ext/1705198617/system_init.o
appData             0x34              build/PINGUINO/production/_ext/1705198617/app.o
gUSBDeviceCDCIRP    0x6c              build/PINGUINO/production/_ext/1663442938/usb_device_cdc.o
drvUSBObject        0x4               build/PINGUINO/production/_ext/1705198617/system_init.o
gDrvUSBGroup        0xc8              build/PINGUINO/production/_ext/1643514105/drv_usbfs.o
gUSBDeviceCdcCommonDataObj
                    0x2               build/PINGUINO/production/_ext/1663442938/usb_device_cdc.o
usbDevObject0       0x4               build/PINGUINO/production/_ext/1705198617/system_init.o

Microchip PIC32 Memory-Usage Report

kseg0 Program-Memory Usage
section                    address  length [bytes]      (dec)  Description
-------                 ----------  -------------------------  -----------
.text                   0x9d000000          0x624        1572  App's exec code 
.init                   0x9d000624           0x24          36   
.fini                   0x9d000648           0x1c          28   
.ctors                  0x9d000664            0x8           8   
.dtors                  0x9d00066c            0x8           8   
.rodata                 0x9d000674          0x21c         540  Read-only const 
.text._DRV_USBFS_DEVICE 0x9d000890          0xab4        2740   
.text                   0x9d001344          0x9fc        2556  App's exec code 
.text.USB_DEVICE_CDC_Wr 0x9d001d40          0x434        1076   
.text._USB_DEVICE_Proce 0x9d002174          0x428        1064   
.text.xQueueGenericRece 0x9d00259c          0x3e4         996   
.text._USB_DEVICE_Proce 0x9d002980          0x3d8         984   
.text.USB_DEVICE_CDC_Re 0x9d002d58          0x3b4         948   
.text.xQueueGenericSend 0x9d00310c          0x390         912   
.text.DRV_USBFS_DEVICE_ 0x9d00349c          0x38c         908   
.text.APP_Tasks         0x9d003828          0x370         880   
.text._USB_DEVICE_Event 0x9d003b98          0x368         872   
.text.DRV_USBFS_DEVICE_ 0x9d003f00          0x358         856   
.text.DRV_USBFS_DEVICE_ 0x9d004258          0x344         836   
.text._USB_DEVICE_Contr 0x9d00459c          0x308         776   
.text._USB_DEVICE_Ep0Re 0x9d0048a4          0x2d8         728   
.text.DRV_USBFS_DEVICE_ 0x9d004b7c          0x2c0         704   
.text._USB_DEVICE_CDC_I 0x9d004e3c          0x2a4         676   
.text.USB_DEVICE_Initia 0x9d0050e0          0x284         644   
.dinit                  0x9d005364          0x280         640   
.text.pvPortMalloc      0x9d0055e4          0x278         632   
.text.DRV_USBFS_Initial 0x9d00585c          0x270         624   
.text.xTaskIncrementTic 0x9d005acc          0x25c         604   
.text                   0x9d005d28          0x258         600  App's exec code 
.text._USB_DEVICE_CDC_A 0x9d005f80          0x24c         588   
.text.USB_DEVICE_Tasks  0x9d0061cc          0x234         564   
.text.prvProcessReceive 0x9d006400          0x228         552   
.text.malloc            0x9d006628          0x224         548   
.text.DRV_USBFS_DEVICE_ 0x9d00684c          0x218         536   
.text.prvInitialiseNewT 0x9d006a64          0x1f0         496   
.text.DRV_USBFS_DEVICE_ 0x9d006c54          0x1e8         488   
.text.xQueueGenericSend 0x9d006e3c          0x1d8         472   
.text.xTaskResumeAll    0x9d007014          0x1d4         468   
.text._USB_DEVICE_Proce 0x9d0071e8          0x1c8         456   
.text._DRV_USBFS_DEVICE 0x9d0073b0          0x1c0         448   
.text.prvCopyDataToQueu 0x9d007570          0x1b8         440   
.text.APP_USBDeviceCDCE 0x9d007728          0x1ac         428   
.text._USB_DEVICE_GetSt 0x9d0078d4          0x1ac         428   
.text.xTaskPriorityDisi 0x9d007a80          0x1a8         424   
.text._USB_DEVICE_CDC_C 0x9d007c28          0x1a8         424   
.text.vTaskDelete       0x9d007dd0          0x1a0         416   
.text.vTaskPriorityInhe 0x9d007f70          0x1a0         416   
.text._sbrk_init        0x9d008110          0x194         404   
.text.vTaskSwitchContex 0x9d0082a4          0x188         392   
.text._ZL28read_encoded 0x9d00842c          0x180         384   
.rodata                 0x9d0085ac          0x178         376  Read-only const 
.text.xQueueGenericRese 0x9d008724          0x170         368   
.text._ZNK10__cxxabiv12 0x9d008894          0x16c         364   
.text.APP_USBDeviceEven 0x9d008a00          0x168         360   
.text._USB_DEVICE_Confi 0x9d008b68          0x158         344   
.text.prvSwitchTimerLis 0x9d008cc0          0x148         328   
.text.prvInsertBlockInt 0x9d008e08          0x148         328   
.text.prvAddNewTaskToRe 0x9d008f50          0x144         324   
.text._IntHandlerUSBIns 0x9d009094          0x140         320   
.text.xTaskCheckForTime 0x9d0091d4          0x140         320   
.text.xTaskRemoveFromEv 0x9d009314          0x134         308   
.text.prvUnlockQueue    0x9d009448          0x134         308   
.text.prvAddCurrentTask 0x9d00957c          0x130         304   
.text.PerformanceConfig 0x9d0096ac          0x12c         300   
.text._ZL17parse_lsda_h 0x9d0097d8          0x12c         300   
.text._USB_DEVICE_Ep0Tr 0x9d009904          0x128         296   
.text._USB_DEVICE_Forwa 0x9d009a2c          0x120         288   
.text._USB_DEVICE_CDC_R 0x9d009b4c          0x11c         284   
.text._USB_DEVICE_CDC_W 0x9d009c68          0x11c         284   
.text.PLIB_USB_Operatin 0x9d009d84          0x11c         284   
.text.xTimerGenericComm 0x9d009ea0          0x118         280   
.text.vPortFree         0x9d009fb8          0x110         272   
.text.prvHeapInit       0x9d00a0c8          0x110         272   
.text.prvProcessTimerOr 0x9d00a1d8          0x10c         268   
.text._USB_DEVICE_CDC_D 0x9d00a2e4          0x10c         268   
.text._USB_DEVICE_GetFu 0x9d00a3f0          0x10c         268   
.text._USB_DEVICE_DeIni 0x9d00a4fc          0x108         264   
.text.xTaskCreate       0x9d00a604          0x104         260   
.text.prvInsertTimerInA 0x9d00a708          0x104         260   
.text.vTaskStartSchedul 0x9d00a80c          0x100         256   
.text._USB_DEVICE_FindE 0x9d00a90c           0xf8         248   
.text.DRV_USBFS_Open    0x9d00aa04           0xf0         240   
.text.USB_DEVICE_Contro 0x9d00aaf4           0xf0         240   
.text.USB_DEVICE_Open   0x9d00abe4           0xec         236   
.text.APP_Initialize    0x9d00acd0           0xe8         232   
.text.pxPortInitialiseS 0x9d00adb8           0xe8         232   
.text.free              0x9d00aea0           0xe8         232   
.text._ZNK10__cxxabiv11 0x9d00af88           0xe0         224   
.text.prvProcessExpired 0x9d00b068           0xdc         220   
.text.vListInsert       0x9d00b144           0xdc         220   
.text.general_exception 0x9d00b220           0xdc         220   
.text.USB_DEVICE_Contro 0x9d00b2fc           0xd4         212   
.text._ZNK10__cxxabiv11 0x9d00b3d0           0xd4         212   
.text.prvInitialiseTask 0x9d00b4a4           0xd0         208   
.text.xQueueGenericCrea 0x9d00b574           0xcc         204   
.text.DRV_USBFS_Tasks_I 0x9d00b640           0xcc         204   
.text.exit              0x9d00b70c           0xc8         200   
.text._sbrk             0x9d00b7d4           0xc8         200   
.text.__cxa_begin_catch 0x9d00b89c           0xc4         196   
.text.PLIB_USB_EPnAttri 0x9d00b960           0xbc         188   
.text.prvCheckTasksWait 0x9d00ba1c           0xb8         184   
.text.vQueueWaitForMess 0x9d00bad4           0xb4         180   
.text.DRV_USBFS_ClientE 0x9d00bb88           0xb4         180   
.text.DRV_USBFS_DEVICE_ 0x9d00bc3c           0xb4         180   
.text.DRV_USBFS_DEVICE_ 0x9d00bcf0           0xb4         180   
.text._ZN13MyApplicatio 0x9d00bda4           0xac         172   
.text.vTaskEnterCritica 0x9d00be50           0xac         172   
.text._ZL20check_except 0x9d00befc           0xac         172   
.text._ZL21size_of_enco 0x9d00bfa8           0xa8         168   
.text._DRV_USBFS_DEVICE 0x9d00c050           0xa4         164   
.text.__cxa_allocate_ex 0x9d00c0f4           0xa4         164   
.text._ZL21base_of_enco 0x9d00c198           0xa4         164   
.text.vTaskDelay        0x9d00c23c           0x9c         156   
.text.prvCopyDataFromQu 0x9d00c2d8           0x9c         156   
.text.__cxa_throw       0x9d00c374           0x9c         156   
.text._USB_DEVICE_Redir 0x9d00c410           0x98         152   
.text.APP_StateReset    0x9d00c4a8           0x94         148   
.text._ZNK10__cxxabiv12 0x9d00c53c           0x94         148   
.text._ZN3eos4TaskC2EjN 0x9d00c5d0           0x90         144   
.text.uxListRemove      0x9d00c660           0x90         144   
.text.vApplicationSetup 0x9d00c6f0           0x8c         140   
.text.USB_DEVICE_EventH 0x9d00c77c           0x8c         140   
.text._Znwm             0x9d00c808           0x8c         140   
.text.xTimerCreateTimer 0x9d00c894           0x88         136   
.text._USB_DEVICE_CDC_E 0x9d00c91c           0x88         136   
.text._ZN3eos11Applicat 0x9d00c9a4           0x84         132   
.text.prvCheckForValidL 0x9d00ca28           0x84         132   
.text._ZNK10__cxxabiv11 0x9d00caac           0x84         132   
.text.vTaskPlaceOnEvent 0x9d00cb30           0x80         128   
.text.prvInitialiseNewQ 0x9d00cbb0           0x80         128   
.text.USB_DEVICE_CDC_Ev 0x9d00cc30           0x80         128   
.text.USB_DEVICE_Contro 0x9d00ccb0           0x80         128   
.text._ZL16get_adjusted 0x9d00cd30           0x80         128   
.text.vTaskExitCritical 0x9d00cdb0           0x7c         124   
.text.xPortStartSchedul 0x9d00ce2c           0x7c         124   
.text.vListInsertEnd    0x9d00cea8           0x7c         124   
.text.usbSetup          0x9d00cf24           0x78         120   
.text.DRV_USBFS_DEVICE_ 0x9d00cf9c           0x78         120   
.rodata                 0x9d00d014           0x74         116  Read-only const 
.text.prvTaskExitError  0x9d00d088           0x74         116   
.text._ZN10__cxxabiv111 0x9d00d0fc           0x74         116   
.text.main              0x9d00d170           0x70         112   
.text._ZN3eos16UsbClien 0x9d00d1e0           0x70         112   
.text._ZN3eos14AppLoopS 0x9d00d250           0x70         112   
.rodata                 0x9d00d2c0           0x70         112  Read-only const 
.text._ZL23__gxx_except 0x9d00d330           0x70         112   
.text.prvSampleTimeNow  0x9d00d3a0           0x6c         108   
.text.DRV_USBFS_DEVICE_ 0x9d00d40c           0x6c         108   
.text._USB_DEVICE_Clien 0x9d00d478           0x6c         108   
.text.__cxa_free_except 0x9d00d4e4           0x6c         108   
.text._ZNK10__cxxabiv12 0x9d00d550           0x6c         108   
.text._ZN3eos4TaskD2Ev  0x9d00d5bc           0x68         104   
.text.vTaskPlaceOnEvent 0x9d00d624           0x68         104   
.text._ZNK10__cxxabiv11 0x9d00d68c           0x68         104   
.text.prvResetNextTaskU 0x9d00d6f4           0x64         100   
.rodata                 0x9d00d758           0x64         100  Read-only const 
.text.vPortIncrementTic 0x9d00d7bc           0x64         100   
.text._DRV_USBFS_DEVICE 0x9d00d820           0x64         100   
.text.SYS_INT_SourceDis 0x9d00d884           0x64         100   
.text.__cxa_call_termin 0x9d00d8e8           0x64         100   
.text._ZN3eos14AppLoopS 0x9d00d94c           0x60          96   
.rodata                 0x9d00d9ac           0x60          96  Read-only const 
.text.prvGetNextExpireT 0x9d00da0c           0x60          96   
.text._USB_DEVICE_CDC_G 0x9d00da6c           0x60          96   
.text.PLIB_USB_BDTBaseA 0x9d00dacc           0x60          96   
.text._ZL15get_ttype_en 0x9d00db2c           0x60          96   
.text.vApplicationStack 0x9d00db8c           0x5c          92   
.text.prvIsQueueFull    0x9d00dbe8           0x5c          92   
.text._DRV_USBFS_DEVICE 0x9d00dc44           0x5c          92   
.text.prvIdleTask       0x9d00dca0           0x58          88   
.rodata                 0x9d00dcf8           0x58          88  Read-only const 
.text.DRV_USBFS_DEVICE_ 0x9d00dd50           0x58          88   
.text                   0x9d00dda8           0x58          88  App's exec code 
.text.main_entry        0x9d00de00           0x54          84   
.text._ZN16MyAppLoopSer 0x9d00de54           0x54          84   
.text.vApplicationMallo 0x9d00dea8           0x54          84   
.text.vTaskSetTimeOutSt 0x9d00defc           0x54          84   
.text.prvIsQueueEmpty   0x9d00df50           0x54          84   
.text.DRV_USBFS_Close   0x9d00dfa4           0x54          84   
.text.xTaskGetScheduler 0x9d00dff8           0x50          80   
.text.uxPortSetInterrup 0x9d00e048           0x50          80   
.text.vListInitialise   0x9d00e098           0x50          80   
.text.DRV_USBFS_DEVICE_ 0x9d00e0e8           0x50          80   
.text.PLIB_INT_VectorPr 0x9d00e138           0x50          80   
.text._ZNKSt9type_info1 0x9d00e188           0x50          80   
.text._ZL12read_sleb128 0x9d00e1d8           0x50          80   
.text.sbrk              0x9d00e228           0x50          80   
.text.PLIB_INT_VectorSu 0x9d00e278           0x4c          76   
.text._ZN3eos4Task8func 0x9d00e2c4           0x48          72   
.text.DRV_USBFS_DEVICE_ 0x9d00e30c           0x48          72   
.text.DRV_USBFS_DEVICE_ 0x9d00e354           0x48          72   
.text._bootstrap_except 0x9d00e39c           0x48          72   
.text._general_exceptio 0x9d00e3e4           0x48          72   
.vector_default         0x9d00e42c           0x48          72   
.text._ZN16MyAppLoopSer 0x9d00e474           0x44          68   
.text.vAssertCalled     0x9d00e4b8           0x44          68   
.text._ZN3eos4TaskD0Ev  0x9d00e4fc           0x44          68   
.text._ZN3eos4Task5dela 0x9d00e540           0x44          68   
.text._ZN3eos11Applicat 0x9d00e584           0x44          68   
.text.prvTimerTask      0x9d00e5c8           0x44          68   
.text.strcmp            0x9d00e60c           0x44          68   
.text                   0x9d00e650           0x44          68  App's exec code 
.text.halSYSInitialize  0x9d00e694           0x40          64   
.text.usbLoop           0x9d00e6d4           0x40          64   
.text.prvDeleteTCB      0x9d00e714           0x3c          60   
.text.PLIB_INT_SourceIs 0x9d00e750           0x38          56   
.text._ZNSt9bad_allocD0 0x9d00e788           0x38          56   
.text._ZN10__cxxabiv120 0x9d00e7c0           0x38          56   
.text._ZN10__cxxabiv117 0x9d00e7f8           0x38          56   
.text.PLIB_USB_FrameNum 0x9d00e830           0x34          52   
.text._Getmem           0x9d00e864           0x34          52   
.text.PLIB_INT_SourceFl 0x9d00e898           0x30          48   
.text.PLIB_INT_SourceEn 0x9d00e8c8           0x30          48   
.text.PLIB_INT_SourceDi 0x9d00e8f8           0x30          48   
.text.PLIB_INT_Enable   0x9d00e928           0x30          48   
.text.PLIB_INT_GetState 0x9d00e958           0x30          48   
.text.PLIB_USB_EPnAttri 0x9d00e988           0x30          48   
.text.raise             0x9d00e9b8           0x30          48   
.text._ZN3eos16UsbClien 0x9d00e9e8           0x2c          44   
.text.DRV_USBFS_DEVICE_ 0x9d00ea14           0x2c          44   
.text.PLIB_BMX_DataRamW 0x9d00ea40           0x2c          44   
.text.PLIB_PCACHE_Prefe 0x9d00ea6c           0x2c          44   
.text.PLIB_USB_LastTran 0x9d00ea98           0x2c          44   
.text.PLIB_USB_PingPong 0x9d00eac4           0x2c          44   
.text.PLIB_USB_DeviceAd 0x9d00eaf0           0x2c          44   
.text.PLIB_USB_EPnDirec 0x9d00eb1c           0x2c          44   
.text.PLIB_USB_EPnIsSta 0x9d00eb48           0x2c          44   
.text.PLIB_USB_EPnStall 0x9d00eb74           0x2c          44   
.text.memcpy            0x9d00eba0           0x2c          44   
.text.memset            0x9d00ebcc           0x2c          44   
.text._stub_sbd_memlayo 0x9d00ebf8           0x2c          44   
.text.pvTaskIncrementMu 0x9d00ec24           0x28          40   
.text.vPortClearInterru 0x9d00ec4c           0x28          40   
.text.PLIB_INT_SetState 0x9d00ec74           0x28          40   
.text.PLIB_PCACHE_WaitS 0x9d00ec9c           0x28          40   
.text._ZdlPv            0x9d00ecc4           0x28          40   
.text._ZN3eos14AppLoopS 0x9d00ecec           0x24          36   
.text._ZN3eos14AppLoopS 0x9d00ed10           0x24          36   
.text.PLIB_USB_OTG_Inte 0x9d00ed34           0x24          36   
.text.PLIB_USB_OTG_Inte 0x9d00ed58           0x24          36   
.text.PLIB_USB_Interrup 0x9d00ed7c           0x24          36   
.text.PLIB_USB_Interrup 0x9d00eda0           0x24          36   
.text.PLIB_USB_AllInter 0x9d00edc4           0x24          36   
.text._ZNSt9bad_allocD2 0x9d00ede8           0x24          36   
.text._ZNSt9exceptionD0 0x9d00ee0c           0x24          36   
.rodata                 0x9d00ee30           0x24          36  Read-only const 
.text._ZN10__cxxabiv120 0x9d00ee54           0x24          36   
.text._ZNSt9type_infoD0 0x9d00ee78           0x24          36   
.text._ZN10__cxxabiv117 0x9d00ee9c           0x24          36   
.text.PLIB_USB_OTG_Inte 0x9d00eec0           0x20          32   
.text.PLIB_USB_OTG_Sess 0x9d00eee0           0x20          32   
.text.PLIB_USB_Interrup 0x9d00ef00           0x20          32   
.text.PLIB_USB_ErrorInt 0x9d00ef20           0x20          32   
.text.PLIB_USB_PacketTr 0x9d00ef40           0x20          32   
.text.xTaskGetTickCount 0x9d00ef60           0x1c          28   
.text.PLIB_INT_MultiVec 0x9d00ef7c           0x1c          28   
.text.PLIB_USB_OTG_Inte 0x9d00ef98           0x1c          28   
.text.PLIB_USB_Enable   0x9d00efb4           0x1c          28   
.text.PLIB_USB_Interrup 0x9d00efd0           0x1c          28   
.text.PLIB_USB_ResumeSi 0x9d00efec           0x1c          28   
.text.PLIB_USB_ResumeSi 0x9d00f008           0x1c          28   
.text.PLIB_USB_StopInId 0x9d00f024           0x1c          28   
.text.PLIB_USB_StopInId 0x9d00f040           0x1c          28   
.text._ZNK10__cxxabiv11 0x9d00f05c           0x1c          28   
.text._ZN10__cxxabiv112 0x9d00f078           0x18          24   
.text.abort             0x9d00f090           0x18          24   
.text                   0x9d00f0a8           0x18          24  App's exec code 
.text.vTaskSuspendAll   0x9d00f0c0           0x14          20   
.text.vListInitialiseIt 0x9d00f0d4           0x14          20   
.rodata                 0x9d00f0e8           0x14          20  Read-only const 
.text.PLIB_USB_OTG_Inte 0x9d00f0fc           0x14          20   
.text.PLIB_USB_Interrup 0x9d00f110           0x14          20   
.text.PLIB_USB_ErrorInt 0x9d00f124           0x14          20   
.text._ZSt9terminatev   0x9d00f138           0x14          20   
.text._ZSt10unexpectedv 0x9d00f14c           0x14          20   
.text.vTaskMissedYield  0x9d00f160           0x10          16   
.text.__cxa_pure_virtua 0x9d00f170           0x10          16   
.rodata                 0x9d00f180           0x10          16  Read-only const 
.text._ZNSt9exceptionD2 0x9d00f190           0x10          16   
.text._ZNSt9type_infoD2 0x9d00f1a0           0x10          16   
.text._Exit             0x9d00f1b0           0x10          16   
.text.DRV_USBFS_Tasks   0x9d00f1c0            0xc          12   
.text._ZNKSt9bad_alloc4 0x9d00f1cc            0xc          12   
.text._ZNKSt9exception4 0x9d00f1d8            0xc          12   
.text.__cxa_get_globals 0x9d00f1e4            0xc          12   
.text.vApplicationIdleH 0x9d00f1f0            0x8           8   
.text.vApplicationTickH 0x9d00f1f8            0x8           8   
.text.PLIB_BMX_ExistsDa 0x9d00f200            0x8           8   
.text.PLIB_PCACHE_Exist 0x9d00f208            0x8           8   
.text.PLIB_PCACHE_Exist 0x9d00f210            0x8           8   
.text._ZNKSt9type_info1 0x9d00f218            0x8           8   
.text._ZNKSt9type_info1 0x9d00f220            0x8           8   
.text._ZNKSt9type_info1 0x9d00f228            0x8           8   
.text._on_reset         0x9d00f230            0x8           8   
.text._on_bootstrap     0x9d00f238            0x8           8   
.text._exit             0x9d00f240            0x8           8   
.text.kill              0x9d00f248            0x8           8   
.text.getpid            0x9d00f250            0x8           8   
.rodata                 0x9d00f258            0x4           4  Read-only const 
      Total kseg0_program_mem used  :      0xf25c       62044  23.7% of 0x40000

kseg0 Boot-Memory Usage
section                    address  length [bytes]      (dec)  Description
-------                 ----------  -------------------------  -----------
         Total kseg0_boot_mem used  :           0           0  <1% of 0x970

Exception-Memory Usage 
section                    address  length [bytes]      (dec)  Description
-------                 ----------  -------------------------  -----------
.app_excpt              0x9fc01180           0x10          16  General-Exception 
.vector_0               0x9fc01200            0x8           8  Interrupt Vector 0 
.vector_1               0x9fc01220            0x8           8  Interrupt Vector 1 
.vector_2               0x9fc01240            0x8           8  Interrupt Vector 2 
.vector_3               0x9fc01260            0x8           8  Interrupt Vector 3 
.vector_4               0x9fc01280            0x8           8  Interrupt Vector 4 
.vector_5               0x9fc012a0            0x8           8  Interrupt Vector 5 
.vector_6               0x9fc012c0            0x8           8  Interrupt Vector 6 
.vector_7               0x9fc012e0            0x8           8  Interrupt Vector 7 
.vector_8               0x9fc01300            0x8           8  Interrupt Vector 8 
.vector_9               0x9fc01320            0x8           8  Interrupt Vector 9 
.vector_10              0x9fc01340            0x8           8  Interrupt Vector 10 
.vector_11              0x9fc01360            0x8           8  Interrupt Vector 11 
.vector_12              0x9fc01380            0x8           8  Interrupt Vector 12 
.vector_13              0x9fc013a0            0x8           8  Interrupt Vector 13 
.vector_14              0x9fc013c0            0x8           8  Interrupt Vector 14 
.vector_15              0x9fc013e0            0x8           8  Interrupt Vector 15 
.vector_16              0x9fc01400            0x8           8  Interrupt Vector 16 
.vector_17              0x9fc01420            0x8           8  Interrupt Vector 17 
.vector_18              0x9fc01440            0x8           8  Interrupt Vector 18 
.vector_19              0x9fc01460            0x8           8  Interrupt Vector 19 
.vector_20              0x9fc01480            0x8           8  Interrupt Vector 20 
.vector_21              0x9fc014a0            0x8           8  Interrupt Vector 21 
.vector_22              0x9fc014c0            0x8           8  Interrupt Vector 22 
.vector_23              0x9fc014e0            0x8           8  Interrupt Vector 23 
.vector_24              0x9fc01500            0x8           8  Interrupt Vector 24 
.vector_25              0x9fc01520            0x8           8  Interrupt Vector 25 
.vector_26              0x9fc01540            0x8           8  Interrupt Vector 26 
.vector_27              0x9fc01560            0x8           8  Interrupt Vector 27 
.vector_28              0x9fc01580            0x8           8  Interrupt Vector 28 
.vector_29              0x9fc015a0            0x8           8  Interrupt Vector 29 
.vector_30              0x9fc015c0            0x8           8  Interrupt Vector 30 
.vector_31              0x9fc015e0            0x8           8  Interrupt Vector 31 
.vector_32              0x9fc01600            0x8           8  Interrupt Vector 32 
.vector_33              0x9fc01620            0x8           8  Interrupt Vector 33 
.vector_34              0x9fc01640            0x8           8  Interrupt Vector 34 
.vector_35              0x9fc01660            0x8           8  Interrupt Vector 35 
.vector_36              0x9fc01680            0x8           8  Interrupt Vector 36 
.vector_37              0x9fc016a0            0x8           8  Interrupt Vector 37 
.vector_38              0x9fc016c0            0x8           8  Interrupt Vector 38 
.vector_39              0x9fc016e0            0x8           8  Interrupt Vector 39 
.vector_40              0x9fc01700            0x8           8  Interrupt Vector 40 
.vector_41              0x9fc01720            0x8           8  Interrupt Vector 41 
.vector_42              0x9fc01740            0x8           8  Interrupt Vector 42 
.vector_43              0x9fc01760            0x8           8  Interrupt Vector 43 
.vector_44              0x9fc01780            0x8           8  Interrupt Vector 44 
.vector_45              0x9fc017a0            0x8           8  Interrupt Vector 45 
          Total exception_mem used  :       0x180         384  9.4% of 0x1000

kseg1 Boot-Memory Usage
section                    address  length [bytes]      (dec)  Description
-------                 ----------  -------------------------  -----------
.reset                  0xbfc00000          0x1f4         500  Reset handler 
.bev_excpt              0xbfc00380           0x10          16  BEV-Exception 
         Total kseg1_boot_mem used  :       0x204         516  44.2% of 0x490
        --------------------------------------------------------------------------
         Total Program Memory used  :      0xf5e0       62944  23.3% of 0x41e00
        --------------------------------------------------------------------------


kseg1 Data-Memory Usage
section                    address  length [bytes]      (dec)  Description
-------                 ----------  -------------------------  -----------
.jcr                    0xa0000000            0x4           4   
.eh_frame               0xa0000004            0x4           4   
.gcc_except_table       0xa0000008           0x30          48   
.sdata                  0xa0000038            0xc          12  Small init data 
.sbss                   0xa0000044           0x78         120  Small uninit data 
.bss                    0xa00000bc          0x144         324  Uninitialized data 
.bss                    0xa0000200          0x248         584  Uninitialized data 
.bss                    0xa0000448         0x4680       18048  Uninitialized data 
.bss._ZL16emergency_buf 0xa0004ac8          0x800        2048   
.bss                    0xa00052c8          0x194         404  Uninitialized data 
.data                   0xa000545c           0x4c          76  Initialized data 
.bss                    0xa00054a8           0x6c         108  Uninitialized data 
.data                   0xa0005514           0x24          36  Initialized data 
.bss._ZL10eh_globals.eh 0xa0005538            0x8           8   
.bss                    0xa0005540            0x8           8  Uninitialized data 
.bss._ZL14emergency_use 0xa0005548            0x4           4   
.data._ZN10__cxxabiv120 0xa000554c            0x4           4   
.bss.__new_handler.__ne 0xa0005550            0x4           4   
.data._ZN10__cxxabiv119 0xa0005554            0x4           4   
.data                   0xa0005558            0x4           4  Initialized data 
.bss                    0xa000555c            0x8           8  Uninitialized data 
         Total kseg1_data_mem used  :      0x5564       21860  66.7% of 0x8000
        --------------------------------------------------------------------------
            Total Data Memory used  :      0x5564       21860  66.7% of 0x8000
        --------------------------------------------------------------------------


Dynamic Data-Memory Reservation
section                    address  length [bytes]      (dec)  Description
-------                 ----------  -------------------------  -----------
heap                    0xa0005568          0x800        2048  Reserved for heap 
stack                   0xa0005d80         0x2270        8816  Reserved for stack 

        --------------------------------------------------------------------------

Discarded input sections

 .text          0x00000000        0x0 c:/program files/microchip/xc32/v1.40/bin/bin/../../lib/gcc/pic32mx/4.8.3/../../../../pic32mx/lib/./proc/32MX440F256H/cpprt0_mips32r2.o
 .data          0x00000000        0x0 c:/program files/microchip/xc32/v1.40/bin/bin/../../lib/gcc/pic32mx/4.8.3/../../../../pic32mx/lib/./proc/32MX440F256H/cpprt0_mips32r2.o
 .bss           0x00000000        0x0 c:/program files/microchip/xc32/v1.40/bin/bin/../../lib/gcc/pic32mx/4.8.3/../../../../pic32mx/lib/./proc/32MX440F256H/cpprt0_mips32r2.o
 .text          0x00000000        0x0 c:/program files/microchip/xc32/v1.40/bin/bin/../../lib/gcc/pic32mx/4.8.3/no-float/crti.o
 .data          0x00000000        0x0 c:/program files/microchip/xc32/v1.40/bin/bin/../../lib/gcc/pic32mx/4.8.3/no-float/crti.o
 .bss           0x00000000        0x0 c:/program files/microchip/xc32/v1.40/bin/bin/../../lib/gcc/pic32mx/4.8.3/no-float/crti.o
 .reginfo       0x00000000       0x18 c:/program files/microchip/xc32/v1.40/bin/bin/../../lib/gcc/pic32mx/4.8.3/no-float/crti.o
 .data          0x00000000        0x4 c:/program files/microchip/xc32/v1.40/bin/bin/../../lib/gcc/pic32mx/4.8.3/no-float/crtbegin.o
 .reginfo       0x00000000       0x18 c:/program files/microchip/xc32/v1.40/bin/bin/../../lib/gcc/pic32mx/4.8.3/no-float/crtbegin.o
 .text          0x00000000        0x0 build/PINGUINO/production/_ext/1472/Main.o
 .data          0x00000000        0x0 build/PINGUINO/production/_ext/1472/Main.o
 .bss           0x00000000        0x0 build/PINGUINO/production/_ext/1472/Main.o
 .reginfo       0x00000000       0x18 build/PINGUINO/production/_ext/1472/Main.o
 .text          0x00000000        0x0 build/PINGUINO/production/_ext/1472/rtos_hooks.o
 .data          0x00000000        0x0 build/PINGUINO/production/_ext/1472/rtos_hooks.o
 .bss           0x00000000        0x0 build/PINGUINO/production/_ext/1472/rtos_hooks.o
 .reginfo       0x00000000       0x18 build/PINGUINO/production/_ext/1472/rtos_hooks.o
 .text          0x00000000        0x0 build/PINGUINO/production/_ext/1472/Config.o
 .data          0x00000000        0x0 build/PINGUINO/production/_ext/1472/Config.o
 .bss           0x00000000        0x0 build/PINGUINO/production/_ext/1472/Config.o
 .reginfo       0x00000000       0x18 build/PINGUINO/production/_ext/1472/Config.o
 .text          0x00000000        0x0 build/PINGUINO/production/_ext/55825582/halSYS.o
 .data          0x00000000        0x0 build/PINGUINO/production/_ext/55825582/halSYS.o
 .bss           0x00000000        0x0 build/PINGUINO/production/_ext/55825582/halSYS.o
 .reginfo       0x00000000       0x18 build/PINGUINO/production/_ext/55825582/halSYS.o
 .text          0x00000000        0x0 build/PINGUINO/production/_ext/1705198617/system_init.o
 .data          0x00000000        0x0 build/PINGUINO/production/_ext/1705198617/system_init.o
 .bss           0x00000000        0x0 build/PINGUINO/production/_ext/1705198617/system_init.o
 .reginfo       0x00000000       0x18 build/PINGUINO/production/_ext/1705198617/system_init.o
 .text          0x00000000        0x0 build/PINGUINO/production/_ext/1705198617/app.o
 .bss           0x00000000        0x0 build/PINGUINO/production/_ext/1705198617/app.o
 .reginfo       0x00000000       0x18 build/PINGUINO/production/_ext/1705198617/app.o
 .text          0x00000000        0x0 build/PINGUINO/production/_ext/2012494728/eosUsbClient.o
 .data          0x00000000        0x0 build/PINGUINO/production/_ext/2012494728/eosUsbClient.o
 .bss           0x00000000        0x0 build/PINGUINO/production/_ext/2012494728/eosUsbClient.o
 .reginfo       0x00000000       0x18 build/PINGUINO/production/_ext/2012494728/eosUsbClient.o
 .rodata        0x00000000        0x8 build/PINGUINO/production/_ext/2012494728/eosUsbClient.o
 .text          0x00000000        0x0 build/PINGUINO/production/_ext/863068963/eosAppLoop.o
 .data          0x00000000        0x0 build/PINGUINO/production/_ext/863068963/eosAppLoop.o
 .bss           0x00000000        0x0 build/PINGUINO/production/_ext/863068963/eosAppLoop.o
 .reginfo       0x00000000       0x18 build/PINGUINO/production/_ext/863068963/eosAppLoop.o
 .gnu.linkonce.t._ZN3eos8IRunableC2Ev
                0x00000000       0x34 build/PINGUINO/production/_ext/863068963/eosAppLoop.o
 .gnu.linkonce.r._ZTVN3eos8IRunableE
                0x00000000        0xc build/PINGUINO/production/_ext/863068963/eosAppLoop.o
 .rodata        0x00000000        0x8 build/PINGUINO/production/_ext/863068963/eosAppLoop.o
 .text          0x00000000        0x0 build/PINGUINO/production/_ext/1935080774/eosTask.o
 .data          0x00000000        0x0 build/PINGUINO/production/_ext/1935080774/eosTask.o
 .bss           0x00000000        0x0 build/PINGUINO/production/_ext/1935080774/eosTask.o
 .reginfo       0x00000000       0x18 build/PINGUINO/production/_ext/1935080774/eosTask.o
 .text._ZN3eos4Task12getTickCountEv
                0x00000000       0x30 build/PINGUINO/production/_ext/1935080774/eosTask.o
 .text._ZN3eos4Task10delayUntilEjPj
                0x00000000       0x4c build/PINGUINO/production/_ext/1935080774/eosTask.o
 .text._ZN3eos4Task20enterCriticalSectionEv
                0x00000000       0x30 build/PINGUINO/production/_ext/1935080774/eosTask.o
 .text._ZN3eos4Task19exitCriticalSectionEv
                0x00000000       0x30 build/PINGUINO/production/_ext/1935080774/eosTask.o
 .text._ZN3eos4Task17suspendAllThreadsEv
                0x00000000       0x30 build/PINGUINO/production/_ext/1935080774/eosTask.o
 .text._ZN3eos4Task16resumeAllThreadsEv
                0x00000000       0x30 build/PINGUINO/production/_ext/1935080774/eosTask.o
 .text          0x00000000        0x0 build/PINGUINO/production/_ext/1315484212/eosApplication.o
 .data          0x00000000        0x0 build/PINGUINO/production/_ext/1315484212/eosApplication.o
 .bss           0x00000000        0x0 build/PINGUINO/production/_ext/1315484212/eosApplication.o
 .reginfo       0x00000000       0x18 build/PINGUINO/production/_ext/1315484212/eosApplication.o
 .gnu.linkonce.t._ZN3eos11Application9onExecuteEv
                0x00000000       0x24 build/PINGUINO/production/_ext/1315484212/eosApplication.o
 .gnu.linkonce.t._ZN3eos11Application12onInitializeEv
                0x00000000       0x24 build/PINGUINO/production/_ext/1315484212/eosApplication.o
 .gnu.linkonce.t._ZN3eos11Application11onTerminateEv
                0x00000000       0x24 build/PINGUINO/production/_ext/1315484212/eosApplication.o
 .text          0x00000000        0x0 build/PINGUINO/production/_ext/2129976512/tasks.o
 .data          0x00000000        0x0 build/PINGUINO/production/_ext/2129976512/tasks.o
 .reginfo       0x00000000       0x18 build/PINGUINO/production/_ext/2129976512/tasks.o
 .text.vTaskDelayUntil
                0x00000000      0x19c build/PINGUINO/production/_ext/2129976512/tasks.o
 .text.uxTaskPriorityGet
                0x00000000       0x5c build/PINGUINO/production/_ext/2129976512/tasks.o
 .text.uxTaskPriorityGetFromISR
                0x00000000       0x64 build/PINGUINO/production/_ext/2129976512/tasks.o
 .text.vTaskPrioritySet
                0x00000000      0x26c build/PINGUINO/production/_ext/2129976512/tasks.o
 .text.vTaskSuspend
                0x00000000      0x1a4 build/PINGUINO/production/_ext/2129976512/tasks.o
 .text.prvTaskIsTaskSuspended
                0x00000000       0xc4 build/PINGUINO/production/_ext/2129976512/tasks.o
 .text.vTaskResume
                0x00000000      0x128 build/PINGUINO/production/_ext/2129976512/tasks.o
 .text.xTaskResumeFromISR
                0x00000000      0x134 build/PINGUINO/production/_ext/2129976512/tasks.o
 .text.vTaskEndScheduler
                0x00000000       0x68 build/PINGUINO/production/_ext/2129976512/tasks.o
 .text.xTaskGetTickCountFromISR
                0x00000000       0x20 build/PINGUINO/production/_ext/2129976512/tasks.o
 .text.uxTaskGetNumberOfTasks
                0x00000000        0xc build/PINGUINO/production/_ext/2129976512/tasks.o
 .text.pcTaskGetName
                0x00000000       0x64 build/PINGUINO/production/_ext/2129976512/tasks.o
 .text.vTaskPlaceOnUnorderedEventList
                0x00000000       0xa0 build/PINGUINO/production/_ext/2129976512/tasks.o
 .text.xTaskRemoveFromUnorderedEventList
                0x00000000      0x130 build/PINGUINO/production/_ext/2129976512/tasks.o
 .text.xTaskGetCurrentTaskHandle
                0x00000000       0x1c build/PINGUINO/production/_ext/2129976512/tasks.o
 .text.uxTaskResetEventItemValue
                0x00000000       0x38 build/PINGUINO/production/_ext/2129976512/tasks.o
 .text.ulTaskNotifyTake
                0x00000000       0xe8 build/PINGUINO/production/_ext/2129976512/tasks.o
 .text.xTaskNotifyWait
                0x00000000      0x12c build/PINGUINO/production/_ext/2129976512/tasks.o
 .text.xTaskGenericNotify
                0x00000000      0x240 build/PINGUINO/production/_ext/2129976512/tasks.o
 .text.xTaskGenericNotifyFromISR
                0x00000000      0x280 build/PINGUINO/production/_ext/2129976512/tasks.o
 .text.vTaskNotifyGiveFromISR
                0x00000000      0x19c build/PINGUINO/production/_ext/2129976512/tasks.o
 .text.xTaskNotifyStateClear
                0x00000000       0x84 build/PINGUINO/production/_ext/2129976512/tasks.o
 .text          0x00000000        0x0 build/PINGUINO/production/_ext/2129976512/queue.o
 .data          0x00000000        0x0 build/PINGUINO/production/_ext/2129976512/queue.o
 .bss           0x00000000        0x0 build/PINGUINO/production/_ext/2129976512/queue.o
 .reginfo       0x00000000       0x18 build/PINGUINO/production/_ext/2129976512/queue.o
 .text.prvInitialiseMutex
                0x00000000       0x58 build/PINGUINO/production/_ext/2129976512/queue.o
 .text.xQueueCreateMutex
                0x00000000       0x58 build/PINGUINO/production/_ext/2129976512/queue.o
 .text.xQueueCreateCountingSemaphore
                0x00000000       0x9c build/PINGUINO/production/_ext/2129976512/queue.o
 .text.xQueueGiveFromISR
                0x00000000      0x19c build/PINGUINO/production/_ext/2129976512/queue.o
 .text.xQueueReceiveFromISR
                0x00000000      0x17c build/PINGUINO/production/_ext/2129976512/queue.o
 .text.xQueuePeekFromISR
                0x00000000      0x11c build/PINGUINO/production/_ext/2129976512/queue.o
 .text.uxQueueMessagesWaiting
                0x00000000       0x5c build/PINGUINO/production/_ext/2129976512/queue.o
 .text.uxQueueSpacesAvailable
                0x00000000       0x70 build/PINGUINO/production/_ext/2129976512/queue.o
 .text.uxQueueMessagesWaitingFromISR
                0x00000000       0x4c build/PINGUINO/production/_ext/2129976512/queue.o
 .text.vQueueDelete
                0x00000000       0x50 build/PINGUINO/production/_ext/2129976512/queue.o
 .text.xQueueIsQueueEmptyFromISR
                0x00000000       0x64 build/PINGUINO/production/_ext/2129976512/queue.o
 .text.xQueueIsQueueFullFromISR
                0x00000000       0x6c build/PINGUINO/production/_ext/2129976512/queue.o
 .text          0x00000000        0x0 build/PINGUINO/production/_ext/2129976512/timers.o
 .data          0x00000000        0x0 build/PINGUINO/production/_ext/2129976512/timers.o
 .reginfo       0x00000000       0x18 build/PINGUINO/production/_ext/2129976512/timers.o
 .text.xTimerCreate
                0x00000000       0x70 build/PINGUINO/production/_ext/2129976512/timers.o
 .text.prvInitialiseNewTimer
                0x00000000       0xac build/PINGUINO/production/_ext/2129976512/timers.o
 .text.xTimerGetTimerDaemonTaskHandle
                0x00000000       0x3c build/PINGUINO/production/_ext/2129976512/timers.o
 .text.xTimerGetPeriod
                0x00000000       0x4c build/PINGUINO/production/_ext/2129976512/timers.o
 .text.xTimerGetExpiryTime
                0x00000000       0x54 build/PINGUINO/production/_ext/2129976512/timers.o
 .text.pcTimerGetName
                0x00000000       0x4c build/PINGUINO/production/_ext/2129976512/timers.o
 .text.xTimerIsTimerActive
                0x00000000       0x6c build/PINGUINO/production/_ext/2129976512/timers.o
 .text.pvTimerGetTimerID
                0x00000000       0x64 build/PINGUINO/production/_ext/2129976512/timers.o
 .text.vTimerSetTimerID
                0x00000000       0x64 build/PINGUINO/production/_ext/2129976512/timers.o
 .text          0x00000000        0x0 build/PINGUINO/production/_ext/1298945782/port.o
 .data          0x00000000        0x0 build/PINGUINO/production/_ext/1298945782/port.o
 .reginfo       0x00000000       0x18 build/PINGUINO/production/_ext/1298945782/port.o
 .text.vPortEndScheduler
                0x00000000       0x3c build/PINGUINO/production/_ext/1298945782/port.o
 .data          0x00000000        0x0 build/PINGUINO/production/_ext/1298945782/port_asm.o
 .bss           0x00000000        0x0 build/PINGUINO/production/_ext/1298945782/port_asm.o
 .reginfo       0x00000000       0x18 build/PINGUINO/production/_ext/1298945782/port_asm.o
 .text          0x00000000        0x0 build/PINGUINO/production/_ext/696550819/heap_4.o
 .data          0x00000000        0x0 build/PINGUINO/production/_ext/696550819/heap_4.o
 .reginfo       0x00000000       0x18 build/PINGUINO/production/_ext/696550819/heap_4.o
 .text.xPortGetFreeHeapSize
                0x00000000        0xc build/PINGUINO/production/_ext/696550819/heap_4.o
 .text.xPortGetMinimumEverFreeHeapSize
                0x00000000        0xc build/PINGUINO/production/_ext/696550819/heap_4.o
 .text.vPortInitialiseBlocks
                0x00000000        0x8 build/PINGUINO/production/_ext/696550819/heap_4.o
 .text          0x00000000        0x0 build/PINGUINO/production/_ext/2129976512/list.o
 .data          0x00000000        0x0 build/PINGUINO/production/_ext/2129976512/list.o
 .bss           0x00000000        0x0 build/PINGUINO/production/_ext/2129976512/list.o
 .reginfo       0x00000000       0x18 build/PINGUINO/production/_ext/2129976512/list.o
 .text          0x00000000        0x0 build/PINGUINO/production/_ext/1643514105/drv_usbfs.o
 .data          0x00000000        0x0 build/PINGUINO/production/_ext/1643514105/drv_usbfs.o
 .bss           0x00000000        0x0 build/PINGUINO/production/_ext/1643514105/drv_usbfs.o
 .reginfo       0x00000000       0x18 build/PINGUINO/production/_ext/1643514105/drv_usbfs.o
 .text.DRV_USBFS_Deinitialize
                0x00000000      0x114 build/PINGUINO/production/_ext/1643514105/drv_usbfs.o
 .text.DRV_USBFS_Status
                0x00000000       0x64 build/PINGUINO/production/_ext/1643514105/drv_usbfs.o
 .text.DRV_USBFS_HOST_Resume
                0x00000000       0x88 build/PINGUINO/production/_ext/1643514105/drv_usbfs.o
 .text.DRV_USBFS_HOST_Suspend
                0x00000000       0x88 build/PINGUINO/production/_ext/1643514105/drv_usbfs.o
 .text.DRV_USBFS_Tasks_ISR_USBDMA
                0x00000000        0xc build/PINGUINO/production/_ext/1643514105/drv_usbfs.o
 .text          0x00000000        0x0 build/PINGUINO/production/_ext/1643514105/drv_usbfs_device.o
 .bss           0x00000000        0x0 build/PINGUINO/production/_ext/1643514105/drv_usbfs_device.o
 .reginfo       0x00000000       0x18 build/PINGUINO/production/_ext/1643514105/drv_usbfs_device.o
 .text          0x00000000        0x0 build/PINGUINO/production/_ext/1712295097/sys_int_pic32.o
 .data          0x00000000        0x0 build/PINGUINO/production/_ext/1712295097/sys_int_pic32.o
 .bss           0x00000000        0x0 build/PINGUINO/production/_ext/1712295097/sys_int_pic32.o
 .reginfo       0x00000000       0x18 build/PINGUINO/production/_ext/1712295097/sys_int_pic32.o
 .text.SYS_INT_Initialize
                0x00000000       0x24 build/PINGUINO/production/_ext/1712295097/sys_int_pic32.o
 .text.SYS_INT_StatusGetAndDisable
                0x00000000       0x2c build/PINGUINO/production/_ext/1712295097/sys_int_pic32.o
 .text.SYS_INT_StatusRestore
                0x00000000       0x2c build/PINGUINO/production/_ext/1712295097/sys_int_pic32.o
 .text.SYS_INT_Disable
                0x00000000       0x38 build/PINGUINO/production/_ext/1712295097/sys_int_pic32.o
 .text.SYS_INT_ExternalInterruptTriggerSet
                0x00000000       0x58 build/PINGUINO/production/_ext/1712295097/sys_int_pic32.o
 .text          0x00000000        0x0 build/PINGUINO/production/_ext/1663442938/usb_device_cdc.o
 .data          0x00000000        0x0 build/PINGUINO/production/_ext/1663442938/usb_device_cdc.o
 .bss           0x00000000        0x0 build/PINGUINO/production/_ext/1663442938/usb_device_cdc.o
 .reginfo       0x00000000       0x18 build/PINGUINO/production/_ext/1663442938/usb_device_cdc.o
 .text._USB_DEVICE_CDC_SerialStateSendIRPCallback
                0x00000000      0x11c build/PINGUINO/production/_ext/1663442938/usb_device_cdc.o
 .text.USB_DEVICE_CDC_ReadPacketSizeGet
                0x00000000       0x3c build/PINGUINO/production/_ext/1663442938/usb_device_cdc.o
 .text.USB_DEVICE_CDC_WritePacketSizeGet
                0x00000000       0x3c build/PINGUINO/production/_ext/1663442938/usb_device_cdc.o
 .text.USB_DEVICE_CDC_SerialStateNotificationSend
                0x00000000      0x37c build/PINGUINO/production/_ext/1663442938/usb_device_cdc.o
 .text          0x00000000        0x0 build/PINGUINO/production/_ext/1663442938/usb_device.o
 .data          0x00000000        0x0 build/PINGUINO/production/_ext/1663442938/usb_device.o
 .reginfo       0x00000000       0x18 build/PINGUINO/production/_ext/1663442938/usb_device.o
 .rodata        0x00000000        0x2 build/PINGUINO/production/_ext/1663442938/usb_device.o
 .text.USB_DEVICE_Status
                0x00000000       0x68 build/PINGUINO/production/_ext/1663442938/usb_device.o
 .text.USB_DEVICE_IsSuspended
                0x00000000       0x3c build/PINGUINO/production/_ext/1663442938/usb_device.o
 .text.USB_DEVICE_StateGet
                0x00000000       0x3c build/PINGUINO/production/_ext/1663442938/usb_device.o
 .text.USB_DEVICE_Deinitialize
                0x00000000       0x6c build/PINGUINO/production/_ext/1663442938/usb_device.o
 .text.USB_DEVICE_Close
                0x00000000       0x50 build/PINGUINO/production/_ext/1663442938/usb_device.o
 .text.USB_DEVICE_ClientStatusGet
                0x00000000       0x4c build/PINGUINO/production/_ext/1663442938/usb_device.o
 .text.USB_DEVICE_Tasks_ISR
                0x00000000       0x70 build/PINGUINO/production/_ext/1663442938/usb_device.o
 .text.USB_DEVICE_Tasks_ISR_USBDMA
                0x00000000       0x70 build/PINGUINO/production/_ext/1663442938/usb_device.o
 .text.USB_DEVICE_ActiveConfigurationGet
                0x00000000       0x4c build/PINGUINO/production/_ext/1663442938/usb_device.o
 .text.USB_DEVICE_ActiveSpeedGet
                0x00000000       0x54 build/PINGUINO/production/_ext/1663442938/usb_device.o
 .text.USB_DEVICE_PowerStateSet
                0x00000000       0x64 build/PINGUINO/production/_ext/1663442938/usb_device.o
 .text.USB_DEVICE_RemoteWakeupStatusGet
                0x00000000       0x4c build/PINGUINO/production/_ext/1663442938/usb_device.o
 .text.USB_DEVICE_RemoteWakeupStop
                0x00000000       0x60 build/PINGUINO/production/_ext/1663442938/usb_device.o
 .text.USB_DEVICE_RemoteWakeupStart
                0x00000000       0x60 build/PINGUINO/production/_ext/1663442938/usb_device.o
 .text._USB_DEVICE_EndpointMutexCreateFunction
                0x00000000       0x78 build/PINGUINO/production/_ext/1663442938/usb_device.o
 .text._USB_DEVICE_EndpointMutexDeleteFunction
                0x00000000       0x40 build/PINGUINO/production/_ext/1663442938/usb_device.o
 .text._USB_DEVICE_GetStringDescriptorRequestProcessAdvanced
                0x00000000      0x190 build/PINGUINO/production/_ext/1663442938/usb_device.o
 .text          0x00000000        0x0 build/PINGUINO/production/_ext/1663442938/usb_device_cdc_acm.o
 .data          0x00000000        0x0 build/PINGUINO/production/_ext/1663442938/usb_device_cdc_acm.o
 .bss           0x00000000        0x0 build/PINGUINO/production/_ext/1663442938/usb_device_cdc_acm.o
 .reginfo       0x00000000       0x18 build/PINGUINO/production/_ext/1663442938/usb_device_cdc_acm.o
 .text          0x00000000        0x0 ..\..\..\..\..\..\..\..\..\..\microchip\harmony\v1_07_01\bin\framework\peripheral\PIC32MX440F256H_peripherals.a(peripheral.o)
 .data          0x00000000        0x0 ..\..\..\..\..\..\..\..\..\..\microchip\harmony\v1_07_01\bin\framework\peripheral\PIC32MX440F256H_peripherals.a(peripheral.o)
 .bss           0x00000000        0x0 ..\..\..\..\..\..\..\..\..\..\microchip\harmony\v1_07_01\bin\framework\peripheral\PIC32MX440F256H_peripherals.a(peripheral.o)
 .reginfo       0x00000000       0x18 ..\..\..\..\..\..\..\..\..\..\microchip\harmony\v1_07_01\bin\framework\peripheral\PIC32MX440F256H_peripherals.a(peripheral.o)
 .text.PLIB_ADC_Enable
                0x00000000       0x1c ..\..\..\..\..\..\..\..\..\..\microchip\harmony\v1_07_01\bin\framework\peripheral\PIC32MX440F256H_peripherals.a(peripheral.o)
 .text.PLIB_ADC_Disable
                0x00000000       0x1c ..\..\..\..\..\..\..\..\..\..\microchip\harmony\v1_07_01\bin\framework\peripheral\PIC32MX440F256H_peripherals.a(peripheral.o)
 .text.PLIB_ADC_ExistsEnableControl
                0x00000000        0x8 ..\..\..\..\..\..\..\..\..\..\microchip\harmony\v1_07_01\bin\framework\peripheral\PIC32MX440F256H_peripherals.a(peripheral.o)
 .text.PLIB_ADC_StopInIdleEnable
                0x00000000       0x1c ..\..\..\..\..\..\..\..\..\..\microchip\harmony\v1_07_01\bin\framework\peripheral\PIC32MX440F256H_peripherals.a(peripheral.o)
 .text.PLIB_ADC_StopInIdleDisable
                0x00000000       0x1c ..\..\..\..\..\..\..\..\..\..\microchip\harmony\v1_07_01\bin\framework\peripheral\PIC32MX440F256H_peripherals.a(peripheral.o)
 .text.PLIB_ADC_ExistsStopInIdleControl
                0x00000000        0x8 ..\..\..\..\..\..\..\..\..\..\microchip\harmony\v1_07_01\bin\framework\peripheral\PIC32MX440F256H_peripherals.a(peripheral.o)
 .text.PLIB_ADC_CalibrationEnable
                0x00000000       0x1c ..\..\..\..\..\..\..\..\..\..\microchip\harmony\v1_07_01\bin\framework\peripheral\PIC32MX440F256H_peripherals.a(peripheral.o)
 .text.PLIB_ADC_CalibrationDisable
                0x00000000       0x1c ..\..\..\..\..\..\..\..\..\..\microchip\harmony\v1_07_01\bin\framework\peripheral\PIC32MX440F256H_peripherals.a(peripheral.o)
 .text.PLIB_ADC_ExistsCalibrationControl
                0x00000000        0x8 ..\..\..\..\..\..\..\..\..\..\microchip\harmony\v1_07_01\bin\framework\peripheral\PIC32MX440F256H_peripherals.a(peripheral.o)
 .text.PLIB_ADC_InputScanMaskAdd
                0x00000000       0x18 ..\..\..\..\..\..\..\..\..\..\microchip\harmony\v1_07_01\bin\framework\peripheral\PIC32MX440F256H_peripherals.a(peripheral.o)
 .text.PLIB_ADC_InputScanMaskRemove
                0x00000000       0x18 ..\..\..\..\..\..\..\..\..\..\microchip\harmony\v1_07_01\bin\framework\peripheral\PIC32MX440F256H_peripherals.a(peripheral.o)
 .text.PLIB_ADC_ExistsMuxInputScanSelect
                0x00000000        0x8 ..\..\..\..\..\..\..\..\..\..\microchip\harmony\v1_07_01\bin\framework\peripheral\PIC32MX440F256H_peripherals.a(peripheral.o)
 .text.PLIB_ADC_InputScanMaskAddExtended
                0x00000000        0x8 ..\..\..\..\..\..\..\..\..\..\microchip\harmony\v1_07_01\bin\framework\peripheral\PIC32MX440F256H_peripherals.a(peripheral.o)
 .text.PLIB_ADC_InputScanMaskRemoveExtended
                0x00000000        0x8 ..\..\..\..\..\..\..\..\..\..\microchip\harmony\v1_07_01\bin\framework\peripheral\PIC32MX440F256H_peripherals.a(peripheral.o)
 .text.PLIB_ADC_ExistsMuxInputScanSelectExtended
                0x00000000        0x8 ..\..\..\..\..\..\..\..\..\..\microchip\harmony\v1_07_01\bin\framework\peripheral\PIC32MX440F256H_peripherals.a(peripheral.o)
 .text.PLIB_ADC_VoltageReferenceSelect
                0x00000000       0x30 ..\..\..\..\..\..\..\..\..\..\microchip\harmony\v1_07_01\bin\framework\peripheral\PIC32MX440F256H_peripherals.a(peripheral.o)
 .text.PLIB_ADC_ExistsVoltageReference
                0x00000000        0x8 ..\..\..\..\..\..\..\..\..\..\microchip\harmony\v1_07_01\bin\framework\peripheral\PIC32MX440F256H_peripherals.a(peripheral.o)
 .text.PLIB_ADC_MuxChannel0InputPositiveSelect
                0x00000000       0x68 ..\..\..\..\..\..\..\..\..\..\microchip\harmony\v1_07_01\bin\framework\peripheral\PIC32MX440F256H_peripherals.a(peripheral.o)
 .text.PLIB_ADC_ExistsMuxChannel0PositiveInput
                0x00000000        0x8 ..\..\..\..\..\..\..\..\..\..\microchip\harmony\v1_07_01\bin\framework\peripheral\PIC32MX440F256H_peripherals.a(peripheral.o)
 .text.PLIB_ADC_MuxChannel0InputNegativeSelect
                0x00000000       0x54 ..\..\..\..\..\..\..\..\..\..\microchip\harmony\v1_07_01\bin\framework\peripheral\PIC32MX440F256H_peripherals.a(peripheral.o)
 .text.PLIB_ADC_ExistsMuxChannel0NegativeInput
                0x00000000        0x8 ..\..\..\..\..\..\..\..\..\..\microchip\harmony\v1_07_01\bin\framework\peripheral\PIC32MX440F256H_peripherals.a(peripheral.o)
 .text.PLIB_ADC_MuxAInputScanEnable
                0x00000000       0x1c ..\..\..\..\..\..\..\..\..\..\microchip\harmony\v1_07_01\bin\framework\peripheral\PIC32MX440F256H_peripherals.a(peripheral.o)
 .text.PLIB_ADC_MuxAInputScanDisable
                0x00000000       0x1c ..\..\..\..\..\..\..\..\..\..\microchip\harmony\v1_07_01\bin\framework\peripheral\PIC32MX440F256H_peripherals.a(peripheral.o)
 .text.PLIB_ADC_ExistsMuxInputScanControl
                0x00000000        0x8 ..\..\..\..\..\..\..\..\..\..\microchip\harmony\v1_07_01\bin\framework\peripheral\PIC32MX440F256H_peripherals.a(peripheral.o)
 .text.PLIB_ADC_SamplingModeSelect
                0x00000000       0x28 ..\..\..\..\..\..\..\..\..\..\microchip\harmony\v1_07_01\bin\framework\peripheral\PIC32MX440F256H_peripherals.a(peripheral.o)
 .text.PLIB_ADC_ExistsSamplingModeControl
                0x00000000        0x8 ..\..\..\..\..\..\..\..\..\..\microchip\harmony\v1_07_01\bin\framework\peripheral\PIC32MX440F256H_peripherals.a(peripheral.o)
 .text.PLIB_ADC_SamplesPerInterruptSelect
                0x00000000       0x2c ..\..\..\..\..\..\..\..\..\..\microchip\harmony\v1_07_01\bin\framework\peripheral\PIC32MX440F256H_peripherals.a(peripheral.o)
 .text.PLIB_ADC_ExistsSamplesPerInterruptSelect
                0x00000000        0x8 ..\..\..\..\..\..\..\..\..\..\microchip\harmony\v1_07_01\bin\framework\peripheral\PIC32MX440F256H_peripherals.a(peripheral.o)
 .text.PLIB_ADC_SampleAutoStartEnable
                0x00000000       0x1c ..\..\..\..\..\..\..\..\..\..\microchip\harmony\v1_07_01\bin\framework\peripheral\PIC32MX440F256H_peripherals.a(peripheral.o)
 .text.PLIB_ADC_SampleAutoStartDisable
                0x00000000       0x1c ..\..\..\..\..\..\..\..\..\..\microchip\harmony\v1_07_01\bin\framework\peripheral\PIC32MX440F256H_peripherals.a(peripheral.o)
 .text.PLIB_ADC_ExistsSamplingAutoStart
                0x00000000        0x8 ..\..\..\..\..\..\..\..\..\..\microchip\harmony\v1_07_01\bin\framework\peripheral\PIC32MX440F256H_peripherals.a(peripheral.o)
 .text.PLIB_ADC_SamplingStart
                0x00000000       0x1c ..\..\..\..\..\..\..\..\..\..\microchip\harmony\v1_07_01\bin\framework\peripheral\PIC32MX440F256H_peripherals.a(peripheral.o)
 .text.PLIB_ADC_SamplingStop
                0x00000000       0x1c ..\..\..\..\..\..\..\..\..\..\microchip\harmony\v1_07_01\bin\framework\peripheral\PIC32MX440F256H_peripherals.a(peripheral.o)
 .text.PLIB_ADC_ExistsSamplingControl
                0x00000000        0x8 ..\..\..\..\..\..\..\..\..\..\microchip\harmony\v1_07_01\bin\framework\peripheral\PIC32MX440F256H_peripherals.a(peripheral.o)
 .text.PLIB_ADC_SampleAcquisitionTimeSet
                0x00000000       0x2c ..\..\..\..\..\..\..\..\..\..\microchip\harmony\v1_07_01\bin\framework\peripheral\PIC32MX440F256H_peripherals.a(peripheral.o)
 .text.PLIB_ADC_ExistsSamplingAcquisitionTime
                0x00000000        0x8 ..\..\..\..\..\..\..\..\..\..\microchip\harmony\v1_07_01\bin\framework\peripheral\PIC32MX440F256H_peripherals.a(peripheral.o)
 .text.PLIB_ADC_SamplingIsActive
                0x00000000       0x20 ..\..\..\..\..\..\..\..\..\..\microchip\harmony\v1_07_01\bin\framework\peripheral\PIC32MX440F256H_peripherals.a(peripheral.o)
 .text.PLIB_ADC_ExistsSamplingStatus
                0x00000000        0x8 ..\..\..\..\..\..\..\..\..\..\microchip\harmony\v1_07_01\bin\framework\peripheral\PIC32MX440F256H_peripherals.a(peripheral.o)
 .text.PLIB_ADC_ConversionStart
                0x00000000       0x1c ..\..\..\..\..\..\..\..\..\..\microchip\harmony\v1_07_01\bin\framework\peripheral\PIC32MX440F256H_peripherals.a(peripheral.o)
 .text.PLIB_ADC_ExistsConversionControl
                0x00000000        0x8 ..\..\..\..\..\..\..\..\..\..\microchip\harmony\v1_07_01\bin\framework\peripheral\PIC32MX440F256H_peripherals.a(peripheral.o)
 .text.PLIB_ADC_ConversionClockSet
                0x00000000       0x3c ..\..\..\..\..\..\..\..\..\..\microchip\harmony\v1_07_01\bin\framework\peripheral\PIC32MX440F256H_peripherals.a(peripheral.o)
 .text.PLIB_ADC_ConversionClockGet
                0x00000000       0x34 ..\..\..\..\..\..\..\..\..\..\microchip\harmony\v1_07_01\bin\framework\peripheral\PIC32MX440F256H_peripherals.a(peripheral.o)
 .text.PLIB_ADC_ExistsConversionClock
                0x00000000        0x8 ..\..\..\..\..\..\..\..\..\..\microchip\harmony\v1_07_01\bin\framework\peripheral\PIC32MX440F256H_peripherals.a(peripheral.o)
 .text.PLIB_ADC_ConversionClockSourceSelect
                0x00000000       0x30 ..\..\..\..\..\..\..\..\..\..\microchip\harmony\v1_07_01\bin\framework\peripheral\PIC32MX440F256H_peripherals.a(peripheral.o)
 .text.PLIB_ADC_ExistsConversionClockSource
                0x00000000        0x8 ..\..\..\..\..\..\..\..\..\..\microchip\harmony\v1_07_01\bin\framework\peripheral\PIC32MX440F256H_peripherals.a(peripheral.o)
 .text.PLIB_ADC_ConversionTriggerSourceSelect
                0x00000000       0x2c ..\..\..\..\..\..\..\..\..\..\microchip\harmony\v1_07_01\bin\framework\peripheral\PIC32MX440F256H_peripherals.a(peripheral.o)
 .text.PLIB_ADC_ExistsConversionTriggerSource
                0x00000000        0x8 ..\..\..\..\..\..\..\..\..\..\microchip\harmony\v1_07_01\bin\framework\peripheral\PIC32MX440F256H_peripherals.a(peripheral.o)
 .text.PLIB_ADC_ConversionStopSequenceEnable
                0x00000000       0x1c ..\..\..\..\..\..\..\..\..\..\microchip\harmony\v1_07_01\bin\framework\peripheral\PIC32MX440F256H_peripherals.a(peripheral.o)
 .text.PLIB_ADC_ConversionStopSequenceDisable
                0x00000000       0x1c ..\..\..\..\..\..\..\..\..\..\microchip\harmony\v1_07_01\bin\framework\peripheral\PIC32MX440F256H_peripherals.a(peripheral.o)
 .text.PLIB_ADC_ExistsConversionStopSequenceControl
                0x00000000        0x8 ..\..\..\..\..\..\..\..\..\..\microchip\harmony\v1_07_01\bin\framework\peripheral\PIC32MX440F256H_peripherals.a(peripheral.o)
 .text.PLIB_ADC_ConversionHasCompleted
                0x00000000       0x20 ..\..\..\..\..\..\..\..\..\..\microchip\harmony\v1_07_01\bin\framework\peripheral\PIC32MX440F256H_peripherals.a(peripheral.o)
 .text.PLIB_ADC_ExistsConversionStatus
                0x00000000        0x8 ..\..\..\..\..\..\..\..\..\..\microchip\harmony\v1_07_01\bin\framework\peripheral\PIC32MX440F256H_peripherals.a(peripheral.o)
 .text.PLIB_ADC_ResultFormatSelect
                0x00000000       0x2c ..\..\..\..\..\..\..\..\..\..\microchip\harmony\v1_07_01\bin\framework\peripheral\PIC32MX440F256H_peripherals.a(peripheral.o)
 .text.PLIB_ADC_ExistsResultFormat
                0x00000000        0x8 ..\..\..\..\..\..\..\..\..\..\microchip\harmony\v1_07_01\bin\framework\peripheral\PIC32MX440F256H_peripherals.a(peripheral.o)
 .text.PLIB_ADC_ResultBufferModeSelect
                0x00000000       0x2c ..\..\..\..\..\..\..\..\..\..\microchip\harmony\v1_07_01\bin\framework\peripheral\PIC32MX440F256H_peripherals.a(peripheral.o)
 .text.PLIB_ADC_ExistsResultBufferMode
                0x00000000        0x8 ..\..\..\..\..\..\..\..\..\..\microchip\harmony\v1_07_01\bin\framework\peripheral\PIC32MX440F256H_peripherals.a(peripheral.o)
 .text.PLIB_ADC_ResultBufferStatusGet
                0x00000000       0x20 ..\..\..\..\..\..\..\..\..\..\microchip\harmony\v1_07_01\bin\framework\peripheral\PIC32MX440F256H_peripherals.a(peripheral.o)
 .text.PLIB_ADC_ExistsResultBufferFillStatus
                0x00000000        0x8 ..\..\..\..\..\..\..\..\..\..\microchip\harmony\v1_07_01\bin\framework\peripheral\PIC32MX440F256H_peripherals.a(peripheral.o)
 .text.PLIB_ADC_ResultGetByIndex
                0x00000000       0x2c ..\..\..\..\..\..\..\..\..\..\microchip\harmony\v1_07_01\bin\framework\peripheral\PIC32MX440F256H_peripherals.a(peripheral.o)
 .text.PLIB_ADC_ExistsResultGetByIndex
                0x00000000        0x8 ..\..\..\..\..\..\..\..\..\..\microchip\harmony\v1_07_01\bin\framework\peripheral\PIC32MX440F256H_peripherals.a(peripheral.o)
 .text.PLIB_ADCP_Enable
                0x00000000        0x8 ..\..\..\..\..\..\..\..\..\..\microchip\harmony\v1_07_01\bin\framework\peripheral\PIC32MX440F256H_peripherals.a(peripheral.o)
 .text.PLIB_ADCP_Disable
                0x00000000        0x8 ..\..\..\..\..\..\..\..\..\..\microchip\harmony\v1_07_01\bin\framework\peripheral\PIC32MX440F256H_peripherals.a(peripheral.o)
 .text.PLIB_ADCP_ExistsEnableControl
                0x00000000        0x8 ..\..\..\..\..\..\..\..\..\..\microchip\harmony\v1_07_01\bin\framework\peripheral\PIC32MX440F256H_peripherals.a(peripheral.o)
 .text.PLIB_ADCP_CalibrationStart
                0x00000000        0x8 ..\..\..\..\..\..\..\..\..\..\microchip\harmony\v1_07_01\bin\framework\peripheral\PIC32MX440F256H_peripherals.a(peripheral.o)
 .text.PLIB_ADCP_ExistsCalibration
                0x00000000        0x8 ..\..\..\..\..\..\..\..\..\..\microchip\harmony\v1_07_01\bin\framework\peripheral\PIC32MX440F256H_peripherals.a(peripheral.o)
 .text.PLIB_ADCP_Configure
                0x00000000        0x8 ..\..\..\..\..\..\..\..\..\..\microchip\harmony\v1_07_01\bin\framework\peripheral\PIC32MX440F256H_peripherals.a(peripheral.o)
 .text.PLIB_ADCP_ExistsConfiguration
                0x00000000        0x8 ..\..\..\..\..\..\..\..\..\..\microchip\harmony\v1_07_01\bin\framework\peripheral\PIC32MX440F256H_peripherals.a(peripheral.o)
 .text.PLIB_ADCP_LowPowerStateEnter
                0x00000000        0x8 ..\..\..\..\..\..\..\..\..\..\microchip\harmony\v1_07_01\bin\framework\peripheral\PIC32MX440F256H_peripherals.a(peripheral.o)
 .text.PLIB_ADCP_LowPowerStateExit
                0x00000000        0x8 ..\..\..\..\..\..\..\..\..\..\microchip\harmony\v1_07_01\bin\framework\peripheral\PIC32MX440F256H_peripherals.a(peripheral.o)
 .text.PLIB_ADCP_LowPowerStateGet
                0x00000000        0x8 ..\..\..\..\..\..\..\..\..\..\microchip\harmony\v1_07_01\bin\framework\peripheral\PIC32MX440F256H_peripherals.a(peripheral.o)
 .text.PLIB_ADCP_ExistsLowPowerControl
                0x00000000        0x8 ..\..\..\..\..\..\..\..\..\..\microchip\harmony\v1_07_01\bin\framework\peripheral\PIC32MX440F256H_peripherals.a(peripheral.o)
 .text.PLIB_ADCP_ModuleIsReady
                0x00000000        0x8 ..\..\..\..\..\..\..\..\..\..\microchip\harmony\v1_07_01\bin\framework\peripheral\PIC32MX440F256H_peripherals.a(peripheral.o)
 .text.PLIB_ADCP_ExistsReadyStatus
                0x00000000        0x8 ..\..\..\..\..\..\..\..\..\..\microchip\harmony\v1_07_01\bin\framework\peripheral\PIC32MX440F256H_peripherals.a(peripheral.o)
 .text.PLIB_ADCP_AlternateInputSelect
                0x00000000        0x8 ..\..\..\..\..\..\..\..\..\..\microchip\harmony\v1_07_01\bin\framework\peripheral\PIC32MX440F256H_peripherals.a(peripheral.o)
 .text.PLIB_ADCP_DefaultInputSelect
                0x00000000        0x8 ..\..\..\..\..\..\..\..\..\..\microchip\harmony\v1_07_01\bin\framework\peripheral\PIC32MX440F256H_peripherals.a(peripheral.o)
 .text.PLIB_ADCP_ExistsInputSelect
                0x00000000        0x8 ..\..\..\..\..\..\..\..\..\..\microchip\harmony\v1_07_01\bin\framework\peripheral\PIC32MX440F256H_peripherals.a(peripheral.o)
 .text.PLIB_ADCP_SHModeSelect
                0x00000000        0x8 ..\..\..\..\..\..\..\..\..\..\microchip\harmony\v1_07_01\bin\framework\peripheral\PIC32MX440F256H_peripherals.a(peripheral.o)
 .text.PLIB_ADCP_ExistsModeSelect
                0x00000000        0x8 ..\..\..\..\..\..\..\..\..\..\microchip\harmony\v1_07_01\bin\framework\peripheral\PIC32MX440F256H_peripherals.a(peripheral.o)
 .text.PLIB_ADCP_ChannelScanConfigure
                0x00000000        0x8 ..\..\..\..\..\..\..\..\..\..\microchip\harmony\v1_07_01\bin\framework\peripheral\PIC32MX440F256H_peripherals.a(peripheral.o)
 .text.PLIB_ADCP_ExistsChannelScan
                0x00000000        0x8 ..\..\..\..\..\..\..\..\..\..\microchip\harmony\v1_07_01\bin\framework\peripheral\PIC32MX440F256H_peripherals.a(peripheral.o)
 .text.PLIB_ADCP_Class12TriggerConfigure
                0x00000000        0x8 ..\..\..\..\..\..\..\..\..\..\microchip\harmony\v1_07_01\bin\framework\peripheral\PIC32MX440F256H_peripherals.a(peripheral.o)
 .text.PLIB_ADCP_GlobalSoftwareTrigger
                0x00000000        0x8 ..\..\..\..\..\..\..\..\..\..\microchip\harmony\v1_07_01\bin\framework\peripheral\PIC32MX440F256H_peripherals.a(peripheral.o)
 .text.PLIB_ADCP_IndividualTrigger
                0x00000000        0x8 ..\..\..\..\..\..\..\..\..\..\microchip\harmony\v1_07_01\bin\framework\peripheral\PIC32MX440F256H_peripherals.a(peripheral.o)
 .text.PLIB_ADCP_ExistsTriggering
                0x00000000        0x8 ..\..\..\..\..\..\..\..\..\..\microchip\harmony\v1_07_01\bin\framework\peripheral\PIC32MX440F256H_peripherals.a(peripheral.o)
 .text.PLIB_ADCP_ResultReady
                0x00000000       0x10 ..\..\..\..\..\..\..\..\..\..\microchip\harmony\v1_07_01\bin\framework\peripheral\PIC32MX440F256H_peripherals.a(peripheral.o)
 .text.PLIB_ADCP_ResultGet
                0x00000000        0x8 ..\..\..\..\..\..\..\..\..\..\microchip\harmony\v1_07_01\bin\framework\peripheral\PIC32MX440F256H_peripherals.a(peripheral.o)
 .text.PLIB_ADCP_ResultReadyGrpIntConfigure
                0x00000000        0x8 ..\..\..\..\..\..\..\..\..\..\microchip\harmony\v1_07_01\bin\framework\peripheral\PIC32MX440F256H_peripherals.a(peripheral.o)
 .text.PLIB_ADCP_ExistsConversionResults
                0x00000000        0x8 ..\..\..\..\..\..\..\..\..\..\microchip\harmony\v1_07_01\bin\framework\peripheral\PIC32MX440F256H_peripherals.a(peripheral.o)
 .text.PLIB_ADCP_DigCmpConfig
                0x00000000        0x8 ..\..\..\..\..\..\..\..\..\..\microchip\harmony\v1_07_01\bin\framework\peripheral\PIC32MX440F256H_peripherals.a(peripheral.o)
 .text.PLIB_ADCP_DigCmpEnable
                0x00000000        0x8 ..\..\..\..\..\..\..\..\..\..\microchip\harmony\v1_07_01\bin\framework\peripheral\PIC32MX440F256H_peripherals.a(peripheral.o)
 .text.PLIB_ADCP_DigCmpDisable
                0x00000000        0x8 ..\..\..\..\..\..\..\..\..\..\microchip\harmony\v1_07_01\bin\framework\peripheral\PIC32MX440F256H_peripherals.a(peripheral.o)
 .text.PLIB_ADCP_DigCmpAIdGet
                0x00000000        0x8 ..\..\..\..\..\..\..\..\..\..\microchip\harmony\v1_07_01\bin\framework\peripheral\PIC32MX440F256H_peripherals.a(peripheral.o)
 .text.PLIB_ADCP_ExistsDigCmp
                0x00000000        0x8 ..\..\..\..\..\..\..\..\..\..\microchip\harmony\v1_07_01\bin\framework\peripheral\PIC32MX440F256H_peripherals.a(peripheral.o)
 .text.PLIB_ADCP_OsampDigFilterConfig
                0x00000000        0x8 ..\..\..\..\..\..\..\..\..\..\microchip\harmony\v1_07_01\bin\framework\peripheral\PIC32MX440F256H_peripherals.a(peripheral.o)
 .text.PLIB_ADCP_OsampDigFilterEnable
                0x00000000        0x8 ..\..\..\..\..\..\..\..\..\..\microchip\harmony\v1_07_01\bin\framework\peripheral\PIC32MX440F256H_peripherals.a(peripheral.o)
 .text.PLIB_ADCP_OsampDigFilterDisable
                0x00000000        0x8 ..\..\..\..\..\..\..\..\..\..\microchip\harmony\v1_07_01\bin\framework\peripheral\PIC32MX440F256H_peripherals.a(peripheral.o)
 .text.PLIB_ADCP_OsampDigFilterDataRdy
                0x00000000        0x8 ..\..\..\..\..\..\..\..\..\..\microchip\harmony\v1_07_01\bin\framework\peripheral\PIC32MX440F256H_peripherals.a(peripheral.o)
 .text.PLIB_ADCP_OsampDigFilterDataGet
                0x00000000        0x8 ..\..\..\..\..\..\..\..\..\..\microchip\harmony\v1_07_01\bin\framework\peripheral\PIC32MX440F256H_peripherals.a(peripheral.o)
 .text.PLIB_ADCP_ExistsOsampDigFilter
                0x00000000        0x8 ..\..\..\..\..\..\..\..\..\..\microchip\harmony\v1_07_01\bin\framework\peripheral\PIC32MX440F256H_peripherals.a(peripheral.o)
 .text.PLIB_ADCHS_Enable
                0x00000000        0x8 ..\..\..\..\..\..\..\..\..\..\microchip\harmony\v1_07_01\bin\framework\peripheral\PIC32MX440F256H_peripherals.a(peripheral.o)
 .text.PLIB_ADCHS_Disable
                0x00000000        0x8 ..\..\..\..\..\..\..\..\..\..\microchip\harmony\v1_07_01\bin\framework\peripheral\PIC32MX440F256H_peripherals.a(peripheral.o)
 .text.PLIB_ADCHS_ExistsEnableControl
                0x00000000        0x8 ..\..\..\..\..\..\..\..\..\..\microchip\harmony\v1_07_01\bin\framework\peripheral\PIC32MX440F256H_peripherals.a(peripheral.o)
 .text.PLIB_ADCHS_TurboModeEnable
                0x00000000        0x8 ..\..\..\..\..\..\..\..\..\..\microchip\harmony\v1_07_01\bin\framework\peripheral\PIC32MX440F256H_peripherals.a(peripheral.o)
 .text.PLIB_ADCHS_TurboModeDisable
                0x00000000        0x8 ..\..\..\..\..\..\..\..\..\..\microchip\harmony\v1_07_01\bin\framework\peripheral\PIC32MX440F256H_peripherals.a(peripheral.o)
 .text.PLIB_ADCHS_TurboModeErrorHasOccurred
                0x00000000        0x8 ..\..\..\..\..\..\..\..\..\..\microchip\harmony\v1_07_01\bin\framework\peripheral\PIC32MX440F256H_peripherals.a(peripheral.o)
 .text.PLIB_ADCHS_TurboModeChannelSelect
                0x00000000        0x8 ..\..\..\..\..\..\..\..\..\..\microchip\harmony\v1_07_01\bin\framework\peripheral\PIC32MX440F256H_peripherals.a(peripheral.o)
 .text.PLIB_ADCHS_ExistsTurboMode
                0x00000000        0x8 ..\..\..\..\..\..\..\..\..\..\microchip\harmony\v1_07_01\bin\framework\peripheral\PIC32MX440F256H_peripherals.a(peripheral.o)
 .text.PLIB_ADCHS_DigitalComparatorAnalogInputSelect
                0x00000000        0x8 ..\..\..\..\..\..\..\..\..\..\microchip\harmony\v1_07_01\bin\framework\peripheral\PIC32MX440F256H_peripherals.a(peripheral.o)
 .text.PLIB_ADCHS_DigitalComparatorAnalogInputGet
                0x00000000        0x8 ..\..\..\..\..\..\..\..\..\..\microchip\harmony\v1_07_01\bin\framework\peripheral\PIC32MX440F256H_peripherals.a(peripheral.o)
 .text.PLIB_ADCHS_DigitalComparatorEnable
                0x00000000        0x8 ..\..\..\..\..\..\..\..\..\..\microchip\harmony\v1_07_01\bin\framework\peripheral\PIC32MX440F256H_peripherals.a(peripheral.o)
 .text.PLIB_ADCHS_DigitalComparatorDisable
                0x00000000        0x8 ..\..\..\..\..\..\..\..\..\..\microchip\harmony\v1_07_01\bin\framework\peripheral\PIC32MX440F256H_peripherals.a(peripheral.o)
 .text.PLIB_ADCHS_DigitalComparatorInterruptEnable
                0x00000000        0x8 ..\..\..\..\..\..\..\..\..\..\microchip\harmony\v1_07_01\bin\framework\peripheral\PIC32MX440F256H_peripherals.a(peripheral.o)
 .text.PLIB_ADCHS_DigitalComparatorInterruptDisable
                0x00000000        0x8 ..\..\..\..\..\..\..\..\..\..\microchip\harmony\v1_07_01\bin\framework\peripheral\PIC32MX440F256H_peripherals.a(peripheral.o)
 .text.PLIB_ADCHS_DigitalComparatorSetup
                0x00000000        0x8 ..\..\..\..\..\..\..\..\..\..\microchip\harmony\v1_07_01\bin\framework\peripheral\PIC32MX440F256H_peripherals.a(peripheral.o)
 .text.PLIB_ADCHS_DigitalComparatorEventHasOccurred
                0x00000000        0x8 ..\..\..\..\..\..\..\..\..\..\microchip\harmony\v1_07_01\bin\framework\peripheral\PIC32MX440F256H_peripherals.a(peripheral.o)
 .text.PLIB_ADCHS_DigitalComparatorLimitSet
                0x00000000        0x8 ..\..\..\..\..\..\..\..\..\..\microchip\harmony\v1_07_01\bin\framework\peripheral\PIC32MX440F256H_peripherals.a(peripheral.o)
 .text.PLIB_ADCHS_ExistsDigitalComparator
                0x00000000        0x8 ..\..\..\..\..\..\..\..\..\..\microchip\harmony\v1_07_01\bin\framework\peripheral\PIC32MX440F256H_peripherals.a(peripheral.o)
 .text.PLIB_ADCHS_DigitalFilterEnable
                0x00000000        0x8 ..\..\..\..\..\..\..\..\..\..\microchip\harmony\v1_07_01\bin\framework\peripheral\PIC32MX440F256H_peripherals.a(peripheral.o)
 .text.PLIB_ADCHS_DigitalFilterDisable
                0x00000000        0x8 ..\..\..\..\..\..\..\..\..\..\microchip\harmony\v1_07_01\bin\framework\peripheral\PIC32MX440F256H_peripherals.a(peripheral.o)
 .text.PLIB_ADCHS_DigitalFilterOversamplingModeSetup
                0x00000000        0x8 ..\..\..\..\..\..\..\..\..\..\microchip\harmony\v1_07_01\bin\framework\peripheral\PIC32MX440F256H_peripherals.a(peripheral.o)
 .text.PLIB_ADCHS_DigitalFilterAveragingModeSetup
                0x00000000        0x8 ..\..\..\..\..\..\..\..\..\..\microchip\harmony\v1_07_01\bin\framework\peripheral\PIC32MX440F256H_peripherals.a(peripheral.o)
 .text.PLIB_ADCHS_DigitalFilterOversamplingModeRatioSelect
                0x00000000        0x8 ..\..\..\..\..\..\..\..\..\..\microchip\harmony\v1_07_01\bin\framework\peripheral\PIC32MX440F256H_peripherals.a(peripheral.o)
 .text.PLIB_ADCHS_DigitalFilterAveragingModeSampleCountSelect
                0x00000000        0x8 ..\..\..\..\..\..\..\..\..\..\microchip\harmony\v1_07_01\bin\framework\peripheral\PIC32MX440F256H_peripherals.a(peripheral.o)
 .text.PLIB_ADCHS_DigitalFilterDataIsReady
                0x00000000        0x8 ..\..\..\..\..\..\..\..\..\..\microchip\harmony\v1_07_01\bin\framework\peripheral\PIC32MX440F256H_peripherals.a(peripheral.o)
 .text.PLIB_ADCHS_DigitalFilterDataGet
                0x00000000        0x8 ..\..\..\..\..\..\..\..\..\..\microchip\harmony\v1_07_01\bin\framework\peripheral\PIC32MX440F256H_peripherals.a(peripheral.o)
 .text.PLIB_ADCHS_DigitalFilterDataReadyInterruptEnable
                0x00000000        0x8 ..\..\..\..\..\..\..\..\..\..\microchip\harmony\v1_07_01\bin\framework\peripheral\PIC32MX440F256H_peripherals.a(peripheral.o)
 .text.PLIB_ADCHS_DigitalFilterDataReadyInterruptDisable
                0x00000000        0x8 ..\..\..\..\..\..\..\..\..\..\microchip\harmony\v1_07_01\bin\framework\peripheral\PIC32MX440F256H_peripherals.a(peripheral.o)
 .text.PLIB_ADCHS_ExistsDigitalFilter
                0x00000000        0x8 ..\..\..\..\..\..\..\..\..\..\microchip\harmony\v1_07_01\bin\framework\peripheral\PIC32MX440F256H_peripherals.a(peripheral.o)
 .text.PLIB_ADCHS_FIFORead
                0x00000000        0x8 ..\..\..\..\..\..\..\..\..\..\microchip\harmony\v1_07_01\bin\framework\peripheral\PIC32MX440F256H_peripherals.a(peripheral.o)
 .text.PLIB_ADCHS_FIFODataIsAvailable
                0x00000000        0x8 ..\..\..\..\..\..\..\..\..\..\microchip\harmony\v1_07_01\bin\framework\peripheral\PIC32MX440F256H_peripherals.a(peripheral.o)
 .text.PLIB_ADCHS_FIFODataReadyInterruptEnable
                0x00000000        0x8 ..\..\..\..\..\..\..\..\..\..\microchip\harmony\v1_07_01\bin\framework\peripheral\PIC32MX440F256H_peripherals.a(peripheral.o)
 .text.PLIB_ADCHS_FIFODataReadyInterruptDisable
                0x00000000        0x8 ..\..\..\..\..\..\..\..\..\..\microchip\harmony\v1_07_01\bin\framework\peripheral\PIC32MX440F256H_peripherals.a(peripheral.o)
 .text.PLIB_ADCHS_FIFOEnable
                0x00000000        0x8 ..\..\..\..\..\..\..\..\..\..\microchip\harmony\v1_07_01\bin\framework\peripheral\PIC32MX440F256H_peripherals.a(peripheral.o)
 .text.PLIB_ADCHS_FIFODisable
                0x00000000        0x8 ..\..\..\..\..\..\..\..\..\..\microchip\harmony\v1_07_01\bin\framework\peripheral\PIC32MX440F256H_peripherals.a(peripheral.o)
 .text.PLIB_ADCHS_FIFOSourceSelect
                0x00000000        0x8 ..\..\..\..\..\..\..\..\..\..\microchip\harmony\v1_07_01\bin\framework\peripheral\PIC32MX440F256H_peripherals.a(peripheral.o)
 .text.PLIB_ADCHS_FIFODataCountGet
                0x00000000        0x8 ..\..\..\..\..\..\..\..\..\..\microchip\harmony\v1_07_01\bin\framework\peripheral\PIC32MX440F256H_peripherals.a(peripheral.o)
 .text.PLIB_ADCHS_FIFOSourceGet
                0x00000000        0x8 ..\..\..\..\..\..\..\..\..\..\microchip\harmony\v1_07_01\bin\framework\peripheral\PIC32MX440F256H_peripherals.a(peripheral.o)
 .text.PLIB_ADCHS_FIFOErrorHasOccurred
                0x00000000        0x8 ..\..\..\..\..\..\..\..\..\..\microchip\harmony\v1_07_01\bin\framework\peripheral\PIC32MX440F256H_peripherals.a(peripheral.o)
 .text.PLIB_ADCHS_FIFODataIsNegative
                0x00000000        0x8 ..\..\..\..\..\..\..\..\..\..\microchip\harmony\v1_07_01\bin\framework\peripheral\PIC32MX440F256H_peripherals.a(peripheral.o)
 .text.PLIB_ADCHS_ExistsFIFO
                0x00000000        0x8 ..\..\..\..\..\..\..\..\..\..\microchip\harmony\v1_07_01\bin\framework\peripheral\PIC32MX440F256H_peripherals.a(peripheral.o)
 .text.PLIB_ADCHS_DMAEnable
                0x00000000        0x8 ..\..\..\..\..\..\..\..\..\..\microchip\harmony\v1_07_01\bin\framework\peripheral\PIC32MX440F256H_peripherals.a(peripheral.o)
 .text.PLIB_ADCHS_DMADisable
                0x00000000        0x8 ..\..\..\..\..\..\..\..\..\..\microchip\harmony\v1_07_01\bin\framework\peripheral\PIC32MX440F256H_peripherals.a(peripheral.o)
 .text.PLIB_ADCHS_DMASetup
                0x00000000        0x8 ..\..\..\..\..\..\..\..\..\..\microchip\harmony\v1_07_01\bin\framework\peripheral\PIC32MX440F256H_peripherals.a(peripheral.o)
 .text.PLIB_ADCHS_DMASourceSelect
                0x00000000        0x8 ..\..\..\..\..\..\..\..\..\..\microchip\harmony\v1_07_01\bin\framework\peripheral\PIC32MX440F256H_peripherals.a(peripheral.o)
 .text.PLIB_ADCHS_DMASourceRemove
                0x00000000        0x8 ..\..\..\..\..\..\..\..\..\..\microchip\harmony\v1_07_01\bin\framework\peripheral\PIC32MX440F256H_peripherals.a(peripheral.o)
 .text.PLIB_ADCHS_DMABuffer_A_InterruptEnable
                0x00000000        0x8 ..\..\..\..\..\..\..\..\..\..\microchip\harmony\v1_07_01\bin\framework\peripheral\PIC32MX440F256H_peripherals.a(peripheral.o)
 .text.PLIB_ADCHS_DMABuffer_A_InterruptDisable
                0x00000000        0x8 ..\..\..\..\..\..\..\..\..\..\microchip\harmony\v1_07_01\bin\framework\peripheral\PIC32MX440F256H_peripherals.a(peripheral.o)
 .text.PLIB_ADCHS_DMABuffer_B_InterruptEnable
                0x00000000        0x8 ..\..\..\..\..\..\..\..\..\..\microchip\harmony\v1_07_01\bin\framework\peripheral\PIC32MX440F256H_peripherals.a(peripheral.o)
 .text.PLIB_ADCHS_DMABuffer_B_InterruptDisable
                0x00000000        0x8 ..\..\..\..\..\..\..\..\..\..\microchip\harmony\v1_07_01\bin\framework\peripheral\PIC32MX440F256H_peripherals.a(peripheral.o)
 .text.PLIB_ADCHS_DMABuffer_A_IsFull
                0x00000000        0x8 ..\..\..\..\..\..\..\..\..\..\microchip\harmony\v1_07_01\bin\framework\peripheral\PIC32MX440F256H_peripherals.a(peripheral.o)
 .text.PLIB_ADCHS_DMABuffer_B_IsFull
                0x00000000        0x8 ..\..\..\..\..\..\..\..\..\..\microchip\harmony\v1_07_01\bin\framework\peripheral\PIC32MX440F256H_peripherals.a(peripheral.o)
 .text.PLIB_ADCHS_DMAOverflowErrorHasOccurred
                0x00000000        0x8 ..\..\..\..\..\..\..\..\..\..\microchip\harmony\v1_07_01\bin\framework\peripheral\PIC32MX440F256H_peripherals.a(peripheral.o)
 .text.PLIB_ADCHS_ExistsDMA
                0x00000000        0x8 ..\..\..\..\..\..\..\..\..\..\microchip\harmony\v1_07_01\bin\framework\peripheral\PIC32MX440F256H_peripherals.a(peripheral.o)
 .text.PLIB_ADCHS_CVDEnable
                0x00000000        0x8 ..\..\..\..\..\..\..\..\..\..\microchip\harmony\v1_07_01\bin\framework\peripheral\PIC32MX440F256H_peripherals.a(peripheral.o)
 .text.PLIB_ADCHS_CVDDisable
                0x00000000        0x8 ..\..\..\..\..\..\..\..\..\..\microchip\harmony\v1_07_01\bin\framework\peripheral\PIC32MX440F256H_peripherals.a(peripheral.o)
 .text.PLIB_ADCHS_CVDSetup
                0x00000000        0x8 ..\..\..\..\..\..\..\..\..\..\microchip\harmony\v1_07_01\bin\framework\peripheral\PIC32MX440F256H_peripherals.a(peripheral.o)
 .text.PLIB_ADCHS_CVDResultGet
                0x00000000        0x8 ..\..\..\..\..\..\..\..\..\..\microchip\harmony\v1_07_01\bin\framework\peripheral\PIC32MX440F256H_peripherals.a(peripheral.o)
 .text.PLIB_ADCHS_ExistsCVD
                0x00000000        0x8 ..\..\..\..\..\..\..\..\..\..\microchip\harmony\v1_07_01\bin\framework\peripheral\PIC32MX440F256H_peripherals.a(peripheral.o)
 .text.PLIB_ADCHS_VREFIsReady
                0x00000000        0x8 ..\..\..\..\..\..\..\..\..\..\microchip\harmony\v1_07_01\bin\framework\peripheral\PIC32MX440F256H_peripherals.a(peripheral.o)
 .text.PLIB_ADCHS_VREFFaultHasOccurred
                0x00000000        0x8 ..\..\..\..\..\..\..\..\..\..\microchip\harmony\v1_07_01\bin\framework\peripheral\PIC32MX440F256H_peripherals.a(peripheral.o)
 .text.PLIB_ADCHS_VREFReadyInterruptEnable
                0x00000000        0x8 ..\..\..\..\..\..\..\..\..\..\microchip\harmony\v1_07_01\bin\framework\peripheral\PIC32MX440F256H_peripherals.a(peripheral.o)
 .text.PLIB_ADCHS_VREFReadyInterruptDisable
                0x00000000        0x8 ..\..\..\..\..\..\..\..\..\..\microchip\harmony\v1_07_01\bin\framework\peripheral\PIC32MX440F256H_peripherals.a(peripheral.o)
 .text.PLIB_ADCHS_VREFFaultInterruptEnable
                0x00000000        0x8 ..\..\..\..\..\..\..\..\..\..\microchip\harmony\v1_07_01\bin\framework\peripheral\PIC32MX440F256H_peripherals.a(peripheral.o)
 .text.PLIB_ADCHS_VREFFaultInterruptDisable
                0x00000000        0x8 ..\..\..\..\..\..\..\..\..\..\microchip\harmony\v1_07_01\bin\framework\peripheral\PIC32MX440F256H_peripherals.a(peripheral.o)
 .text.PLIB_ADCHS_ExistsVREFControl
                0x00000000        0x8 ..\..\..\..\..\..\..\..\..\..\microchip\harmony\v1_07_01\bin\framework\peripheral\PIC32MX440F256H_peripherals.a(peripheral.o)
 .text.PLIB_ADCHS_AnalogInputScanIsComplete
                0x00000000        0x8 ..\..\..\..\..\..\..\..\..\..\microchip\harmony\v1_07_01\bin\framework\peripheral\PIC32MX440F256H_peripherals.a(peripheral.o)
 .text.PLIB_ADCHS_AnalogInputScanSelect
                0x00000000        0x8 ..\..\..\..\..\..\..\..\..\..\microchip\harmony\v1_07_01\bin\framework\peripheral\PIC32MX440F256H_peripherals.a(peripheral.o)
 .text.PLIB_ADCHS_AnalogInputScanRemove
                0x00000000        0x8 ..\..\..\..\..\..\..\..\..\..\microchip\harmony\v1_07_01\bin\framework\peripheral\PIC32MX440F256H_peripherals.a(peripheral.o)
 .text.PLIB_ADCHS_AnalogInputScanIsSelected
                0x00000000        0x8 ..\..\..\..\..\..\..\..\..\..\microchip\harmony\v1_07_01\bin\framework\peripheral\PIC32MX440F256H_peripherals.a(peripheral.o)
 .text.PLIB_ADCHS_AnalogInputScanSetup
                0x00000000        0x8 ..\..\..\..\..\..\..\..\..\..\microchip\harmony\v1_07_01\bin\framework\peripheral\PIC32MX440F256H_peripherals.a(peripheral.o)
 .text.PLIB_ADCHS_ScanCompleteInterruptEnable
                0x00000000        0x8 ..\..\..\..\..\..\..\..\..\..\microchip\harmony\v1_07_01\bin\framework\peripheral\PIC32MX440F256H_peripherals.a(peripheral.o)
 .text.PLIB_ADCHS_ScanCompleteInterruptDisable
                0x00000000        0x8 ..\..\..\..\..\..\..\..\..\..\microchip\harmony\v1_07_01\bin\framework\peripheral\PIC32MX440F256H_peripherals.a(peripheral.o)
 .text.PLIB_ADCHS_ExistsAnalogInputScan
                0x00000000        0x8 ..\..\..\..\..\..\..\..\..\..\microchip\harmony\v1_07_01\bin\framework\peripheral\PIC32MX440F256H_peripherals.a(peripheral.o)
 .text.PLIB_ADCHS_ChannelAnalogFeatureEnable
                0x00000000        0x8 ..\..\..\..\..\..\..\..\..\..\microchip\harmony\v1_07_01\bin\framework\peripheral\PIC32MX440F256H_peripherals.a(peripheral.o)
 .text.PLIB_ADCHS_ChannelAnalogFeatureDisable
                0x00000000        0x8 ..\..\..\..\..\..\..\..\..\..\microchip\harmony\v1_07_01\bin\framework\peripheral\PIC32MX440F256H_peripherals.a(peripheral.o)
 .text.PLIB_ADCHS_ChannelIsReady
                0x00000000        0x8 ..\..\..\..\..\..\..\..\..\..\microchip\harmony\v1_07_01\bin\framework\peripheral\PIC32MX440F256H_peripherals.a(peripheral.o)
 .text.PLIB_ADCHS_ChannelIsReadyInterruptEnable
                0x00000000        0x8 ..\..\..\..\..\..\..\..\..\..\microchip\harmony\v1_07_01\bin\framework\peripheral\PIC32MX440F256H_peripherals.a(peripheral.o)
 .text.PLIB_ADCHS_ChannelIsReadyInterruptDisable
                0x00000000        0x8 ..\..\..\..\..\..\..\..\..\..\microchip\harmony\v1_07_01\bin\framework\peripheral\PIC32MX440F256H_peripherals.a(peripheral.o)
 .text.PLIB_ADCHS_ExistsChannelAnalogControl
                0x00000000        0x8 ..\..\..\..\..\..\..\..\..\..\microchip\harmony\v1_07_01\bin\framework\peripheral\PIC32MX440F256H_peripherals.a(peripheral.o)
 .text.PLIB_ADCHS_ChannelDigitalFeatureEnable
                0x00000000        0x8 ..\..\..\..\..\..\..\..\..\..\microchip\harmony\v1_07_01\bin\framework\peripheral\PIC32MX440F256H_peripherals.a(peripheral.o)
 .text.PLIB_ADCHS_ChannelDigitalFeatureDisable
                0x00000000        0x8 ..\..\..\..\..\..\..\..\..\..\microchip\harmony\v1_07_01\bin\framework\peripheral\PIC32MX440F256H_peripherals.a(peripheral.o)
 .text.PLIB_ADCHS_ExistsChannelDigitalControl
                0x00000000        0x8 ..\..\..\..\..\..\..\..\..\..\microchip\harmony\v1_07_01\bin\framework\peripheral\PIC32MX440F256H_peripherals.a(peripheral.o)
 .text.PLIB_ADCHS_AnalogInputModeSelect
                0x00000000        0x8 ..\..\..\..\..\..\..\..\..\..\microchip\harmony\v1_07_01\bin\framework\peripheral\PIC32MX440F256H_peripherals.a(peripheral.o)
 .text.PLIB_ADCHS_AnalogInputModeGet
                0x00000000        0x8 ..\..\..\..\..\..\..\..\..\..\microchip\harmony\v1_07_01\bin\framework\peripheral\PIC32MX440F256H_peripherals.a(peripheral.o)
 .text.PLIB_ADCHS_ExistsAnalogInputModeControl
                0x00000000        0x8 ..\..\..\..\..\..\..\..\..\..\microchip\harmony\v1_07_01\bin\framework\peripheral\PIC32MX440F256H_peripherals.a(peripheral.o)
 .text.PLIB_ADCHS_AnalogInputLevelTriggerSet
                0x00000000        0x8 ..\..\..\..\..\..\..\..\..\..\microchip\harmony\v1_07_01\bin\framework\peripheral\PIC32MX440F256H_peripherals.a(peripheral.o)
 .text.PLIB_ADCHS_AnalogInputEdgeTriggerSet
                0x00000000        0x8 ..\..\..\..\..\..\..\..\..\..\microchip\harmony\v1_07_01\bin\framework\peripheral\PIC32MX440F256H_peripherals.a(peripheral.o)
 .text.PLIB_ADCHS_AnalogInputTriggerSourceSelect
                0x00000000        0x8 ..\..\..\..\..\..\..\..\..\..\microchip\harmony\v1_07_01\bin\framework\peripheral\PIC32MX440F256H_peripherals.a(peripheral.o)
 .text.PLIB_ADCHS_GlobalSoftwareTriggerEnable
                0x00000000        0x8 ..\..\..\..\..\..\..\..\..\..\microchip\harmony\v1_07_01\bin\framework\peripheral\PIC32MX440F256H_peripherals.a(peripheral.o)
 .text.PLIB_ADCHS_GlobalLevelSoftwareTriggerEnable
                0x00000000        0x8 ..\..\..\..\..\..\..\..\..\..\microchip\harmony\v1_07_01\bin\framework\peripheral\PIC32MX440F256H_peripherals.a(peripheral.o)
 .text.PLIB_ADCHS_GlobalLevelSoftwareTriggerDisable
                0x00000000        0x8 ..\..\..\..\..\..\..\..\..\..\microchip\harmony\v1_07_01\bin\framework\peripheral\PIC32MX440F256H_peripherals.a(peripheral.o)
 .text.PLIB_ADCHS_TriggerSuspendEnable
                0x00000000        0x8 ..\..\..\..\..\..\..\..\..\..\microchip\harmony\v1_07_01\bin\framework\peripheral\PIC32MX440F256H_peripherals.a(peripheral.o)
 .text.PLIB_ADCHS_TriggerSuspendDisable
                0x00000000        0x8 ..\..\..\..\..\..\..\..\..\..\microchip\harmony\v1_07_01\bin\framework\peripheral\PIC32MX440F256H_peripherals.a(peripheral.o)
 .text.PLIB_ADCHS_ExistsTriggerControl
                0x00000000        0x8 ..\..\..\..\..\..\..\..\..\..\microchip\harmony\v1_07_01\bin\framework\peripheral\PIC32MX440F256H_peripherals.a(peripheral.o)
 .text.PLIB_ADCHS_ChannelTriggerSampleSelect
                0x00000000        0x8 ..\..\..\..\..\..\..\..\..\..\microchip\harmony\v1_07_01\bin\framework\peripheral\PIC32MX440F256H_peripherals.a(peripheral.o)
 .text.PLIB_ADCHS_ExistsTriggerSampleControl
                0x00000000        0x8 ..\..\..\..\..\..\..\..\..\..\microchip\harmony\v1_07_01\bin\framework\peripheral\PIC32MX440F256H_peripherals.a(peripheral.o)
 .text.PLIB_ADCHS_EarlyInterruptEnable
                0x00000000        0x8 ..\..\..\..\..\..\..\..\..\..\microchip\harmony\v1_07_01\bin\framework\peripheral\PIC32MX440F256H_peripherals.a(peripheral.o)
 .text.PLIB_ADCHS_EarlyInterruptDisable
                0x00000000        0x8 ..\..\..\..\..\..\..\..\..\..\microchip\harmony\v1_07_01\bin\framework\peripheral\PIC32MX440F256H_peripherals.a(peripheral.o)
 .text.PLIB_ADCHS_AnalogInputEarlyInterruptEnable
                0x00000000        0x8 ..\..\..\..\..\..\..\..\..\..\microchip\harmony\v1_07_01\bin\framework\peripheral\PIC32MX440F256H_peripherals.a(peripheral.o)
 .text.PLIB_ADCHS_AnalogInputEarlyInterruptDisable
                0x00000000        0x8 ..\..\..\..\..\..\..\..\..\..\microchip\harmony\v1_07_01\bin\framework\peripheral\PIC32MX440F256H_peripherals.a(peripheral.o)
 .text.PLIB_ADCHS_AnalogInputEarlyInterruptIsReady
                0x00000000        0x8 ..\..\..\..\..\..\..\..\..\..\microchip\harmony\v1_07_01\bin\framework\peripheral\PIC32MX440F256H_peripherals.a(peripheral.o)
 .text.PLIB_ADCHS_ExistsEarlyInterruptControl
                0x00000000        0x8 ..\..\..\..\..\..\..\..\..\..\microchip\harmony\v1_07_01\bin\framework\peripheral\PIC32MX440F256H_peripherals.a(peripheral.o)
 .text.PLIB_ADCHS_SoftwareSamplingStart
                0x00000000        0x8 ..\..\..\..\..\..\..\..\..\..\microchip\harmony\v1_07_01\bin\framework\peripheral\PIC32MX440F256H_peripherals.a(peripheral.o)
 .text.PLIB_ADCHS_SoftwareSamplingStop
                0x00000000        0x8 ..\..\..\..\..\..\..\..\..\..\microchip\harmony\v1_07_01\bin\framework\peripheral\PIC32MX440F256H_peripherals.a(peripheral.o)
 .text.PLIB_ADCHS_SoftwareConversionStart
                0x00000000        0x8 ..\..\..\..\..\..\..\..\..\..\microchip\harmony\v1_07_01\bin\framework\peripheral\PIC32MX440F256H_peripherals.a(peripheral.o)
 .text.PLIB_ADCHS_SoftwareConversionInputSelect
                0x00000000        0x8 ..\..\..\..\..\..\..\..\..\..\microchip\harmony\v1_07_01\bin\framework\peripheral\PIC32MX440F256H_peripherals.a(peripheral.o)
 .text.PLIB_ADCHS_ExistsManualControl
                0x00000000        0x8 ..\..\..\..\..\..\..\..\..\..\microchip\harmony\v1_07_01\bin\framework\peripheral\PIC32MX440F256H_peripherals.a(peripheral.o)
 .text.PLIB_ADCHS_ControlRegistersCanBeUpdatedInterruptEnable
                0x00000000        0x8 ..\..\..\..\..\..\..\..\..\..\microchip\harmony\v1_07_01\bin\framework\peripheral\PIC32MX440F256H_peripherals.a(peripheral.o)
 .text.PLIB_ADCHS_ControlRegistersCanBeUpdatedInterruptDisable
                0x00000000        0x8 ..\..\..\..\..\..\..\..\..\..\microchip\harmony\v1_07_01\bin\framework\peripheral\PIC32MX440F256H_peripherals.a(peripheral.o)
 .text.PLIB_ADCHS_ControlRegistersCanBeUpdated
                0x00000000        0x8 ..\..\..\..\..\..\..\..\..\..\microchip\harmony\v1_07_01\bin\framework\peripheral\PIC32MX440F256H_peripherals.a(peripheral.o)
 .text.PLIB_ADCHS_ExistsUpdateReadyControl
                0x00000000        0x8 ..\..\..\..\..\..\..\..\..\..\microchip\harmony\v1_07_01\bin\framework\peripheral\PIC32MX440F256H_peripherals.a(peripheral.o)
 .text.PLIB_ADCHS_ChannelInputSelect
                0x00000000        0x8 ..\..\..\..\..\..\..\..\..\..\microchip\harmony\v1_07_01\bin\framework\peripheral\PIC32MX440F256H_peripherals.a(peripheral.o)
 .text.PLIB_ADCHS_ExistsChannelInputSelectControl
                0x00000000        0x8 ..\..\..\..\..\..\..\..\..\..\microchip\harmony\v1_07_01\bin\framework\peripheral\PIC32MX440F256H_peripherals.a(peripheral.o)
 .text.PLIB_ADCHS_ExternalConversionRequestEnable
                0x00000000        0x8 ..\..\..\..\..\..\..\..\..\..\microchip\harmony\v1_07_01\bin\framework\peripheral\PIC32MX440F256H_peripherals.a(peripheral.o)
 .text.PLIB_ADCHS_ExternalConversionRequestDisable
                0x00000000        0x8 ..\..\..\..\..\..\..\..\..\..\microchip\harmony\v1_07_01\bin\framework\peripheral\PIC32MX440F256H_peripherals.a(peripheral.o)
 .text.PLIB_ADCHS_ExistsExternalConversionRequestControl
                0x00000000        0x8 ..\..\..\..\..\..\..\..\..\..\microchip\harmony\v1_07_01\bin\framework\peripheral\PIC32MX440F256H_peripherals.a(peripheral.o)
 .text.PLIB_ADCHS_Setup
                0x00000000        0x8 ..\..\..\..\..\..\..\..\..\..\microchip\harmony\v1_07_01\bin\framework\peripheral\PIC32MX440F256H_peripherals.a(peripheral.o)
 .text.PLIB_ADCHS_ChannelSetup
                0x00000000        0x8 ..\..\..\..\..\..\..\..\..\..\microchip\harmony\v1_07_01\bin\framework\peripheral\PIC32MX440F256H_peripherals.a(peripheral.o)
 .text.PLIB_ADCHS_ExistsConfiguration
                0x00000000        0x8 ..\..\..\..\..\..\..\..\..\..\microchip\harmony\v1_07_01\bin\framework\peripheral\PIC32MX440F256H_peripherals.a(peripheral.o)
 .text.PLIB_ADCHS_AnalogInputIsAvailable
                0x00000000        0x8 ..\..\..\..\..\..\..\..\..\..\microchip\harmony\v1_07_01\bin\framework\peripheral\PIC32MX440F256H_peripherals.a(peripheral.o)
 .text.PLIB_ADCHS_ExistsAnalogInputCheck
                0x00000000        0x8 ..\..\..\..\..\..\..\..\..\..\microchip\harmony\v1_07_01\bin\framework\peripheral\PIC32MX440F256H_peripherals.a(peripheral.o)
 .text.PLIB_ADCHS_ChannelConfigurationGet
                0x00000000        0x8 ..\..\..\..\..\..\..\..\..\..\microchip\harmony\v1_07_01\bin\framework\peripheral\PIC32MX440F256H_peripherals.a(peripheral.o)
 .text.PLIB_ADCHS_ChannelConfigurationSet
                0x00000000        0x8 ..\..\..\..\..\..\..\..\..\..\microchip\harmony\v1_07_01\bin\framework\peripheral\PIC32MX440F256H_peripherals.a(peripheral.o)
 .text.PLIB_ADCHS_ExistsChannelConfiguration
                0x00000000        0x8 ..\..\..\..\..\..\..\..\..\..\microchip\harmony\v1_07_01\bin\framework\peripheral\PIC32MX440F256H_peripherals.a(peripheral.o)
 .text.PLIB_ADCHS_AnalogInputDataReadyInterruptEnable
                0x00000000        0x8 ..\..\..\..\..\..\..\..\..\..\microchip\harmony\v1_07_01\bin\framework\peripheral\PIC32MX440F256H_peripherals.a(peripheral.o)
 .text.PLIB_ADCHS_AnalogInputDataReadyInterruptDisable
                0x00000000        0x8 ..\..\..\..\..\..\..\..\..\..\microchip\harmony\v1_07_01\bin\framework\peripheral\PIC32MX440F256H_peripherals.a(peripheral.o)
 .text.PLIB_ADCHS_AnalogInputDataIsReady
                0x00000000        0x8 ..\..\..\..\..\..\..\..\..\..\microchip\harmony\v1_07_01\bin\framework\peripheral\PIC32MX440F256H_peripherals.a(peripheral.o)
 .text.PLIB_ADCHS_AnalogInputResultGet
                0x00000000        0x8 ..\..\..\..\..\..\..\..\..\..\microchip\harmony\v1_07_01\bin\framework\peripheral\PIC32MX440F256H_peripherals.a(peripheral.o)
 .text.PLIB_ADCHS_ExistsConversionResults
                0x00000000        0x8 ..\..\..\..\..\..\..\..\..\..\microchip\harmony\v1_07_01\bin\framework\peripheral\PIC32MX440F256H_peripherals.a(peripheral.o)
 .text.PLIB_BMX_ExistsArbitrationMode
                0x00000000        0x8 ..\..\..\..\..\..\..\..\..\..\microchip\harmony\v1_07_01\bin\framework\peripheral\PIC32MX440F256H_peripherals.a(peripheral.o)
 .text.PLIB_BMX_ArbitrationModeSet
                0x00000000       0x74 ..\..\..\..\..\..\..\..\..\..\microchip\harmony\v1_07_01\bin\framework\peripheral\PIC32MX440F256H_peripherals.a(peripheral.o)
 .text.PLIB_BMX_ArbitrationModeGet
                0x00000000       0x20 ..\..\..\..\..\..\..\..\..\..\microchip\harmony\v1_07_01\bin\framework\peripheral\PIC32MX440F256H_peripherals.a(peripheral.o)
 .text.PLIB_BMX_DataRamWaitStateGet
                0x00000000       0x20 ..\..\..\..\..\..\..\..\..\..\microchip\harmony\v1_07_01\bin\framework\peripheral\PIC32MX440F256H_peripherals.a(peripheral.o)
 .text.PLIB_BMX_ExistsProgramFlashMemoryCacheDma
                0x00000000        0x8 ..\..\..\..\..\..\..\..\..\..\microchip\harmony\v1_07_01\bin\framework\peripheral\PIC32MX440F256H_peripherals.a(peripheral.o)
 .text.PLIB_BMX_ProgramFlashMemoryCacheDmaEnable
                0x00000000       0x1c ..\..\..\..\..\..\..\..\..\..\microchip\harmony\v1_07_01\bin\framework\peripheral\PIC32MX440F256H_peripherals.a(peripheral.o)
 .text.PLIB_BMX_ProgramFlashMemoryCacheDmaDisable
                0x00000000       0x1c ..\..\..\..\..\..\..\..\..\..\microchip\harmony\v1_07_01\bin\framework\peripheral\PIC32MX440F256H_peripherals.a(peripheral.o)
 .text.PLIB_BMX_ExistsBusExceptionIXI
                0x00000000        0x8 ..\..\..\..\..\..\..\..\..\..\microchip\harmony\v1_07_01\bin\framework\peripheral\PIC32MX440F256H_peripherals.a(peripheral.o)
 .text.PLIB_BMX_BusExceptionIXIEnable
                0x00000000       0x1c ..\..\..\..\..\..\..\..\..\..\microchip\harmony\v1_07_01\bin\framework\peripheral\PIC32MX440F256H_peripherals.a(peripheral.o)
 .text.PLIB_BMX_BusExceptionIXIDisable
                0x00000000       0x1c ..\..\..\..\..\..\..\..\..\..\microchip\harmony\v1_07_01\bin\framework\peripheral\PIC32MX440F256H_peripherals.a(peripheral.o)
 .text.PLIB_BMX_ExistsBusExceptionICD
                0x00000000        0x8 ..\..\..\..\..\..\..\..\..\..\microchip\harmony\v1_07_01\bin\framework\peripheral\PIC32MX440F256H_peripherals.a(peripheral.o)
 .text.PLIB_BMX_BusExceptionICDEnable
                0x00000000       0x1c ..\..\..\..\..\..\..\..\..\..\microchip\harmony\v1_07_01\bin\framework\peripheral\PIC32MX440F256H_peripherals.a(peripheral.o)
 .text.PLIB_BMX_BusExceptionICDDisable
                0x00000000       0x1c ..\..\..\..\..\..\..\..\..\..\microchip\harmony\v1_07_01\bin\framework\peripheral\PIC32MX440F256H_peripherals.a(peripheral.o)
 .text.PLIB_BMX_ExistsBusExceptionDMA
                0x00000000        0x8 ..\..\..\..\..\..\..\..\..\..\microchip\harmony\v1_07_01\bin\framework\peripheral\PIC32MX440F256H_peripherals.a(peripheral.o)
 .text.PLIB_BMX_BusExceptionDMAEnable
                0x00000000       0x1c ..\..\..\..\..\..\..\..\..\..\microchip\harmony\v1_07_01\bin\framework\peripheral\PIC32MX440F256H_peripherals.a(peripheral.o)
 .text.PLIB_BMX_BusExceptionDMADisable
                0x00000000       0x1c ..\..\..\..\..\..\..\..\..\..\microchip\harmony\v1_07_01\bin\framework\peripheral\PIC32MX440F256H_peripherals.a(peripheral.o)
 .text.PLIB_BMX_ExistsBusExceptionData
                0x00000000        0x8 ..\..\..\..\..\..\..\..\..\..\microchip\harmony\v1_07_01\bin\framework\peripheral\PIC32MX440F256H_peripherals.a(peripheral.o)
 .text.PLIB_BMX_BusExceptionDataEnable
                0x00000000       0x1c ..\..\..\..\..\..\..\..\..\..\microchip\harmony\v1_07_01\bin\framework\peripheral\PIC32MX440F256H_peripherals.a(peripheral.o)
 .text.PLIB_BMX_BusExceptionDataDisable
                0x00000000       0x1c ..\..\..\..\..\..\..\..\..\..\microchip\harmony\v1_07_01\bin\framework\peripheral\PIC32MX440F256H_peripherals.a(peripheral.o)
 .text.PLIB_BMX_ExistsBusExceptionInstruction
                0x00000000        0x8 ..\..\..\..\..\..\..\..\..\..\microchip\harmony\v1_07_01\bin\framework\peripheral\PIC32MX440F256H_peripherals.a(peripheral.o)
 .text.PLIB_BMX_BusExceptionInstructionEnable
                0x00000000       0x1c ..\..\..\..\..\..\..\..\..\..\microchip\harmony\v1_07_01\bin\framework\peripheral\PIC32MX440F256H_peripherals.a(peripheral.o)
 .text.PLIB_BMX_BusExceptionInstructionDisable
                0x00000000       0x1c ..\..\..\..\..\..\..\..\..\..\microchip\harmony\v1_07_01\bin\framework\peripheral\PIC32MX440F256H_peripherals.a(peripheral.o)
 .text.PLIB_BMX_ExistsProgramFlashPartition
                0x00000000        0x8 ..\..\..\..\..\..\..\..\..\..\microchip\harmony\v1_07_01\bin\framework\peripheral\PIC32MX440F256H_peripherals.a(peripheral.o)
 .text.PLIB_BMX_ProgramFlashPartitionGet
                0x00000000       0x20 ..\..\..\..\..\..\..\..\..\..\microchip\harmony\v1_07_01\bin\framework\peripheral\PIC32MX440F256H_peripherals.a(peripheral.o)
 .text.PLIB_BMX_ProgramFlashPartitionSet
                0x00000000       0x14 ..\..\..\..\..\..\..\..\..\..\microchip\harmony\v1_07_01\bin\framework\peripheral\PIC32MX440F256H_peripherals.a(peripheral.o)
 .text.PLIB_BMX_ExistsDataRAMPartition
                0x00000000        0x8 ..\..\..\..\..\..\..\..\..\..\microchip\harmony\v1_07_01\bin\framework\peripheral\PIC32MX440F256H_peripherals.a(peripheral.o)
 .text.PLIB_BMX_DataRAMPartitionSet
                0x00000000       0x24 ..\..\..\..\..\..\..\..\..\..\microchip\harmony\v1_07_01\bin\framework\peripheral\PIC32MX440F256H_peripherals.a(peripheral.o)
 .text.PLIB_BMX_DataRAMKernelProgramOffsetGet
                0x00000000       0x20 ..\..\..\..\..\..\..\..\..\..\microchip\harmony\v1_07_01\bin\framework\peripheral\PIC32MX440F256H_peripherals.a(peripheral.o)
 .text.PLIB_BMX_DataRAMUserDataOffsetGet
                0x00000000       0x20 ..\..\..\..\..\..\..\..\..\..\microchip\harmony\v1_07_01\bin\framework\peripheral\PIC32MX440F256H_peripherals.a(peripheral.o)
 .text.PLIB_BMX_DataRAMUserProgramOffsetGet
                0x00000000       0x20 ..\..\..\..\..\..\..\..\..\..\microchip\harmony\v1_07_01\bin\framework\peripheral\PIC32MX440F256H_peripherals.a(peripheral.o)
 .text.PLIB_BMX_ExistsProgramFlashMemorySize
                0x00000000        0x8 ..\..\..\..\..\..\..\..\..\..\microchip\harmony\v1_07_01\bin\framework\peripheral\PIC32MX440F256H_peripherals.a(peripheral.o)
 .text.PLIB_BMX_ProgramFlashMemorySizeGet
                0x00000000       0x20 ..\..\..\..\..\..\..\..\..\..\microchip\harmony\v1_07_01\bin\framework\peripheral\PIC32MX440F256H_peripherals.a(peripheral.o)
 .text.PLIB_BMX_ExistsDataRAMSize
                0x00000000        0x8 ..\..\..\..\..\..\..\..\..\..\microchip\harmony\v1_07_01\bin\framework\peripheral\PIC32MX440F256H_peripherals.a(peripheral.o)
 .text.PLIB_BMX_DataRAMSizeGet
                0x00000000       0x20 ..\..\..\..\..\..\..\..\..\..\microchip\harmony\v1_07_01\bin\framework\peripheral\PIC32MX440F256H_peripherals.a(peripheral.o)
 .text.PLIB_BMX_ExistsProgramFlashBootSize
                0x00000000        0x8 ..\..\..\..\..\..\..\..\..\..\microchip\harmony\v1_07_01\bin\framework\peripheral\PIC32MX440F256H_peripherals.a(peripheral.o)
 .text.PLIB_BMX_ProgramFlashBootSizeGet
                0x00000000       0x20 ..\..\..\..\..\..\..\..\..\..\microchip\harmony\v1_07_01\bin\framework\peripheral\PIC32MX440F256H_peripherals.a(peripheral.o)
 .text.PLIB_CAN_DeviceNetConfigure
                0x00000000        0x8 ..\..\..\..\..\..\..\..\..\..\microchip\harmony\v1_07_01\bin\framework\peripheral\PIC32MX440F256H_peripherals.a(peripheral.o)
 .text.PLIB_CAN_ExistsDeviceNet
                0x00000000        0x8 ..\..\..\..\..\..\..\..\..\..\microchip\harmony\v1_07_01\bin\framework\peripheral\PIC32MX440F256H_peripherals.a(peripheral.o)
 .text.PLIB_CAN_IsActive
                0x00000000        0x8 ..\..\..\..\..\..\..\..\..\..\microchip\harmony\v1_07_01\bin\framework\peripheral\PIC32MX440F256H_peripherals.a(peripheral.o)
 .text.PLIB_CAN_ExistsActiveStatus
                0x00000000        0x8 ..\..\..\..\..\..\..\..\..\..\microchip\harmony\v1_07_01\bin\framework\peripheral\PIC32MX440F256H_peripherals.a(peripheral.o)
 .text.PLIB_CAN_StopInIdleEnable
                0x00000000        0x8 ..\..\..\..\..\..\..\..\..\..\microchip\harmony\v1_07_01\bin\framework\peripheral\PIC32MX440F256H_peripherals.a(peripheral.o)
 .text.PLIB_CAN_StopInIdleDisable
                0x00000000        0x8 ..\..\..\..\..\..\..\..\..\..\microchip\harmony\v1_07_01\bin\framework\peripheral\PIC32MX440F256H_peripherals.a(peripheral.o)
 .text.PLIB_CAN_ExistsStopInIdle
                0x00000000        0x8 ..\..\..\..\..\..\..\..\..\..\microchip\harmony\v1_07_01\bin\framework\peripheral\PIC32MX440F256H_peripherals.a(peripheral.o)
 .text.PLIB_CAN_Enable
                0x00000000        0x8 ..\..\..\..\..\..\..\..\..\..\microchip\harmony\v1_07_01\bin\framework\peripheral\PIC32MX440F256H_peripherals.a(peripheral.o)
 .text.PLIB_CAN_Disable
                0x00000000        0x8 ..\..\..\..\..\..\..\..\..\..\microchip\harmony\v1_07_01\bin\framework\peripheral\PIC32MX440F256H_peripherals.a(peripheral.o)
 .text.PLIB_CAN_ExistsEnableControl
                0x00000000        0x8 ..\..\..\..\..\..\..\..\..\..\microchip\harmony\v1_07_01\bin\framework\peripheral\PIC32MX440F256H_peripherals.a(peripheral.o)
 .text.PLIB_CAN_TimeStampEnable
                0x00000000        0x8 ..\..\..\..\..\..\..\..\..\..\microchip\harmony\v1_07_01\bin\framework\peripheral\PIC32MX440F256H_peripherals.a(peripheral.o)
 .text.PLIB_CAN_TimeStampDisable
                0x00000000        0x8 ..\..\..\..\..\..\..\..\..\..\microchip\harmony\v1_07_01\bin\framework\peripheral\PIC32MX440F256H_peripherals.a(peripheral.o)
 .text.PLIB_CAN_ExistsTimeStampEnable
                0x00000000        0x8 ..\..\..\..\..\..\..\..\..\..\microchip\harmony\v1_07_01\bin\framework\peripheral\PIC32MX440F256H_peripherals.a(peripheral.o)
 .text.PLIB_CAN_TimeStampValueSet
                0x00000000        0x8 ..\..\..\..\..\..\..\..\..\..\microchip\harmony\v1_07_01\bin\framework\peripheral\PIC32MX440F256H_peripherals.a(peripheral.o)
 .text.PLIB_CAN_TimeStampValueGet
                0x00000000        0x8 ..\..\..\..\..\..\..\..\..\..\microchip\harmony\v1_07_01\bin\framework\peripheral\PIC32MX440F256H_peripherals.a(peripheral.o)
 .text.PLIB_CAN_ExistsTimeStampValue
                0x00000000        0x8 ..\..\..\..\..\..\..\..\..\..\microchip\harmony\v1_07_01\bin\framework\peripheral\PIC32MX440F256H_peripherals.a(peripheral.o)
 .text.PLIB_CAN_BusActivityWakeupEnable
                0x00000000        0x8 ..\..\..\..\..\..\..\..\..\..\microchip\harmony\v1_07_01\bin\framework\peripheral\PIC32MX440F256H_peripherals.a(peripheral.o)
 .text.PLIB_CAN_BusActivityWakeupDisable
                0x00000000        0x8 ..\..\..\..\..\..\..\..\..\..\microchip\harmony\v1_07_01\bin\framework\peripheral\PIC32MX440F256H_peripherals.a(peripheral.o)
 .text.PLIB_CAN_ExistsBusActivityWakeup
                0x00000000        0x8 ..\..\..\..\..\..\..\..\..\..\microchip\harmony\v1_07_01\bin\framework\peripheral\PIC32MX440F256H_peripherals.a(peripheral.o)
 .text.PLIB_CAN_MemoryBufferAssign
                0x00000000        0x8 ..\..\..\..\..\..\..\..\..\..\microchip\harmony\v1_07_01\bin\framework\peripheral\PIC32MX440F256H_peripherals.a(peripheral.o)
 .text.PLIB_CAN_ExistsMemoryBufferAssign
                0x00000000        0x8 ..\..\..\..\..\..\..\..\..\..\microchip\harmony\v1_07_01\bin\framework\peripheral\PIC32MX440F256H_peripherals.a(peripheral.o)
 .text.PLIB_CAN_OperationModeGet
                0x00000000        0x8 ..\..\..\..\..\..\..\..\..\..\microchip\harmony\v1_07_01\bin\framework\peripheral\PIC32MX440F256H_peripherals.a(peripheral.o)
 .text.PLIB_CAN_ExistsOperationModeRead
                0x00000000        0x8 ..\..\..\..\..\..\..\..\..\..\microchip\harmony\v1_07_01\bin\framework\peripheral\PIC32MX440F256H_peripherals.a(peripheral.o)
 .text.PLIB_CAN_OperationModeSelect
                0x00000000        0x8 ..\..\..\..\..\..\..\..\..\..\microchip\harmony\v1_07_01\bin\framework\peripheral\PIC32MX440F256H_peripherals.a(peripheral.o)
 .text.PLIB_CAN_ExistsOperationModeWrite
                0x00000000        0x8 ..\..\..\..\..\..\..\..\..\..\microchip\harmony\v1_07_01\bin\framework\peripheral\PIC32MX440F256H_peripherals.a(peripheral.o)
 .text.PLIB_CAN_TimeStampPrescalerSet
                0x00000000        0x8 ..\..\..\..\..\..\..\..\..\..\microchip\harmony\v1_07_01\bin\framework\peripheral\PIC32MX440F256H_peripherals.a(peripheral.o)
 .text.PLIB_CAN_ExistsTimeStampPrescaler
                0x00000000        0x8 ..\..\..\..\..\..\..\..\..\..\microchip\harmony\v1_07_01\bin\framework\peripheral\PIC32MX440F256H_peripherals.a(peripheral.o)
 .text.PLIB_CAN_PhaseSegment2LengthSet
                0x00000000        0x8 ..\..\..\..\..\..\..\..\..\..\microchip\harmony\v1_07_01\bin\framework\peripheral\PIC32MX440F256H_peripherals.a(peripheral.o)
 .text.PLIB_CAN_ExistsPhaseSegment2Length
                0x00000000        0x8 ..\..\..\..\..\..\..\..\..\..\microchip\harmony\v1_07_01\bin\framework\peripheral\PIC32MX440F256H_peripherals.a(peripheral.o)
 .text.PLIB_CAN_PhaseSegment1LengthSet
                0x00000000        0x8 ..\..\..\..\..\..\..\..\..\..\microchip\harmony\v1_07_01\bin\framework\peripheral\PIC32MX440F256H_peripherals.a(peripheral.o)
 .text.PLIB_CAN_ExistsPhaseSegment1Length
                0x00000000        0x8 ..\..\..\..\..\..\..\..\..\..\microchip\harmony\v1_07_01\bin\framework\peripheral\PIC32MX440F256H_peripherals.a(peripheral.o)
 .text.PLIB_CAN_PhaseSegment2LengthFreelyProgrammableEnable
                0x00000000        0x8 ..\..\..\..\..\..\..\..\..\..\microchip\harmony\v1_07_01\bin\framework\peripheral\PIC32MX440F256H_peripherals.a(peripheral.o)
 .text.PLIB_CAN_PhaseSegment2LengthFreelyProgrammableDisable
                0x00000000        0x8 ..\..\..\..\..\..\..\..\..\..\microchip\harmony\v1_07_01\bin\framework\peripheral\PIC32MX440F256H_peripherals.a(peripheral.o)
 .text.PLIB_CAN_ExistsPhaseSegment2LengthFreelyProgrammable
                0x00000000        0x8 ..\..\..\..\..\..\..\..\..\..\microchip\harmony\v1_07_01\bin\framework\peripheral\PIC32MX440F256H_peripherals.a(peripheral.o)
 .text.PLIB_CAN_BusLine3TimesSamplingEnable
                0x00000000        0x8 ..\..\..\..\..\..\..\..\..\..\microchip\harmony\v1_07_01\bin\framework\peripheral\PIC32MX440F256H_peripherals.a(peripheral.o)
 .text.PLIB_CAN_BusLine3TimesSamplingDisable
                0x00000000        0x8 ..\..\..\..\..\..\..\..\..\..\microchip\harmony\v1_07_01\bin\framework\peripheral\PIC32MX440F256H_peripherals.a(peripheral.o)
 .text.PLIB_CAN_ExistsBusLine3TimesSampling
                0x00000000        0x8 ..\..\..\..\..\..\..\..\..\..\microchip\harmony\v1_07_01\bin\framework\peripheral\PIC32MX440F256H_peripherals.a(peripheral.o)
 .text.PLIB_CAN_PropagationTimeSegmentSet
                0x00000000        0x8 ..\..\..\..\..\..\..\..\..\..\microchip\harmony\v1_07_01\bin\framework\peripheral\PIC32MX440F256H_peripherals.a(peripheral.o)
 .text.PLIB_CAN_ExistsPropagationTimeSegment
                0x00000000        0x8 ..\..\..\..\..\..\..\..\..\..\microchip\harmony\v1_07_01\bin\framework\peripheral\PIC32MX440F256H_peripherals.a(peripheral.o)
 .text.PLIB_CAN_SyncJumpWidthSet
                0x00000000        0x8 ..\..\..\..\..\..\..\..\..\..\microchip\harmony\v1_07_01\bin\framework\peripheral\PIC32MX440F256H_peripherals.a(peripheral.o)
 .text.PLIB_CAN_ExistsSyncJumpWidthSet
                0x00000000        0x8 ..\..\..\..\..\..\..\..\..\..\microchip\harmony\v1_07_01\bin\framework\peripheral\PIC32MX440F256H_peripherals.a(peripheral.o)
 .text.PLIB_CAN_BaudRatePrescaleSet
                0x00000000        0x8 ..\..\..\..\..\..\..\..\..\..\microchip\harmony\v1_07_01\bin\framework\peripheral\PIC32MX440F256H_peripherals.a(peripheral.o)
 .text.PLIB_CAN_ExistsBaudRatePrescale
                0x00000000        0x8 ..\..\..\..\..\..\..\..\..\..\microchip\harmony\v1_07_01\bin\framework\peripheral\PIC32MX440F256H_peripherals.a(peripheral.o)
 .text.PLIB_CAN_PrecalculatedBitRateSetup
                0x00000000        0x8 ..\..\..\..\..\..\..\..\..\..\microchip\harmony\v1_07_01\bin\framework\peripheral\PIC32MX440F256H_peripherals.a(peripheral.o)
 .text.PLIB_CAN_ExistsPrecalculatedBitRateSetup
                0x00000000        0x8 ..\..\..\..\..\..\..\..\..\..\microchip\harmony\v1_07_01\bin\framework\peripheral\PIC32MX440F256H_peripherals.a(peripheral.o)
 .text.PLIB_CAN_BitSamplePhaseSet
                0x00000000        0x8 ..\..\..\..\..\..\..\..\..\..\microchip\harmony\v1_07_01\bin\framework\peripheral\PIC32MX440F256H_peripherals.a(peripheral.o)
 .text.PLIB_CAN_ExistsBitSamplePhaseSet
                0x00000000        0x8 ..\..\..\..\..\..\..\..\..\..\microchip\harmony\v1_07_01\bin\framework\peripheral\PIC32MX440F256H_peripherals.a(peripheral.o)
 .text.PLIB_CAN_BaudRatePrescaleSetup
                0x00000000        0x8 ..\..\..\..\..\..\..\..\..\..\microchip\harmony\v1_07_01\bin\framework\peripheral\PIC32MX440F256H_peripherals.a(peripheral.o)
 .text.PLIB_CAN_ExistsBaudRatePrescaleSetup
                0x00000000        0x8 ..\..\..\..\..\..\..\..\..\..\microchip\harmony\v1_07_01\bin\framework\peripheral\PIC32MX440F256H_peripherals.a(peripheral.o)
 .text.PLIB_CAN_BaudRateGet
                0x00000000        0x8 ..\..\..\..\..\..\..\..\..\..\microchip\harmony\v1_07_01\bin\framework\peripheral\PIC32MX440F256H_peripherals.a(peripheral.o)
 .text.PLIB_CAN_ExistsBaudRateGet
                0x00000000        0x8 ..\..\..\..\..\..\..\..\..\..\microchip\harmony\v1_07_01\bin\framework\peripheral\PIC32MX440F256H_peripherals.a(peripheral.o)
 .text.PLIB_CAN_ChannelReset
                0x00000000        0x8 ..\..\..\..\..\..\..\..\..\..\microchip\harmony\v1_07_01\bin\framework\peripheral\PIC32MX440F256H_peripherals.a(peripheral.o)
 .text.PLIB_CAN_ChannelResetIsComplete
                0x00000000        0x8 ..\..\..\..\..\..\..\..\..\..\microchip\harmony\v1_07_01\bin\framework\peripheral\PIC32MX440F256H_peripherals.a(peripheral.o)
 .text.PLIB_CAN_ExistsChannelReset
                0x00000000        0x8 ..\..\..\..\..\..\..\..\..\..\microchip\harmony\v1_07_01\bin\framework\peripheral\PIC32MX440F256H_peripherals.a(peripheral.o)
 .text.PLIB_CAN_ChannelUpdate
                0x00000000        0x8 ..\..\..\..\..\..\..\..\..\..\microchip\harmony\v1_07_01\bin\framework\peripheral\PIC32MX440F256H_peripherals.a(peripheral.o)
 .text.PLIB_CAN_ExistsChannelUpdate
                0x00000000        0x8 ..\..\..\..\..\..\..\..\..\..\microchip\harmony\v1_07_01\bin\framework\peripheral\PIC32MX440F256H_peripherals.a(peripheral.o)
 .text.PLIB_CAN_ModuleEventEnable
                0x00000000        0x8 ..\..\..\..\..\..\..\..\..\..\microchip\harmony\v1_07_01\bin\framework\peripheral\PIC32MX440F256H_peripherals.a(peripheral.o)
 .text.PLIB_CAN_ModuleEventDisable
                0x00000000        0x8 ..\..\..\..\..\..\..\..\..\..\microchip\harmony\v1_07_01\bin\framework\peripheral\PIC32MX440F256H_peripherals.a(peripheral.o)
 .text.PLIB_CAN_ExistsModuleEventEnable
                0x00000000        0x8 ..\..\..\..\..\..\..\..\..\..\microchip\harmony\v1_07_01\bin\framework\peripheral\PIC32MX440F256H_peripherals.a(peripheral.o)
 .text.PLIB_CAN_ModuleEventClear
                0x00000000        0x8 ..\..\..\..\..\..\..\..\..\..\microchip\harmony\v1_07_01\bin\framework\peripheral\PIC32MX440F256H_peripherals.a(peripheral.o)
 .text.PLIB_CAN_ModuleEventGet
                0x00000000        0x8 ..\..\..\..\..\..\..\..\..\..\microchip\harmony\v1_07_01\bin\framework\peripheral\PIC32MX440F256H_peripherals.a(peripheral.o)
 .text.PLIB_CAN_ExistsModuleEventClear
                0x00000000        0x8 ..\..\..\..\..\..\..\..\..\..\microchip\harmony\v1_07_01\bin\framework\peripheral\PIC32MX440F256H_peripherals.a(peripheral.o)
 .text.PLIB_CAN_ChannelEventEnable
                0x00000000        0x8 ..\..\..\..\..\..\..\..\..\..\microchip\harmony\v1_07_01\bin\framework\peripheral\PIC32MX440F256H_peripherals.a(peripheral.o)
 .text.PLIB_CAN_ChannelEventDisable
                0x00000000        0x8 ..\..\..\..\..\..\..\..\..\..\microchip\harmony\v1_07_01\bin\framework\peripheral\PIC32MX440F256H_peripherals.a(peripheral.o)
 .text.PLIB_CAN_ExistsChannelEventEnable
                0x00000000        0x8 ..\..\..\..\..\..\..\..\..\..\microchip\harmony\v1_07_01\bin\framework\peripheral\PIC32MX440F256H_peripherals.a(peripheral.o)
 .text.PLIB_CAN_PendingEventsGet
                0x00000000        0x8 ..\..\..\..\..\..\..\..\..\..\microchip\harmony\v1_07_01\bin\framework\peripheral\PIC32MX440F256H_peripherals.a(peripheral.o)
 .text.PLIB_CAN_ExistsPendingEventsGet
                0x00000000        0x8 ..\..\..\..\..\..\..\..\..\..\microchip\harmony\v1_07_01\bin\framework\peripheral\PIC32MX440F256H_peripherals.a(peripheral.o)
 .text.PLIB_CAN_AllChannelEventsGet
                0x00000000        0x8 ..\..\..\..\..\..\..\..\..\..\microchip\harmony\v1_07_01\bin\framework\peripheral\PIC32MX440F256H_peripherals.a(peripheral.o)
 .text.PLIB_CAN_ExistsAllChannelEvents
                0x00000000        0x8 ..\..\..\..\..\..\..\..\..\..\microchip\harmony\v1_07_01\bin\framework\peripheral\PIC32MX440F256H_peripherals.a(peripheral.o)
 .text.PLIB_CAN_AllChannelOverflowStatusGet
                0x00000000        0x8 ..\..\..\..\..\..\..\..\..\..\microchip\harmony\v1_07_01\bin\framework\peripheral\PIC32MX440F256H_peripherals.a(peripheral.o)
 .text.PLIB_CAN_ExistsAllChannelOverflow
                0x00000000        0x8 ..\..\..\..\..\..\..\..\..\..\microchip\harmony\v1_07_01\bin\framework\peripheral\PIC32MX440F256H_peripherals.a(peripheral.o)
 .text.PLIB_CAN_ChannelEventGet
                0x00000000        0x8 ..\..\..\..\..\..\..\..\..\..\microchip\harmony\v1_07_01\bin\framework\peripheral\PIC32MX440F256H_peripherals.a(peripheral.o)
 .text.PLIB_CAN_ChannelEventClear
                0x00000000        0x8 ..\..\..\..\..\..\..\..\..\..\microchip\harmony\v1_07_01\bin\framework\peripheral\PIC32MX440F256H_peripherals.a(peripheral.o)
 .text.PLIB_CAN_ExistsChannelEvent
                0x00000000        0x8 ..\..\..\..\..\..\..\..\..\..\microchip\harmony\v1_07_01\bin\framework\peripheral\PIC32MX440F256H_peripherals.a(peripheral.o)
 .text.PLIB_CAN_ChannelForTransmitSet
                0x00000000        0x8 ..\..\..\..\..\..\..\..\..\..\microchip\harmony\v1_07_01\bin\framework\peripheral\PIC32MX440F256H_peripherals.a(peripheral.o)
 .text.PLIB_CAN_ExistsChannelForTransmitSet
                0x00000000        0x8 ..\..\..\..\..\..\..\..\..\..\microchip\harmony\v1_07_01\bin\framework\peripheral\PIC32MX440F256H_peripherals.a(peripheral.o)
 .text.PLIB_CAN_PendingTransmissionsAbort
                0x00000000        0x8 ..\..\..\..\..\..\..\..\..\..\microchip\harmony\v1_07_01\bin\framework\peripheral\PIC32MX440F256H_peripherals.a(peripheral.o)
 .text.PLIB_CAN_ExistsPendingTransmissionsAbort
                0x00000000        0x8 ..\..\..\..\..\..\..\..\..\..\microchip\harmony\v1_07_01\bin\framework\peripheral\PIC32MX440F256H_peripherals.a(peripheral.o)
 .text.PLIB_CAN_TransmitChannelFlush
                0x00000000        0x8 ..\..\..\..\..\..\..\..\..\..\microchip\harmony\v1_07_01\bin\framework\peripheral\PIC32MX440F256H_peripherals.a(peripheral.o)
 .text.PLIB_CAN_ExistsTransmitChannelFlush
                0x00000000        0x8 ..\..\..\..\..\..\..\..\..\..\microchip\harmony\v1_07_01\bin\framework\peripheral\PIC32MX440F256H_peripherals.a(peripheral.o)
 .text.PLIB_CAN_TransmitChannelStatusGet
                0x00000000        0x8 ..\..\..\..\..\..\..\..\..\..\microchip\harmony\v1_07_01\bin\framework\peripheral\PIC32MX440F256H_peripherals.a(peripheral.o)
 .text.PLIB_CAN_ExistsTransmitChannelStatus
                0x00000000        0x8 ..\..\..\..\..\..\..\..\..\..\microchip\harmony\v1_07_01\bin\framework\peripheral\PIC32MX440F256H_peripherals.a(peripheral.o)
 .text.PLIB_CAN_TransmitBufferGet
                0x00000000        0x8 ..\..\..\..\..\..\..\..\..\..\microchip\harmony\v1_07_01\bin\framework\peripheral\PIC32MX440F256H_peripherals.a(peripheral.o)
 .text.PLIB_CAN_ExistsTransmitBufferGet
                0x00000000        0x8 ..\..\..\..\..\..\..\..\..\..\microchip\harmony\v1_07_01\bin\framework\peripheral\PIC32MX440F256H_peripherals.a(peripheral.o)
 .text.PLIB_CAN_TransmissionIsAborted
                0x00000000        0x8 ..\..\..\..\..\..\..\..\..\..\microchip\harmony\v1_07_01\bin\framework\peripheral\PIC32MX440F256H_peripherals.a(peripheral.o)
 .text.PLIB_CAN_ExistsTransmissionIsAborted
                0x00000000        0x8 ..\..\..\..\..\..\..\..\..\..\microchip\harmony\v1_07_01\bin\framework\peripheral\PIC32MX440F256H_peripherals.a(peripheral.o)
 .text.PLIB_CAN_ReceivedMessageGet
                0x00000000        0x8 ..\..\..\..\..\..\..\..\..\..\microchip\harmony\v1_07_01\bin\framework\peripheral\PIC32MX440F256H_peripherals.a(peripheral.o)
 .text.PLIB_CAN_ExistsReceivedMessageGet
                0x00000000        0x8 ..\..\..\..\..\..\..\..\..\..\microchip\harmony\v1_07_01\bin\framework\peripheral\PIC32MX440F256H_peripherals.a(peripheral.o)
 .text.PLIB_CAN_ChannelForReceiveSet
                0x00000000        0x8 ..\..\..\..\..\..\..\..\..\..\microchip\harmony\v1_07_01\bin\framework\peripheral\PIC32MX440F256H_peripherals.a(peripheral.o)
 .text.PLIB_CAN_ExistsChannelForReceiveSet
                0x00000000        0x8 ..\..\..\..\..\..\..\..\..\..\microchip\harmony\v1_07_01\bin\framework\peripheral\PIC32MX440F256H_peripherals.a(peripheral.o)
 .text.PLIB_CAN_FilterMaskConfigure
                0x00000000        0x8 ..\..\..\..\..\..\..\..\..\..\microchip\harmony\v1_07_01\bin\framework\peripheral\PIC32MX440F256H_peripherals.a(peripheral.o)
 .text.PLIB_CAN_ExistsFilterMaskConfigure
                0x00000000        0x8 ..\..\..\..\..\..\..\..\..\..\microchip\harmony\v1_07_01\bin\framework\peripheral\PIC32MX440F256H_peripherals.a(peripheral.o)
 .text.PLIB_CAN_FilterConfigure
                0x00000000        0x8 ..\..\..\..\..\..\..\..\..\..\microchip\harmony\v1_07_01\bin\framework\peripheral\PIC32MX440F256H_peripherals.a(peripheral.o)
 .text.PLIB_CAN_ExistsFilterConfigure
                0x00000000        0x8 ..\..\..\..\..\..\..\..\..\..\microchip\harmony\v1_07_01\bin\framework\peripheral\PIC32MX440F256H_peripherals.a(peripheral.o)
 .text.PLIB_CAN_FilterEnable
                0x00000000        0x8 ..\..\..\..\..\..\..\..\..\..\microchip\harmony\v1_07_01\bin\framework\peripheral\PIC32MX440F256H_peripherals.a(peripheral.o)
 .text.PLIB_CAN_FilterDisable
                0x00000000        0x8 ..\..\..\..\..\..\..\..\..\..\microchip\harmony\v1_07_01\bin\framework\peripheral\PIC32MX440F256H_peripherals.a(peripheral.o)
 .text.PLIB_CAN_FilterIsDisabled
                0x00000000        0x8 ..\..\..\..\..\..\..\..\..\..\microchip\harmony\v1_07_01\bin\framework\peripheral\PIC32MX440F256H_peripherals.a(peripheral.o)
 .text.PLIB_CAN_ExistsFilterEnable
                0x00000000        0x8 ..\..\..\..\..\..\..\..\..\..\microchip\harmony\v1_07_01\bin\framework\peripheral\PIC32MX440F256H_peripherals.a(peripheral.o)
 .text.PLIB_CAN_LatestFilterMatchGet
                0x00000000        0x8 ..\..\..\..\..\..\..\..\..\..\microchip\harmony\v1_07_01\bin\framework\peripheral\PIC32MX440F256H_peripherals.a(peripheral.o)
 .text.PLIB_CAN_ExistsLatestFilterMatchGet
                0x00000000        0x8 ..\..\..\..\..\..\..\..\..\..\microchip\harmony\v1_07_01\bin\framework\peripheral\PIC32MX440F256H_peripherals.a(peripheral.o)
 .text.PLIB_CAN_FilterToChannelLink
                0x00000000        0x8 ..\..\..\..\..\..\..\..\..\..\microchip\harmony\v1_07_01\bin\framework\peripheral\PIC32MX440F256H_peripherals.a(peripheral.o)
 .text.PLIB_CAN_ExistsFilterToChannelLink
                0x00000000        0x8 ..\..\..\..\..\..\..\..\..\..\microchip\harmony\v1_07_01\bin\framework\peripheral\PIC32MX440F256H_peripherals.a(peripheral.o)
 .text.PLIB_CAN_ReceiveErrorCountGet
                0x00000000        0x8 ..\..\..\..\..\..\..\..\..\..\microchip\harmony\v1_07_01\bin\framework\peripheral\PIC32MX440F256H_peripherals.a(peripheral.o)
 .text.PLIB_CAN_ExistsReceiveErrorCount
                0x00000000        0x8 ..\..\..\..\..\..\..\..\..\..\microchip\harmony\v1_07_01\bin\framework\peripheral\PIC32MX440F256H_peripherals.a(peripheral.o)
 .text.PLIB_CAN_TransmitErrorCountGet
                0x00000000        0x8 ..\..\..\..\..\..\..\..\..\..\microchip\harmony\v1_07_01\bin\framework\peripheral\PIC32MX440F256H_peripherals.a(peripheral.o)
 .text.PLIB_CAN_ExistsTransmitErrorCountGet
                0x00000000        0x8 ..\..\..\..\..\..\..\..\..\..\microchip\harmony\v1_07_01\bin\framework\peripheral\PIC32MX440F256H_peripherals.a(peripheral.o)
 .text.PLIB_CAN_ErrorStateGet
                0x00000000        0x8 ..\..\..\..\..\..\..\..\..\..\microchip\harmony\v1_07_01\bin\framework\peripheral\PIC32MX440F256H_peripherals.a(peripheral.o)
 .text.PLIB_CAN_ExistsErrorState
                0x00000000        0x8 ..\..\..\..\..\..\..\..\..\..\microchip\harmony\v1_07_01\bin\framework\peripheral\PIC32MX440F256H_peripherals.a(peripheral.o)
 .text.PLIB_CAN_TotalChannelsGet
                0x00000000        0x8 ..\..\..\..\..\..\..\..\..\..\microchip\harmony\v1_07_01\bin\framework\peripheral\PIC32MX440F256H_peripherals.a(peripheral.o)
 .text.PLIB_CAN_TotalFiltersGet
                0x00000000        0x8 ..\..\..\..\..\..\..\..\..\..\microchip\harmony\v1_07_01\bin\framework\peripheral\PIC32MX440F256H_peripherals.a(peripheral.o)
 .text.PLIB_CAN_TotalMasksGet
                0x00000000        0x8 ..\..\..\..\..\..\..\..\..\..\microchip\harmony\v1_07_01\bin\framework\peripheral\PIC32MX440F256H_peripherals.a(peripheral.o)
 .text.PLIB_CAN_ExistsModuleInfo
                0x00000000        0x8 ..\..\..\..\..\..\..\..\..\..\microchip\harmony\v1_07_01\bin\framework\peripheral\PIC32MX440F256H_peripherals.a(peripheral.o)
 .text.PLIB_CMP_ExistsEnableControl
                0x00000000        0x8 ..\..\..\..\..\..\..\..\..\..\microchip\harmony\v1_07_01\bin\framework\peripheral\PIC32MX440F256H_peripherals.a(peripheral.o)
 .text.PLIB_CMP_Enable
                0x00000000       0x44 ..\..\..\..\..\..\..\..\..\..\microchip\harmony\v1_07_01\bin\framework\peripheral\PIC32MX440F256H_peripherals.a(peripheral.o)
 .text.PLIB_CMP_Disable
                0x00000000       0x44 ..\..\..\..\..\..\..\..\..\..\microchip\harmony\v1_07_01\bin\framework\peripheral\PIC32MX440F256H_peripherals.a(peripheral.o)
 .text.PLIB_CMP_ExistsOutputEnableControl
                0x00000000        0x8 ..\..\..\..\..\..\..\..\..\..\microchip\harmony\v1_07_01\bin\framework\peripheral\PIC32MX440F256H_peripherals.a(peripheral.o)
 .text.PLIB_CMP_OutputEnable
                0x00000000       0x44 ..\..\..\..\..\..\..\..\..\..\microchip\harmony\v1_07_01\bin\framework\peripheral\PIC32MX440F256H_peripherals.a(peripheral.o)
 .text.PLIB_CMP_OutputDisable
                0x00000000       0x44 ..\..\..\..\..\..\..\..\..\..\microchip\harmony\v1_07_01\bin\framework\peripheral\PIC32MX440F256H_peripherals.a(peripheral.o)
 .text.PLIB_CMP_ExistsInvertOutputControl
                0x00000000        0x8 ..\..\..\..\..\..\..\..\..\..\microchip\harmony\v1_07_01\bin\framework\peripheral\PIC32MX440F256H_peripherals.a(peripheral.o)
 .text.PLIB_CMP_OutputInvertEnable
                0x00000000       0x44 ..\..\..\..\..\..\..\..\..\..\microchip\harmony\v1_07_01\bin\framework\peripheral\PIC32MX440F256H_peripherals.a(peripheral.o)
 .text.PLIB_CMP_OutputInvertDisable
                0x00000000       0x44 ..\..\..\..\..\..\..\..\..\..\microchip\harmony\v1_07_01\bin\framework\peripheral\PIC32MX440F256H_peripherals.a(peripheral.o)
 .text.PLIB_CMP_ExistsOutputLevelControl
                0x00000000        0x8 ..\..\..\..\..\..\..\..\..\..\microchip\harmony\v1_07_01\bin\framework\peripheral\PIC32MX440F256H_peripherals.a(peripheral.o)
 .text.PLIB_CMP_OutputLogicHigh
                0x00000000       0x44 ..\..\..\..\..\..\..\..\..\..\microchip\harmony\v1_07_01\bin\framework\peripheral\PIC32MX440F256H_peripherals.a(peripheral.o)
 .text.PLIB_CMP_OutputLogicLow
                0x00000000       0x44 ..\..\..\..\..\..\..\..\..\..\microchip\harmony\v1_07_01\bin\framework\peripheral\PIC32MX440F256H_peripherals.a(peripheral.o)
 .text.PLIB_CMP_ExistsOutputStatusGet
                0x00000000        0x8 ..\..\..\..\..\..\..\..\..\..\microchip\harmony\v1_07_01\bin\framework\peripheral\PIC32MX440F256H_peripherals.a(peripheral.o)
 .text.PLIB_CMP_OutputStatusGet
                0x00000000       0x34 ..\..\..\..\..\..\..\..\..\..\microchip\harmony\v1_07_01\bin\framework\peripheral\PIC32MX440F256H_peripherals.a(peripheral.o)
 .text.PLIB_CMP_ExistsInterruptEventSelect
                0x00000000        0x8 ..\..\..\..\..\..\..\..\..\..\microchip\harmony\v1_07_01\bin\framework\peripheral\PIC32MX440F256H_peripherals.a(peripheral.o)
 .text.PLIB_CMP_InterruptEventSelect
                0x00000000       0x64 ..\..\..\..\..\..\..\..\..\..\microchip\harmony\v1_07_01\bin\framework\peripheral\PIC32MX440F256H_peripherals.a(peripheral.o)
 .text.PLIB_CMP_ExistsNonInvertingInputSelect
                0x00000000        0x8 ..\..\..\..\..\..\..\..\..\..\microchip\harmony\v1_07_01\bin\framework\peripheral\PIC32MX440F256H_peripherals.a(peripheral.o)
 .text.PLIB_CMP_NonInvertingInputChannelSelect
                0x00000000       0x64 ..\..\..\..\..\..\..\..\..\..\microchip\harmony\v1_07_01\bin\framework\peripheral\PIC32MX440F256H_peripherals.a(peripheral.o)
 .text.PLIB_CMP_ExistsInvertingInputSelect
                0x00000000        0x8 ..\..\..\..\..\..\..\..\..\..\microchip\harmony\v1_07_01\bin\framework\peripheral\PIC32MX440F256H_peripherals.a(peripheral.o)
 .text.PLIB_CMP_InvertingInputChannelSelect
                0x00000000       0x5c ..\..\..\..\..\..\..\..\..\..\microchip\harmony\v1_07_01\bin\framework\peripheral\PIC32MX440F256H_peripherals.a(peripheral.o)
 .text.PLIB_CMP_ExistsStopInIdle
                0x00000000        0x8 ..\..\..\..\..\..\..\..\..\..\microchip\harmony\v1_07_01\bin\framework\peripheral\PIC32MX440F256H_peripherals.a(peripheral.o)
 .text.PLIB_CMP_StopInIdleModeEnable
                0x00000000       0x44 ..\..\..\..\..\..\..\..\..\..\microchip\harmony\v1_07_01\bin\framework\peripheral\PIC32MX440F256H_peripherals.a(peripheral.o)
 .text.PLIB_CMP_StopInIdleModeDisable
                0x00000000       0x44 ..\..\..\..\..\..\..\..\..\..\microchip\harmony\v1_07_01\bin\framework\peripheral\PIC32MX440F256H_peripherals.a(peripheral.o)
 .text.PLIB_CMP_ExistsCVREFEnableControl
                0x00000000        0x8 ..\..\..\..\..\..\..\..\..\..\microchip\harmony\v1_07_01\bin\framework\peripheral\PIC32MX440F256H_peripherals.a(peripheral.o)
 .text.PLIB_CMP_CVREF_Enable
                0x00000000       0x44 ..\..\..\..\..\..\..\..\..\..\microchip\harmony\v1_07_01\bin\framework\peripheral\PIC32MX440F256H_peripherals.a(peripheral.o)
 .text.PLIB_CMP_CVREF_Disable
                0x00000000       0x44 ..\..\..\..\..\..\..\..\..\..\microchip\harmony\v1_07_01\bin\framework\peripheral\PIC32MX440F256H_peripherals.a(peripheral.o)
 .text.PLIB_CMP_ExistsCVREFOutputEnableControl
                0x00000000        0x8 ..\..\..\..\..\..\..\..\..\..\microchip\harmony\v1_07_01\bin\framework\peripheral\PIC32MX440F256H_peripherals.a(peripheral.o)
 .text.PLIB_CMP_CVREF_OutputEnable
                0x00000000       0x44 ..\..\..\..\..\..\..\..\..\..\microchip\harmony\v1_07_01\bin\framework\peripheral\PIC32MX440F256H_peripherals.a(peripheral.o)
 .text.PLIB_CMP_CVREF_OutputDisable
                0x00000000       0x44 ..\..\..\..\..\..\..\..\..\..\microchip\harmony\v1_07_01\bin\framework\peripheral\PIC32MX440F256H_peripherals.a(peripheral.o)
 .text.PLIB_CMP_ExistsCVREFWideRangeControl
                0x00000000        0x8 ..\..\..\..\..\..\..\..\..\..\microchip\harmony\v1_07_01\bin\framework\peripheral\PIC32MX440F256H_peripherals.a(peripheral.o)
 .text.PLIB_CMP_CVREF_WideRangeEnable
                0x00000000       0x44 ..\..\..\..\..\..\..\..\..\..\microchip\harmony\v1_07_01\bin\framework\peripheral\PIC32MX440F256H_peripherals.a(peripheral.o)
 .text.PLIB_CMP_CVREF_WideRangeDisable
                0x00000000       0x44 ..\..\..\..\..\..\..\..\..\..\microchip\harmony\v1_07_01\bin\framework\peripheral\PIC32MX440F256H_peripherals.a(peripheral.o)
 .text.PLIB_CMP_CVREF_WideRangeIsEnabled
                0x00000000       0x34 ..\..\..\..\..\..\..\..\..\..\microchip\harmony\v1_07_01\bin\framework\peripheral\PIC32MX440F256H_peripherals.a(peripheral.o)
 .text.PLIB_CMP_ExistsCVREFVoltageRangeSelect
                0x00000000        0x8 ..\..\..\..\..\..\..\..\..\..\microchip\harmony\v1_07_01\bin\framework\peripheral\PIC32MX440F256H_peripherals.a(peripheral.o)
 .text.PLIB_CMP_CVREF_SourceVoltageSelect
                0x00000000       0x64 ..\..\..\..\..\..\..\..\..\..\microchip\harmony\v1_07_01\bin\framework\peripheral\PIC32MX440F256H_peripherals.a(peripheral.o)
 .text.PLIB_CMP_ExistsCVREFRefVoltageRangeSelect
                0x00000000        0x8 ..\..\..\..\..\..\..\..\..\..\microchip\harmony\v1_07_01\bin\framework\peripheral\PIC32MX440F256H_peripherals.a(peripheral.o)
 .text.PLIB_CMP_CVREF_ReferenceVoltageSelect
                0x00000000        0x8 ..\..\..\..\..\..\..\..\..\..\microchip\harmony\v1_07_01\bin\framework\peripheral\PIC32MX440F256H_peripherals.a(peripheral.o)
 .text.PLIB_CMP_ExistsCVREFBGRefVoltageRangeSelect
                0x00000000        0x8 ..\..\..\..\..\..\..\..\..\..\microchip\harmony\v1_07_01\bin\framework\peripheral\PIC32MX440F256H_peripherals.a(peripheral.o)
 .text.PLIB_CMP_CVREF_BandGapReferenceSourceSelect
                0x00000000        0x8 ..\..\..\..\..\..\..\..\..\..\microchip\harmony\v1_07_01\bin\framework\peripheral\PIC32MX440F256H_peripherals.a(peripheral.o)
 .text.PLIB_CMP_ExistsCVREFValueSelect
                0x00000000        0x8 ..\..\..\..\..\..\..\..\..\..\microchip\harmony\v1_07_01\bin\framework\peripheral\PIC32MX440F256H_peripherals.a(peripheral.o)
 .text.PLIB_CMP_CVREF_ValueSelect
                0x00000000       0x5c ..\..\..\..\..\..\..\..\..\..\microchip\harmony\v1_07_01\bin\framework\peripheral\PIC32MX440F256H_peripherals.a(peripheral.o)
 .text.PLIB_DEVCON_AlternateClockEnable
                0x00000000        0x8 ..\..\..\..\..\..\..\..\..\..\microchip\harmony\v1_07_01\bin\framework\peripheral\PIC32MX440F256H_peripherals.a(peripheral.o)
 .text.PLIB_DEVCON_AlternateClockDisable
                0x00000000        0x8 ..\..\..\..\..\..\..\..\..\..\microchip\harmony\v1_07_01\bin\framework\peripheral\PIC32MX440F256H_peripherals.a(peripheral.o)
 .text.PLIB_DEVCON_ExistsAlternateClock
                0x00000000        0x8 ..\..\..\..\..\..\..\..\..\..\microchip\harmony\v1_07_01\bin\framework\peripheral\PIC32MX440F256H_peripherals.a(peripheral.o)
 .text.PLIB_DEVCON_DeviceRegistersLock
                0x00000000        0x8 ..\..\..\..\..\..\..\..\..\..\microchip\harmony\v1_07_01\bin\framework\peripheral\PIC32MX440F256H_peripherals.a(peripheral.o)
 .text.PLIB_DEVCON_DeviceRegistersUnlock
                0x00000000        0x8 ..\..\..\..\..\..\..\..\..\..\microchip\harmony\v1_07_01\bin\framework\peripheral\PIC32MX440F256H_peripherals.a(peripheral.o)
 .text.PLIB_DEVCON_ExistsDeviceRegsLockUnlock
                0x00000000        0x8 ..\..\..\..\..\..\..\..\..\..\microchip\harmony\v1_07_01\bin\framework\peripheral\PIC32MX440F256H_peripherals.a(peripheral.o)
 .text.PLIB_DEVCON_OTPConfigLock
                0x00000000        0x8 ..\..\..\..\..\..\..\..\..\..\microchip\harmony\v1_07_01\bin\framework\peripheral\PIC32MX440F256H_peripherals.a(peripheral.o)
 .text.PLIB_DEVCON_OTPConfigUnlock
                0x00000000        0x8 ..\..\..\..\..\..\..\..\..\..\microchip\harmony\v1_07_01\bin\framework\peripheral\PIC32MX440F256H_peripherals.a(peripheral.o)
 .text.PLIB_DEVCON_ExistsOTPConfigLockUnlock
                0x00000000        0x8 ..\..\..\..\..\..\..\..\..\..\microchip\harmony\v1_07_01\bin\framework\peripheral\PIC32MX440F256H_peripherals.a(peripheral.o)
 .text.PLIB_DEVCON_USBPHYSleepModeSet
                0x00000000        0x8 ..\..\..\..\..\..\..\..\..\..\microchip\harmony\v1_07_01\bin\framework\peripheral\PIC32MX440F256H_peripherals.a(peripheral.o)
 .text.PLIB_DEVCON_ExistsUSB_PHY_SleepModeSet
                0x00000000        0x8 ..\..\..\..\..\..\..\..\..\..\microchip\harmony\v1_07_01\bin\framework\peripheral\PIC32MX440F256H_peripherals.a(peripheral.o)
 .text.PLIB_DEVCON_FlashErrCorrectionModeSet
                0x00000000        0x8 ..\..\..\..\..\..\..\..\..\..\microchip\harmony\v1_07_01\bin\framework\peripheral\PIC32MX440F256H_peripherals.a(peripheral.o)
 .text.PLIB_DEVCON_ExistsECCModes
                0x00000000        0x8 ..\..\..\..\..\..\..\..\..\..\microchip\harmony\v1_07_01\bin\framework\peripheral\PIC32MX440F256H_peripherals.a(peripheral.o)
 .text.PLIB_DEVCON_JTAGPortEnable
                0x00000000       0x1c ..\..\..\..\..\..\..\..\..\..\microchip\harmony\v1_07_01\bin\framework\peripheral\PIC32MX440F256H_peripherals.a(peripheral.o)
 .text.PLIB_DEVCON_JTAGPortDisable
                0x00000000       0x20 ..\..\..\..\..\..\..\..\..\..\microchip\harmony\v1_07_01\bin\framework\peripheral\PIC32MX440F256H_peripherals.a(peripheral.o)
 .text.PLIB_DEVCON_ExistsJTAGEnable
                0x00000000        0x8 ..\..\..\..\..\..\..\..\..\..\microchip\harmony\v1_07_01\bin\framework\peripheral\PIC32MX440F256H_peripherals.a(peripheral.o)
 .text.PLIB_DEVCON_AnalogIOChargePumpEnable
                0x00000000        0x8 ..\..\..\..\..\..\..\..\..\..\microchip\harmony\v1_07_01\bin\framework\peripheral\PIC32MX440F256H_peripherals.a(peripheral.o)
 .text.PLIB_DEVCON_AnalogIOChargePumpDisable
                0x00000000        0x8 ..\..\..\..\..\..\..\..\..\..\microchip\harmony\v1_07_01\bin\framework\peripheral\PIC32MX440F256H_peripherals.a(peripheral.o)
 .text.PLIB_DEVCON_ExistsAnalogChargePumpControl
                0x00000000        0x8 ..\..\..\..\..\..\..\..\..\..\microchip\harmony\v1_07_01\bin\framework\peripheral\PIC32MX440F256H_peripherals.a(peripheral.o)
 .text.PLIB_DEVCON_TraceOutputEnable
                0x00000000       0x1c ..\..\..\..\..\..\..\..\..\..\microchip\harmony\v1_07_01\bin\framework\peripheral\PIC32MX440F256H_peripherals.a(peripheral.o)
 .text.PLIB_DEVCON_TraceOutputDisable
                0x00000000       0x20 ..\..\..\..\..\..\..\..\..\..\microchip\harmony\v1_07_01\bin\framework\peripheral\PIC32MX440F256H_peripherals.a(peripheral.o)
 .text.PLIB_DEVCON_ExistsTraceOutput
                0x00000000        0x8 ..\..\..\..\..\..\..\..\..\..\microchip\harmony\v1_07_01\bin\framework\peripheral\PIC32MX440F256H_peripherals.a(peripheral.o)
 .text.PLIB_DEVCON_2WireJTAGEnableTDO
                0x00000000        0x8 ..\..\..\..\..\..\..\..\..\..\microchip\harmony\v1_07_01\bin\framework\peripheral\PIC32MX440F256H_peripherals.a(peripheral.o)
 .text.PLIB_DEVCON_2WireJTAGDisableTDO
                0x00000000        0x8 ..\..\..\..\..\..\..\..\..\..\microchip\harmony\v1_07_01\bin\framework\peripheral\PIC32MX440F256H_peripherals.a(peripheral.o)
 .text.PLIB_DEVCON_ExistsJTAGUsesTDO
                0x00000000        0x8 ..\..\..\..\..\..\..\..\..\..\microchip\harmony\v1_07_01\bin\framework\peripheral\PIC32MX440F256H_peripherals.a(peripheral.o)
 .text.PLIB_DEVCON_IgnoreDebugFreezeEnable
                0x00000000        0x8 ..\..\..\..\..\..\..\..\..\..\microchip\harmony\v1_07_01\bin\framework\peripheral\PIC32MX440F256H_peripherals.a(peripheral.o)
 .text.PLIB_DEVCON_IgnoreDebugFreezeDisable
                0x00000000        0x8 ..\..\..\..\..\..\..\..\..\..\microchip\harmony\v1_07_01\bin\framework\peripheral\PIC32MX440F256H_peripherals.a(peripheral.o)
 .text.PLIB_DEVCON_ExistsIgnoreDebugFreeze
                0x00000000        0x8 ..\..\..\..\..\..\..\..\..\..\microchip\harmony\v1_07_01\bin\framework\peripheral\PIC32MX440F256H_peripherals.a(peripheral.o)
 .text.PLIB_DEVCON_DeviceVersionGet
                0x00000000       0x20 ..\..\..\..\..\..\..\..\..\..\microchip\harmony\v1_07_01\bin\framework\peripheral\PIC32MX440F256H_peripherals.a(peripheral.o)
 .text.PLIB_DEVCON_DeviceIdGet
                0x00000000       0x20 ..\..\..\..\..\..\..\..\..\..\microchip\harmony\v1_07_01\bin\framework\peripheral\PIC32MX440F256H_peripherals.a(peripheral.o)
 .text.PLIB_DEVCON_ExistsDeviceVerAndId
                0x00000000        0x8 ..\..\..\..\..\..\..\..\..\..\microchip\harmony\v1_07_01\bin\framework\peripheral\PIC32MX440F256H_peripherals.a(peripheral.o)
 .text.PLIB_DEVCON_SystemUnlock
                0x00000000       0x2c ..\..\..\..\..\..\..\..\..\..\microchip\harmony\v1_07_01\bin\framework\peripheral\PIC32MX440F256H_peripherals.a(peripheral.o)
 .text.PLIB_DEVCON_SystemLock
                0x00000000       0x1c ..\..\..\..\..\..\..\..\..\..\microchip\harmony\v1_07_01\bin\framework\peripheral\PIC32MX440F256H_peripherals.a(peripheral.o)
 .text.PLIB_DEVCON_ExistsSystemLockUnlock
                0x00000000        0x8 ..\..\..\..\..\..\..\..\..\..\microchip\harmony\v1_07_01\bin\framework\peripheral\PIC32MX440F256H_peripherals.a(peripheral.o)
 .text.PLIB_DEVCON_MPLLIsReady
                0x00000000        0x8 ..\..\..\..\..\..\..\..\..\..\microchip\harmony\v1_07_01\bin\framework\peripheral\PIC32MX440F256H_peripherals.a(peripheral.o)
 .text.PLIB_DEVCON_MPLLEnable
                0x00000000        0x8 ..\..\..\..\..\..\..\..\..\..\microchip\harmony\v1_07_01\bin\framework\peripheral\PIC32MX440F256H_peripherals.a(peripheral.o)
 .text.PLIB_DEVCON_MPLLDisable
                0x00000000        0x8 ..\..\..\..\..\..\..\..\..\..\microchip\harmony\v1_07_01\bin\framework\peripheral\PIC32MX440F256H_peripherals.a(peripheral.o)
 .text.PLIB_DEVCON_MPLLODiv1Set
                0x00000000        0x8 ..\..\..\..\..\..\..\..\..\..\microchip\harmony\v1_07_01\bin\framework\peripheral\PIC32MX440F256H_peripherals.a(peripheral.o)
 .text.PLIB_DEVCON_MPLLODiv2Set
                0x00000000        0x8 ..\..\..\..\..\..\..\..\..\..\microchip\harmony\v1_07_01\bin\framework\peripheral\PIC32MX440F256H_peripherals.a(peripheral.o)
 .text.PLIB_DEVCON_MPLLVregIsReady
                0x00000000        0x8 ..\..\..\..\..\..\..\..\..\..\microchip\harmony\v1_07_01\bin\framework\peripheral\PIC32MX440F256H_peripherals.a(peripheral.o)
 .text.PLIB_DEVCON_MPLLVregEnable
                0x00000000        0x8 ..\..\..\..\..\..\..\..\..\..\microchip\harmony\v1_07_01\bin\framework\peripheral\PIC32MX440F256H_peripherals.a(peripheral.o)
 .text.PLIB_DEVCON_MPLLVregDisable
                0x00000000        0x8 ..\..\..\..\..\..\..\..\..\..\microchip\harmony\v1_07_01\bin\framework\peripheral\PIC32MX440F256H_peripherals.a(peripheral.o)
 .text.PLIB_DEVCON_MPLLMultiplierSet
                0x00000000        0x8 ..\..\..\..\..\..\..\..\..\..\microchip\harmony\v1_07_01\bin\framework\peripheral\PIC32MX440F256H_peripherals.a(peripheral.o)
 .text.PLIB_DEVCON_MPLLVrefSet
                0x00000000        0x8 ..\..\..\..\..\..\..\..\..\..\microchip\harmony\v1_07_01\bin\framework\peripheral\PIC32MX440F256H_peripherals.a(peripheral.o)
 .text.PLIB_DEVCON_MPLLInputDivSet
                0x00000000        0x8 ..\..\..\..\..\..\..\..\..\..\microchip\harmony\v1_07_01\bin\framework\peripheral\PIC32MX440F256H_peripherals.a(peripheral.o)
 .text.PLIB_DEVCON_ExistsMPLL
                0x00000000        0x8 ..\..\..\..\..\..\..\..\..\..\microchip\harmony\v1_07_01\bin\framework\peripheral\PIC32MX440F256H_peripherals.a(peripheral.o)
 .text.PLIB_DEVCON_HSUARTEnable
                0x00000000        0x8 ..\..\..\..\..\..\..\..\..\..\microchip\harmony\v1_07_01\bin\framework\peripheral\PIC32MX440F256H_peripherals.a(peripheral.o)
 .text.PLIB_DEVCON_HSUARTDisable
                0x00000000        0x8 ..\..\..\..\..\..\..\..\..\..\microchip\harmony\v1_07_01\bin\framework\peripheral\PIC32MX440F256H_peripherals.a(peripheral.o)
 .text.PLIB_DEVCON_ExistsHSUARTControl
                0x00000000        0x8 ..\..\..\..\..\..\..\..\..\..\microchip\harmony\v1_07_01\bin\framework\peripheral\PIC32MX440F256H_peripherals.a(peripheral.o)
 .text.PLIB_DEVCON_BootIPFSelect
                0x00000000        0x8 ..\..\..\..\..\..\..\..\..\..\microchip\harmony\v1_07_01\bin\framework\peripheral\PIC32MX440F256H_peripherals.a(peripheral.o)
 .text.PLIB_DEVCON_BootExtSelect
                0x00000000        0x8 ..\..\..\..\..\..\..\..\..\..\microchip\harmony\v1_07_01\bin\framework\peripheral\PIC32MX440F256H_peripherals.a(peripheral.o)
 .text.PLIB_DEVCON_ExistsBootSelection
                0x00000000        0x8 ..\..\..\..\..\..\..\..\..\..\microchip\harmony\v1_07_01\bin\framework\peripheral\PIC32MX440F256H_peripherals.a(peripheral.o)
 .text.PLIB_DDR_MinLimit
                0x00000000        0x8 ..\..\..\..\..\..\..\..\..\..\microchip\harmony\v1_07_01\bin\framework\peripheral\PIC32MX440F256H_peripherals.a(peripheral.o)
 .text.PLIB_DDR_ReqPeriod
                0x00000000        0x8 ..\..\..\..\..\..\..\..\..\..\microchip\harmony\v1_07_01\bin\framework\peripheral\PIC32MX440F256H_peripherals.a(peripheral.o)
 .text.PLIB_DDR_MinCommand
                0x00000000        0x8 ..\..\..\..\..\..\..\..\..\..\microchip\harmony\v1_07_01\bin\framework\peripheral\PIC32MX440F256H_peripherals.a(peripheral.o)
 .text.PLIB_DDR_ExistsArbitrationControl
                0x00000000        0x8 ..\..\..\..\..\..\..\..\..\..\microchip\harmony\v1_07_01\bin\framework\peripheral\PIC32MX440F256H_peripherals.a(peripheral.o)
 .text.PLIB_DDR_RowAddressSet
                0x00000000        0x8 ..\..\..\..\..\..\..\..\..\..\microchip\harmony\v1_07_01\bin\framework\peripheral\PIC32MX440F256H_peripherals.a(peripheral.o)
 .text.PLIB_DDR_ColumnAddressSet
                0x00000000        0x8 ..\..\..\..\..\..\..\..\..\..\microchip\harmony\v1_07_01\bin\framework\peripheral\PIC32MX440F256H_peripherals.a(peripheral.o)
 .text.PLIB_DDR_BankAddressSet
                0x00000000        0x8 ..\..\..\..\..\..\..\..\..\..\microchip\harmony\v1_07_01\bin\framework\peripheral\PIC32MX440F256H_peripherals.a(peripheral.o)
 .text.PLIB_DDR_ChipSelectAddressSet
                0x00000000        0x8 ..\..\..\..\..\..\..\..\..\..\microchip\harmony\v1_07_01\bin\framework\peripheral\PIC32MX440F256H_peripherals.a(peripheral.o)
 .text.PLIB_DDR_ExistsAddressMapping
                0x00000000        0x8 ..\..\..\..\..\..\..\..\..\..\microchip\harmony\v1_07_01\bin\framework\peripheral\PIC32MX440F256H_peripherals.a(peripheral.o)
 .text.PLIB_DDR_RefreshTimingSet
                0x00000000        0x8 ..\..\..\..\..\..\..\..\..\..\microchip\harmony\v1_07_01\bin\framework\peripheral\PIC32MX440F256H_peripherals.a(peripheral.o)
 .text.PLIB_DDR_MaxPendingRefSet
                0x00000000        0x8 ..\..\..\..\..\..\..\..\..\..\microchip\harmony\v1_07_01\bin\framework\peripheral\PIC32MX440F256H_peripherals.a(peripheral.o)
 .text.PLIB_DDR_ExistsRefreshConfig
                0x00000000        0x8 ..\..\..\..\..\..\..\..\..\..\microchip\harmony\v1_07_01\bin\framework\peripheral\PIC32MX440F256H_peripherals.a(peripheral.o)
 .text.PLIB_DDR_AutoPowerDownEnable
                0x00000000        0x8 ..\..\..\..\..\..\..\..\..\..\microchip\harmony\v1_07_01\bin\framework\peripheral\PIC32MX440F256H_peripherals.a(peripheral.o)
 .text.PLIB_DDR_AutoPowerDownDisable
                0x00000000        0x8 ..\..\..\..\..\..\..\..\..\..\microchip\harmony\v1_07_01\bin\framework\peripheral\PIC32MX440F256H_peripherals.a(peripheral.o)
 .text.PLIB_DDR_ExistsAutoPowerDown
                0x00000000        0x8 ..\..\..\..\..\..\..\..\..\..\microchip\harmony\v1_07_01\bin\framework\peripheral\PIC32MX440F256H_peripherals.a(peripheral.o)
 .text.PLIB_DDR_AutoSelfRefreshEnable
                0x00000000        0x8 ..\..\..\..\..\..\..\..\..\..\microchip\harmony\v1_07_01\bin\framework\peripheral\PIC32MX440F256H_peripherals.a(peripheral.o)
 .text.PLIB_DDR_AutoSelfRefreshDisable
                0x00000000        0x8 ..\..\..\..\..\..\..\..\..\..\microchip\harmony\v1_07_01\bin\framework\peripheral\PIC32MX440F256H_peripherals.a(peripheral.o)
 .text.PLIB_DDR_ExistsAutoSelfRefresh
                0x00000000        0x8 ..\..\..\..\..\..\..\..\..\..\microchip\harmony\v1_07_01\bin\framework\peripheral\PIC32MX440F256H_peripherals.a(peripheral.o)
 .text.PLIB_DDR_AutoPchrgEnable
                0x00000000        0x8 ..\..\..\..\..\..\..\..\..\..\microchip\harmony\v1_07_01\bin\framework\peripheral\PIC32MX440F256H_peripherals.a(peripheral.o)
 .text.PLIB_DDR_AutoPchrgDisable
                0x00000000        0x8 ..\..\..\..\..\..\..\..\..\..\microchip\harmony\v1_07_01\bin\framework\peripheral\PIC32MX440F256H_peripherals.a(peripheral.o)
 .text.PLIB_DDR_AutoPchrgPowerDownEnable
                0x00000000        0x8 ..\..\..\..\..\..\..\..\..\..\microchip\harmony\v1_07_01\bin\framework\peripheral\PIC32MX440F256H_peripherals.a(peripheral.o)
 .text.PLIB_DDR_AutoPchrgPowerDownDisable
                0x00000000        0x8 ..\..\..\..\..\..\..\..\..\..\microchip\harmony\v1_07_01\bin\framework\peripheral\PIC32MX440F256H_peripherals.a(peripheral.o)
 .text.PLIB_DDR_ExistsAutoPrecharge
                0x00000000        0x8 ..\..\..\..\..\..\..\..\..\..\microchip\harmony\v1_07_01\bin\framework\peripheral\PIC32MX440F256H_peripherals.a(peripheral.o)
 .text.PLIB_DDR_ReadWriteDelaySet
                0x00000000        0x8 ..\..\..\..\..\..\..\..\..\..\microchip\harmony\v1_07_01\bin\framework\peripheral\PIC32MX440F256H_peripherals.a(peripheral.o)
 .text.PLIB_DDR_WriteReadDelaySet
                0x00000000        0x8 ..\..\..\..\..\..\..\..\..\..\microchip\harmony\v1_07_01\bin\framework\peripheral\PIC32MX440F256H_peripherals.a(peripheral.o)
 .text.PLIB_DDR_ReadReadDelaySet
                0x00000000        0x8 ..\..\..\..\..\..\..\..\..\..\microchip\harmony\v1_07_01\bin\framework\peripheral\PIC32MX440F256H_peripherals.a(peripheral.o)
 .text.PLIB_DDR_WriteWriteDelaySet
                0x00000000        0x8 ..\..\..\..\..\..\..\..\..\..\microchip\harmony\v1_07_01\bin\framework\peripheral\PIC32MX440F256H_peripherals.a(peripheral.o)
 .text.PLIB_DDR_SelfRefreshDelaySet
                0x00000000        0x8 ..\..\..\..\..\..\..\..\..\..\microchip\harmony\v1_07_01\bin\framework\peripheral\PIC32MX440F256H_peripherals.a(peripheral.o)
 .text.PLIB_DDR_PowerDownDelaySet
                0x00000000        0x8 ..\..\..\..\..\..\..\..\..\..\microchip\harmony\v1_07_01\bin\framework\peripheral\PIC32MX440F256H_peripherals.a(peripheral.o)
 .text.PLIB_DDR_PrechargAllBanksSet
                0x00000000        0x8 ..\..\..\..\..\..\..\..\..\..\microchip\harmony\v1_07_01\bin\framework\peripheral\PIC32MX440F256H_peripherals.a(peripheral.o)
 .text.PLIB_DDR_ReadToPrechargeDelaySet
                0x00000000        0x8 ..\..\..\..\..\..\..\..\..\..\microchip\harmony\v1_07_01\bin\framework\peripheral\PIC32MX440F256H_peripherals.a(peripheral.o)
 .text.PLIB_DDR_WriteToPrechargeDelaySet
                0x00000000        0x8 ..\..\..\..\..\..\..\..\..\..\microchip\harmony\v1_07_01\bin\framework\peripheral\PIC32MX440F256H_peripherals.a(peripheral.o)
 .text.PLIB_DDR_PrechargeToRASDelaySet
                0x00000000        0x8 ..\..\..\..\..\..\..\..\..\..\microchip\harmony\v1_07_01\bin\framework\peripheral\PIC32MX440F256H_peripherals.a(peripheral.o)
 .text.PLIB_DDR_RASToPrechargeDelaySet
                0x00000000        0x8 ..\..\..\..\..\..\..\..\..\..\microchip\harmony\v1_07_01\bin\framework\peripheral\PIC32MX440F256H_peripherals.a(peripheral.o)
 .text.PLIB_DDR_RASToRASBankDelaySet
                0x00000000        0x8 ..\..\..\..\..\..\..\..\..\..\microchip\harmony\v1_07_01\bin\framework\peripheral\PIC32MX440F256H_peripherals.a(peripheral.o)
 .text.PLIB_DDR_RASToRASDelaySet
                0x00000000        0x8 ..\..\..\..\..\..\..\..\..\..\microchip\harmony\v1_07_01\bin\framework\peripheral\PIC32MX440F256H_peripherals.a(peripheral.o)
 .text.PLIB_DDR_RASToCASDelaySet
                0x00000000        0x8 ..\..\..\..\..\..\..\..\..\..\microchip\harmony\v1_07_01\bin\framework\peripheral\PIC32MX440F256H_peripherals.a(peripheral.o)
 .text.PLIB_DDR_DataDelaySet
                0x00000000        0x8 ..\..\..\..\..\..\..\..\..\..\microchip\harmony\v1_07_01\bin\framework\peripheral\PIC32MX440F256H_peripherals.a(peripheral.o)
 .text.PLIB_DDR_TfawDelaySet
                0x00000000        0x8 ..\..\..\..\..\..\..\..\..\..\microchip\harmony\v1_07_01\bin\framework\peripheral\PIC32MX440F256H_peripherals.a(peripheral.o)
 .text.PLIB_DDR_ExistsTimingDelays
                0x00000000        0x8 ..\..\..\..\..\..\..\..\..\..\microchip\harmony\v1_07_01\bin\framework\peripheral\PIC32MX440F256H_peripherals.a(peripheral.o)
 .text.PLIB_DDR_OdtReadEnable
                0x00000000        0x8 ..\..\..\..\..\..\..\..\..\..\microchip\harmony\v1_07_01\bin\framework\peripheral\PIC32MX440F256H_peripherals.a(peripheral.o)
 .text.PLIB_DDR_OdtReadDisable
                0x00000000        0x8 ..\..\..\..\..\..\..\..\..\..\microchip\harmony\v1_07_01\bin\framework\peripheral\PIC32MX440F256H_peripherals.a(peripheral.o)
 .text.PLIB_DDR_OdtWriteEnable
                0x00000000        0x8 ..\..\..\..\..\..\..\..\..\..\microchip\harmony\v1_07_01\bin\framework\peripheral\PIC32MX440F256H_peripherals.a(peripheral.o)
 .text.PLIB_DDR_OdtWriteDisable
                0x00000000        0x8 ..\..\..\..\..\..\..\..\..\..\microchip\harmony\v1_07_01\bin\framework\peripheral\PIC32MX440F256H_peripherals.a(peripheral.o)
 .text.PLIB_DDR_OdtWriteParamSet
                0x00000000        0x8 ..\..\..\..\..\..\..\..\..\..\microchip\harmony\v1_07_01\bin\framework\peripheral\PIC32MX440F256H_peripherals.a(peripheral.o)
 .text.PLIB_DDR_OdtReadParamSet
                0x00000000        0x8 ..\..\..\..\..\..\..\..\..\..\microchip\harmony\v1_07_01\bin\framework\peripheral\PIC32MX440F256H_peripherals.a(peripheral.o)
 .text.PLIB_DDR_ExistsODTConfig
                0x00000000        0x8 ..\..\..\..\..\..\..\..\..\..\microchip\harmony\v1_07_01\bin\framework\peripheral\PIC32MX440F256H_peripherals.a(peripheral.o)
 .text.PLIB_DDR_BigEndianSet
                0x00000000        0x8 ..\..\..\..\..\..\..\..\..\..\microchip\harmony\v1_07_01\bin\framework\peripheral\PIC32MX440F256H_peripherals.a(peripheral.o)
 .text.PLIB_DDR_LittleEndianSet
                0x00000000        0x8 ..\..\..\..\..\..\..\..\..\..\microchip\harmony\v1_07_01\bin\framework\peripheral\PIC32MX440F256H_peripherals.a(peripheral.o)
 .text.PLIB_DDR_FullRateSet
                0x00000000        0x8 ..\..\..\..\..\..\..\..\..\..\microchip\harmony\v1_07_01\bin\framework\peripheral\PIC32MX440F256H_peripherals.a(peripheral.o)
 .text.PLIB_DDR_HalfRateSet
                0x00000000        0x8 ..\..\..\..\..\..\..\..\..\..\microchip\harmony\v1_07_01\bin\framework\peripheral\PIC32MX440F256H_peripherals.a(peripheral.o)
 .text.PLIB_DDR_ExistsDDRControllerConfig
                0x00000000        0x8 ..\..\..\..\..\..\..\..\..\..\microchip\harmony\v1_07_01\bin\framework\peripheral\PIC32MX440F256H_peripherals.a(peripheral.o)
 .text.PLIB_DDR_MaxCmdBrstCntSet
                0x00000000        0x8 ..\..\..\..\..\..\..\..\..\..\microchip\harmony\v1_07_01\bin\framework\peripheral\PIC32MX440F256H_peripherals.a(peripheral.o)
 .text.PLIB_DDR_NumHostCmdsSet
                0x00000000        0x8 ..\..\..\..\..\..\..\..\..\..\microchip\harmony\v1_07_01\bin\framework\peripheral\PIC32MX440F256H_peripherals.a(peripheral.o)
 .text.PLIB_DDR_CmdDataWrite
                0x00000000        0x8 ..\..\..\..\..\..\..\..\..\..\microchip\harmony\v1_07_01\bin\framework\peripheral\PIC32MX440F256H_peripherals.a(peripheral.o)
 .text.PLIB_DDR_CmdDataValid
                0x00000000        0x8 ..\..\..\..\..\..\..\..\..\..\microchip\harmony\v1_07_01\bin\framework\peripheral\PIC32MX440F256H_peripherals.a(peripheral.o)
 .text.PLIB_DDR_CmdDataSend
                0x00000000        0x8 ..\..\..\..\..\..\..\..\..\..\microchip\harmony\v1_07_01\bin\framework\peripheral\PIC32MX440F256H_peripherals.a(peripheral.o)
 .text.PLIB_DDR_CmdDataIsComplete
                0x00000000        0x8 ..\..\..\..\..\..\..\..\..\..\microchip\harmony\v1_07_01\bin\framework\peripheral\PIC32MX440F256H_peripherals.a(peripheral.o)
 .text.PLIB_DDR_ControllerEnable
                0x00000000        0x8 ..\..\..\..\..\..\..\..\..\..\microchip\harmony\v1_07_01\bin\framework\peripheral\PIC32MX440F256H_peripherals.a(peripheral.o)
 .text.PLIB_DDR_ExistsDDRCommands
                0x00000000        0x8 ..\..\..\..\..\..\..\..\..\..\microchip\harmony\v1_07_01\bin\framework\peripheral\PIC32MX440F256H_peripherals.a(peripheral.o)
 .text.PLIB_DDR_PHY_OdtEnable
                0x00000000        0x8 ..\..\..\..\..\..\..\..\..\..\microchip\harmony\v1_07_01\bin\framework\peripheral\PIC32MX440F256H_peripherals.a(peripheral.o)
 .text.PLIB_DDR_PHY_OdtDisable
                0x00000000        0x8 ..\..\..\..\..\..\..\..\..\..\microchip\harmony\v1_07_01\bin\framework\peripheral\PIC32MX440F256H_peripherals.a(peripheral.o)
 .text.PLIB_DDR_PHY_DriveStrengthSet
                0x00000000        0x8 ..\..\..\..\..\..\..\..\..\..\microchip\harmony\v1_07_01\bin\framework\peripheral\PIC32MX440F256H_peripherals.a(peripheral.o)
 .text.PLIB_DDR_PHY_OdtCal
                0x00000000        0x8 ..\..\..\..\..\..\..\..\..\..\microchip\harmony\v1_07_01\bin\framework\peripheral\PIC32MX440F256H_peripherals.a(peripheral.o)
 .text.PLIB_DDR_PHY_DrvStrgthCal
                0x00000000        0x8 ..\..\..\..\..\..\..\..\..\..\microchip\harmony\v1_07_01\bin\framework\peripheral\PIC32MX440F256H_peripherals.a(peripheral.o)
 .text.PLIB_DDR_PHY_ExtraClockEnable
                0x00000000        0x8 ..\..\..\..\..\..\..\..\..\..\microchip\harmony\v1_07_01\bin\framework\peripheral\PIC32MX440F256H_peripherals.a(peripheral.o)
 .text.PLIB_DDR_PHY_ExtraClockDisable
                0x00000000        0x8 ..\..\..\..\..\..\..\..\..\..\microchip\harmony\v1_07_01\bin\framework\peripheral\PIC32MX440F256H_peripherals.a(peripheral.o)
 .text.PLIB_DDR_PHY_InternalDllEnable
                0x00000000        0x8 ..\..\..\..\..\..\..\..\..\..\microchip\harmony\v1_07_01\bin\framework\peripheral\PIC32MX440F256H_peripherals.a(peripheral.o)
 .text.PLIB_DDR_PHY_ExternalDllEnable
                0x00000000        0x8 ..\..\..\..\..\..\..\..\..\..\microchip\harmony\v1_07_01\bin\framework\peripheral\PIC32MX440F256H_peripherals.a(peripheral.o)
 .text.PLIB_DDR_PHY_PadReceiveEnable
                0x00000000        0x8 ..\..\..\..\..\..\..\..\..\..\microchip\harmony\v1_07_01\bin\framework\peripheral\PIC32MX440F256H_peripherals.a(peripheral.o)
 .text.PLIB_DDR_PHY_PadReceiveDisable
                0x00000000        0x8 ..\..\..\..\..\..\..\..\..\..\microchip\harmony\v1_07_01\bin\framework\peripheral\PIC32MX440F256H_peripherals.a(peripheral.o)
 .text.PLIB_DDR_PHY_PreambleDlySet
                0x00000000        0x8 ..\..\..\..\..\..\..\..\..\..\microchip\harmony\v1_07_01\bin\framework\peripheral\PIC32MX440F256H_peripherals.a(peripheral.o)
 .text.PLIB_DDR_ExistsPHY_PadConfig
                0x00000000        0x8 ..\..\..\..\..\..\..\..\..\..\microchip\harmony\v1_07_01\bin\framework\peripheral\PIC32MX440F256H_peripherals.a(peripheral.o)
 .text.PLIB_DDR_PHY_DllRecalibEnable
                0x00000000        0x8 ..\..\..\..\..\..\..\..\..\..\microchip\harmony\v1_07_01\bin\framework\peripheral\PIC32MX440F256H_peripherals.a(peripheral.o)
 .text.PLIB_DDR_PHY_DllRecalibDisable
                0x00000000        0x8 ..\..\..\..\..\..\..\..\..\..\microchip\harmony\v1_07_01\bin\framework\peripheral\PIC32MX440F256H_peripherals.a(peripheral.o)
 .text.PLIB_DDR_PHY_DllMasterDelayStartSet
                0x00000000        0x8 ..\..\..\..\..\..\..\..\..\..\microchip\harmony\v1_07_01\bin\framework\peripheral\PIC32MX440F256H_peripherals.a(peripheral.o)
 .text.PLIB_DDR_ExistsPHY_DLLCalibration
                0x00000000        0x8 ..\..\..\..\..\..\..\..\..\..\microchip\harmony\v1_07_01\bin\framework\peripheral\PIC32MX440F256H_peripherals.a(peripheral.o)
 .text.PLIB_DDR_PHY_SCLTestBurstModeSet
                0x00000000        0x8 ..\..\..\..\..\..\..\..\..\..\microchip\harmony\v1_07_01\bin\framework\peripheral\PIC32MX440F256H_peripherals.a(peripheral.o)
 .text.PLIB_DDR_PHY_DDRTypeSet
                0x00000000        0x8 ..\..\..\..\..\..\..\..\..\..\microchip\harmony\v1_07_01\bin\framework\peripheral\PIC32MX440F256H_peripherals.a(peripheral.o)
 .text.PLIB_DDR_PHY_ReadCASLatencySet
                0x00000000        0x8 ..\..\..\..\..\..\..\..\..\..\microchip\harmony\v1_07_01\bin\framework\peripheral\PIC32MX440F256H_peripherals.a(peripheral.o)
 .text.PLIB_DDR_PHY_WriteCASLatencySet
                0x00000000        0x8 ..\..\..\..\..\..\..\..\..\..\microchip\harmony\v1_07_01\bin\framework\peripheral\PIC32MX440F256H_peripherals.a(peripheral.o)
 .text.PLIB_DDR_PHY_OdtCSEnable
                0x00000000        0x8 ..\..\..\..\..\..\..\..\..\..\microchip\harmony\v1_07_01\bin\framework\peripheral\PIC32MX440F256H_peripherals.a(peripheral.o)
 .text.PLIB_DDR_PHY_OdtCSDisable
                0x00000000        0x8 ..\..\..\..\..\..\..\..\..\..\microchip\harmony\v1_07_01\bin\framework\peripheral\PIC32MX440F256H_peripherals.a(peripheral.o)
 .text.PLIB_DDR_PHY_SCLDelay
                0x00000000        0x8 ..\..\..\..\..\..\..\..\..\..\microchip\harmony\v1_07_01\bin\framework\peripheral\PIC32MX440F256H_peripherals.a(peripheral.o)
 .text.PLIB_DDR_PHY_SCLEnable
                0x00000000        0x8 ..\..\..\..\..\..\..\..\..\..\microchip\harmony\v1_07_01\bin\framework\peripheral\PIC32MX440F256H_peripherals.a(peripheral.o)
 .text.PLIB_DDR_PHY_SCLDDRClkDelaySet
                0x00000000        0x8 ..\..\..\..\..\..\..\..\..\..\microchip\harmony\v1_07_01\bin\framework\peripheral\PIC32MX440F256H_peripherals.a(peripheral.o)
 .text.PLIB_DDR_PHY_SCLCapClkDelaySet
                0x00000000        0x8 ..\..\..\..\..\..\..\..\..\..\microchip\harmony\v1_07_01\bin\framework\peripheral\PIC32MX440F256H_peripherals.a(peripheral.o)
 .text.PLIB_DDR_ExistsPHY_SCLConfig
                0x00000000        0x8 ..\..\..\..\..\..\..\..\..\..\microchip\harmony\v1_07_01\bin\framework\peripheral\PIC32MX440F256H_peripherals.a(peripheral.o)
 .text.PLIB_DMA_ExistsBusy
                0x00000000        0x8 ..\..\..\..\..\..\..\..\..\..\microchip\harmony\v1_07_01\bin\framework\peripheral\PIC32MX440F256H_peripherals.a(peripheral.o)
 .text.PLIB_DMA_BusyActiveSet
                0x00000000        0x8 ..\..\..\..\..\..\..\..\..\..\microchip\harmony\v1_07_01\bin\framework\peripheral\PIC32MX440F256H_peripherals.a(peripheral.o)
 .text.PLIB_DMA_BusyActiveReset
                0x00000000        0x8 ..\..\..\..\..\..\..\..\..\..\microchip\harmony\v1_07_01\bin\framework\peripheral\PIC32MX440F256H_peripherals.a(peripheral.o)
 .text.PLIB_DMA_IsBusy
                0x00000000        0x8 ..\..\..\..\..\..\..\..\..\..\microchip\harmony\v1_07_01\bin\framework\peripheral\PIC32MX440F256H_peripherals.a(peripheral.o)
 .text.PLIB_DMA_ExistsSuspend
                0x00000000        0x8 ..\..\..\..\..\..\..\..\..\..\microchip\harmony\v1_07_01\bin\framework\peripheral\PIC32MX440F256H_peripherals.a(peripheral.o)
 .text.PLIB_DMA_SuspendEnable
                0x00000000       0x1c ..\..\..\..\..\..\..\..\..\..\microchip\harmony\v1_07_01\bin\framework\peripheral\PIC32MX440F256H_peripherals.a(peripheral.o)
 .text.PLIB_DMA_SuspendDisable
                0x00000000       0x1c ..\..\..\..\..\..\..\..\..\..\microchip\harmony\v1_07_01\bin\framework\peripheral\PIC32MX440F256H_peripherals.a(peripheral.o)
 .text.PLIB_DMA_SuspendIsEnabled
                0x00000000       0x20 ..\..\..\..\..\..\..\..\..\..\microchip\harmony\v1_07_01\bin\framework\peripheral\PIC32MX440F256H_peripherals.a(peripheral.o)
 .text.PLIB_DMA_ExistsStopInIdle
                0x00000000        0x8 ..\..\..\..\..\..\..\..\..\..\microchip\harmony\v1_07_01\bin\framework\peripheral\PIC32MX440F256H_peripherals.a(peripheral.o)
 .text.PLIB_DMA_StopInIdleEnable
                0x00000000       0x1c ..\..\..\..\..\..\..\..\..\..\microchip\harmony\v1_07_01\bin\framework\peripheral\PIC32MX440F256H_peripherals.a(peripheral.o)
 .text.PLIB_DMA_StopInIdleDisable
                0x00000000       0x1c ..\..\..\..\..\..\..\..\..\..\microchip\harmony\v1_07_01\bin\framework\peripheral\PIC32MX440F256H_peripherals.a(peripheral.o)
 .text.PLIB_DMA_ExistsEnableControl
                0x00000000        0x8 ..\..\..\..\..\..\..\..\..\..\microchip\harmony\v1_07_01\bin\framework\peripheral\PIC32MX440F256H_peripherals.a(peripheral.o)
 .text.PLIB_DMA_Enable
                0x00000000       0x1c ..\..\..\..\..\..\..\..\..\..\microchip\harmony\v1_07_01\bin\framework\peripheral\PIC32MX440F256H_peripherals.a(peripheral.o)
 .text.PLIB_DMA_Disable
                0x00000000       0x1c ..\..\..\..\..\..\..\..\..\..\microchip\harmony\v1_07_01\bin\framework\peripheral\PIC32MX440F256H_peripherals.a(peripheral.o)
 .text.PLIB_DMA_IsEnabled
                0x00000000       0x20 ..\..\..\..\..\..\..\..\..\..\microchip\harmony\v1_07_01\bin\framework\peripheral\PIC32MX440F256H_peripherals.a(peripheral.o)
 .text.PLIB_DMA_ExistsChannelBits
                0x00000000        0x8 ..\..\..\..\..\..\..\..\..\..\microchip\harmony\v1_07_01\bin\framework\peripheral\PIC32MX440F256H_peripherals.a(peripheral.o)
 .text.PLIB_DMA_ChannelBitsGet
                0x00000000       0x20 ..\..\..\..\..\..\..\..\..\..\microchip\harmony\v1_07_01\bin\framework\peripheral\PIC32MX440F256H_peripherals.a(peripheral.o)
 .text.PLIB_DMA_ExistsLastBusAccess
                0x00000000        0x8 ..\..\..\..\..\..\..\..\..\..\microchip\harmony\v1_07_01\bin\framework\peripheral\PIC32MX440F256H_peripherals.a(peripheral.o)
 .text.PLIB_DMA_LastBusAccessIsRead
                0x00000000       0x20 ..\..\..\..\..\..\..\..\..\..\microchip\harmony\v1_07_01\bin\framework\peripheral\PIC32MX440F256H_peripherals.a(peripheral.o)
 .text.PLIB_DMA_LastBusAccessIsWrite
                0x00000000       0x24 ..\..\..\..\..\..\..\..\..\..\microchip\harmony\v1_07_01\bin\framework\peripheral\PIC32MX440F256H_peripherals.a(peripheral.o)
 .text.PLIB_DMA_ExistsRecentAddress
                0x00000000        0x8 ..\..\..\..\..\..\..\..\..\..\microchip\harmony\v1_07_01\bin\framework\peripheral\PIC32MX440F256H_peripherals.a(peripheral.o)
 .text.PLIB_DMA_RecentAddressAccessed
                0x00000000       0x24 ..\..\..\..\..\..\..\..\..\..\microchip\harmony\v1_07_01\bin\framework\peripheral\PIC32MX440F256H_peripherals.a(peripheral.o)
 .text.PLIB_DMA_ExistsCRCChannel
                0x00000000        0x8 ..\..\..\..\..\..\..\..\..\..\microchip\harmony\v1_07_01\bin\framework\peripheral\PIC32MX440F256H_peripherals.a(peripheral.o)
 .text.PLIB_DMA_CRCChannelSelect
                0x00000000       0x28 ..\..\..\..\..\..\..\..\..\..\microchip\harmony\v1_07_01\bin\framework\peripheral\PIC32MX440F256H_peripherals.a(peripheral.o)
 .text.PLIB_DMA_CRCChannelGet
                0x00000000       0x20 ..\..\..\..\..\..\..\..\..\..\microchip\harmony\v1_07_01\bin\framework\peripheral\PIC32MX440F256H_peripherals.a(peripheral.o)
 .text.PLIB_DMA_ExistsCRCType
                0x00000000        0x8 ..\..\..\..\..\..\..\..\..\..\microchip\harmony\v1_07_01\bin\framework\peripheral\PIC32MX440F256H_peripherals.a(peripheral.o)
 .text.PLIB_DMA_CRCTypeGet
                0x00000000        0x8 ..\..\..\..\..\..\..\..\..\..\microchip\harmony\v1_07_01\bin\framework\peripheral\PIC32MX440F256H_peripherals.a(peripheral.o)
 .text.PLIB_DMA_CRCTypeSet
                0x00000000        0x8 ..\..\..\..\..\..\..\..\..\..\microchip\harmony\v1_07_01\bin\framework\peripheral\PIC32MX440F256H_peripherals.a(peripheral.o)
 .text.PLIB_DMA_ExistsCRCAppendMode
                0x00000000        0x8 ..\..\..\..\..\..\..\..\..\..\microchip\harmony\v1_07_01\bin\framework\peripheral\PIC32MX440F256H_peripherals.a(peripheral.o)
 .text.PLIB_DMA_CRCAppendModeEnable
                0x00000000       0x1c ..\..\..\..\..\..\..\..\..\..\microchip\harmony\v1_07_01\bin\framework\peripheral\PIC32MX440F256H_peripherals.a(peripheral.o)
 .text.PLIB_DMA_CRCAppendModeDisable
                0x00000000       0x1c ..\..\..\..\..\..\..\..\..\..\microchip\harmony\v1_07_01\bin\framework\peripheral\PIC32MX440F256H_peripherals.a(peripheral.o)
 .text.PLIB_DMA_CRCAppendModeIsEnabled
                0x00000000       0x20 ..\..\..\..\..\..\..\..\..\..\microchip\harmony\v1_07_01\bin\framework\peripheral\PIC32MX440F256H_peripherals.a(peripheral.o)
 .text.PLIB_DMA_ExistsCRC
                0x00000000        0x8 ..\..\..\..\..\..\..\..\..\..\microchip\harmony\v1_07_01\bin\framework\peripheral\PIC32MX440F256H_peripherals.a(peripheral.o)
 .text.PLIB_DMA_CRCEnable
                0x00000000       0x1c ..\..\..\..\..\..\..\..\..\..\microchip\harmony\v1_07_01\bin\framework\peripheral\PIC32MX440F256H_peripherals.a(peripheral.o)
 .text.PLIB_DMA_CRCDisable
                0x00000000       0x1c ..\..\..\..\..\..\..\..\..\..\microchip\harmony\v1_07_01\bin\framework\peripheral\PIC32MX440F256H_peripherals.a(peripheral.o)
 .text.PLIB_DMA_CRCIsEnabled
                0x00000000       0x20 ..\..\..\..\..\..\..\..\..\..\microchip\harmony\v1_07_01\bin\framework\peripheral\PIC32MX440F256H_peripherals.a(peripheral.o)
 .text.PLIB_DMA_ExistsCRCPolynomialLength
                0x00000000        0x8 ..\..\..\..\..\..\..\..\..\..\microchip\harmony\v1_07_01\bin\framework\peripheral\PIC32MX440F256H_peripherals.a(peripheral.o)
 .text.PLIB_DMA_CRCPolynomialLengthSet
                0x00000000       0x30 ..\..\..\..\..\..\..\..\..\..\microchip\harmony\v1_07_01\bin\framework\peripheral\PIC32MX440F256H_peripherals.a(peripheral.o)
 .text.PLIB_DMA_CRCPolynomialLengthGet
                0x00000000       0x20 ..\..\..\..\..\..\..\..\..\..\microchip\harmony\v1_07_01\bin\framework\peripheral\PIC32MX440F256H_peripherals.a(peripheral.o)
 .text.PLIB_DMA_ExistsCRCBitOrder
                0x00000000        0x8 ..\..\..\..\..\..\..\..\..\..\microchip\harmony\v1_07_01\bin\framework\peripheral\PIC32MX440F256H_peripherals.a(peripheral.o)
 .text.PLIB_DMA_CRCBitOrderSelect
                0x00000000        0x8 ..\..\..\..\..\..\..\..\..\..\microchip\harmony\v1_07_01\bin\framework\peripheral\PIC32MX440F256H_peripherals.a(peripheral.o)
 .text.PLIB_DMA_ExistsCRCWriteByteOrder
                0x00000000        0x8 ..\..\..\..\..\..\..\..\..\..\microchip\harmony\v1_07_01\bin\framework\peripheral\PIC32MX440F256H_peripherals.a(peripheral.o)
 .text.PLIB_DMA_CRCWriteByteOrderAlter
                0x00000000        0x8 ..\..\..\..\..\..\..\..\..\..\microchip\harmony\v1_07_01\bin\framework\peripheral\PIC32MX440F256H_peripherals.a(peripheral.o)
 .text.PLIB_DMA_CRCWriteByteOrderMaintain
                0x00000000        0x8 ..\..\..\..\..\..\..\..\..\..\microchip\harmony\v1_07_01\bin\framework\peripheral\PIC32MX440F256H_peripherals.a(peripheral.o)
 .text.PLIB_DMA_ExistsCRCByteOrder
                0x00000000        0x8 ..\..\..\..\..\..\..\..\..\..\microchip\harmony\v1_07_01\bin\framework\peripheral\PIC32MX440F256H_peripherals.a(peripheral.o)
 .text.PLIB_DMA_CRCByteOrderSelect
                0x00000000        0x8 ..\..\..\..\..\..\..\..\..\..\microchip\harmony\v1_07_01\bin\framework\peripheral\PIC32MX440F256H_peripherals.a(peripheral.o)
 .text.PLIB_DMA_CRCByteOrderGet
                0x00000000        0x8 ..\..\..\..\..\..\..\..\..\..\microchip\harmony\v1_07_01\bin\framework\peripheral\PIC32MX440F256H_peripherals.a(peripheral.o)
 .text.PLIB_DMA_ExistsCRCData
                0x00000000        0x8 ..\..\..\..\..\..\..\..\..\..\microchip\harmony\v1_07_01\bin\framework\peripheral\PIC32MX440F256H_peripherals.a(peripheral.o)
 .text.PLIB_DMA_CRCDataRead
                0x00000000       0x20 ..\..\..\..\..\..\..\..\..\..\microchip\harmony\v1_07_01\bin\framework\peripheral\PIC32MX440F256H_peripherals.a(peripheral.o)
 .text.PLIB_DMA_CRCDataWrite
                0x00000000       0x14 ..\..\..\..\..\..\..\..\..\..\microchip\harmony\v1_07_01\bin\framework\peripheral\PIC32MX440F256H_peripherals.a(peripheral.o)
 .text.PLIB_DMA_ExistsCRCXOREnable
                0x00000000        0x8 ..\..\..\..\..\..\..\..\..\..\microchip\harmony\v1_07_01\bin\framework\peripheral\PIC32MX440F256H_peripherals.a(peripheral.o)
 .text.PLIB_DMA_CRCXOREnableSet
                0x00000000       0x14 ..\..\..\..\..\..\..\..\..\..\microchip\harmony\v1_07_01\bin\framework\peripheral\PIC32MX440F256H_peripherals.a(peripheral.o)
 .text.PLIB_DMA_CRCXOREnableGet
                0x00000000       0x20 ..\..\..\..\..\..\..\..\..\..\microchip\harmony\v1_07_01\bin\framework\peripheral\PIC32MX440F256H_peripherals.a(peripheral.o)
 .text.PLIB_DMA_ExistsChannelXPriority
                0x00000000        0x8 ..\..\..\..\..\..\..\..\..\..\microchip\harmony\v1_07_01\bin\framework\peripheral\PIC32MX440F256H_peripherals.a(peripheral.o)
 .text.PLIB_DMA_ChannelXPrioritySelect
                0x00000000       0x3c ..\..\..\..\..\..\..\..\..\..\microchip\harmony\v1_07_01\bin\framework\peripheral\PIC32MX440F256H_peripherals.a(peripheral.o)
 .text.PLIB_DMA_ChannelXPriorityGet
                0x00000000       0x34 ..\..\..\..\..\..\..\..\..\..\microchip\harmony\v1_07_01\bin\framework\peripheral\PIC32MX440F256H_peripherals.a(peripheral.o)
 .text.PLIB_DMA_ExistsChannelXEvent
                0x00000000        0x8 ..\..\..\..\..\..\..\..\..\..\microchip\harmony\v1_07_01\bin\framework\peripheral\PIC32MX440F256H_peripherals.a(peripheral.o)
 .text.PLIB_DMA_ChannelXEventIsDetected
                0x00000000       0x34 ..\..\..\..\..\..\..\..\..\..\microchip\harmony\v1_07_01\bin\framework\peripheral\PIC32MX440F256H_peripherals.a(peripheral.o)
 .text.PLIB_DMA_ExistsChannelXAuto
                0x00000000        0x8 ..\..\..\..\..\..\..\..\..\..\microchip\harmony\v1_07_01\bin\framework\peripheral\PIC32MX440F256H_peripherals.a(peripheral.o)
 .text.PLIB_DMA_ChannelXAutoEnable
                0x00000000       0x30 ..\..\..\..\..\..\..\..\..\..\microchip\harmony\v1_07_01\bin\framework\peripheral\PIC32MX440F256H_peripherals.a(peripheral.o)
 .text.PLIB_DMA_ChannelXAutoDisable
                0x00000000       0x30 ..\..\..\..\..\..\..\..\..\..\microchip\harmony\v1_07_01\bin\framework\peripheral\PIC32MX440F256H_peripherals.a(peripheral.o)
 .text.PLIB_DMA_ChannelXAutoIsEnabled
                0x00000000       0x34 ..\..\..\..\..\..\..\..\..\..\microchip\harmony\v1_07_01\bin\framework\peripheral\PIC32MX440F256H_peripherals.a(peripheral.o)
 .text.PLIB_DMA_ExistsChannelXChainEnbl
                0x00000000        0x8 ..\..\..\..\..\..\..\..\..\..\microchip\harmony\v1_07_01\bin\framework\peripheral\PIC32MX440F256H_peripherals.a(peripheral.o)
 .text.PLIB_DMA_ChannelXChainEnable
                0x00000000       0x30 ..\..\..\..\..\..\..\..\..\..\microchip\harmony\v1_07_01\bin\framework\peripheral\PIC32MX440F256H_peripherals.a(peripheral.o)
 .text.PLIB_DMA_ChannelXChainDisable
                0x00000000       0x30 ..\..\..\..\..\..\..\..\..\..\microchip\harmony\v1_07_01\bin\framework\peripheral\PIC32MX440F256H_peripherals.a(peripheral.o)
 .text.PLIB_DMA_ChannelXChainIsEnabled
                0x00000000       0x34 ..\..\..\..\..\..\..\..\..\..\microchip\harmony\v1_07_01\bin\framework\peripheral\PIC32MX440F256H_peripherals.a(peripheral.o)
 .text.PLIB_DMA_ExistsChannelXDisabled
                0x00000000        0x8 ..\..\..\..\..\..\..\..\..\..\microchip\harmony\v1_07_01\bin\framework\peripheral\PIC32MX440F256H_peripherals.a(peripheral.o)
 .text.PLIB_DMA_ChannelXDisabledEnablesEvents
                0x00000000       0x30 ..\..\..\..\..\..\..\..\..\..\microchip\harmony\v1_07_01\bin\framework\peripheral\PIC32MX440F256H_peripherals.a(peripheral.o)
 .text.PLIB_DMA_ChannelXDisabledDisablesEvents
                0x00000000       0x30 ..\..\..\..\..\..\..\..\..\..\microchip\harmony\v1_07_01\bin\framework\peripheral\PIC32MX440F256H_peripherals.a(peripheral.o)
 .text.PLIB_DMA_ExistsChannelX
                0x00000000        0x8 ..\..\..\..\..\..\..\..\..\..\microchip\harmony\v1_07_01\bin\framework\peripheral\PIC32MX440F256H_peripherals.a(peripheral.o)
 .text.PLIB_DMA_ChannelXEnable
                0x00000000       0x30 ..\..\..\..\..\..\..\..\..\..\microchip\harmony\v1_07_01\bin\framework\peripheral\PIC32MX440F256H_peripherals.a(peripheral.o)
 .text.PLIB_DMA_ChannelXIsEnabled
                0x00000000       0x34 ..\..\..\..\..\..\..\..\..\..\microchip\harmony\v1_07_01\bin\framework\peripheral\PIC32MX440F256H_peripherals.a(peripheral.o)
 .text.PLIB_DMA_ChannelXDisable
                0x00000000       0x30 ..\..\..\..\..\..\..\..\..\..\microchip\harmony\v1_07_01\bin\framework\peripheral\PIC32MX440F256H_peripherals.a(peripheral.o)
 .text.PLIB_DMA_ExistsChannelXChain
                0x00000000        0x8 ..\..\..\..\..\..\..\..\..\..\microchip\harmony\v1_07_01\bin\framework\peripheral\PIC32MX440F256H_peripherals.a(peripheral.o)
 .text.PLIB_DMA_ChannelXChainToLower
                0x00000000       0x30 ..\..\..\..\..\..\..\..\..\..\microchip\harmony\v1_07_01\bin\framework\peripheral\PIC32MX440F256H_peripherals.a(peripheral.o)
 .text.PLIB_DMA_ChannelXChainToHigher
                0x00000000       0x30 ..\..\..\..\..\..\..\..\..\..\microchip\harmony\v1_07_01\bin\framework\peripheral\PIC32MX440F256H_peripherals.a(peripheral.o)
 .text.PLIB_DMA_ExistsChannelXPatternLength
                0x00000000        0x8 ..\..\..\..\..\..\..\..\..\..\microchip\harmony\v1_07_01\bin\framework\peripheral\PIC32MX440F256H_peripherals.a(peripheral.o)
 .text.PLIB_DMA_ChannelXPatternLengthSet
                0x00000000        0x8 ..\..\..\..\..\..\..\..\..\..\microchip\harmony\v1_07_01\bin\framework\peripheral\PIC32MX440F256H_peripherals.a(peripheral.o)
 .text.PLIB_DMA_ChannelXPatternLengthGet
                0x00000000        0x8 ..\..\..\..\..\..\..\..\..\..\microchip\harmony\v1_07_01\bin\framework\peripheral\PIC32MX440F256H_peripherals.a(peripheral.o)
 .text.PLIB_DMA_ExistsChannelXPatternIgnoreByte
                0x00000000        0x8 ..\..\..\..\..\..\..\..\..\..\microchip\harmony\v1_07_01\bin\framework\peripheral\PIC32MX440F256H_peripherals.a(peripheral.o)
 .text.PLIB_DMA_ChannelXPatternIgnoreByteEnable
                0x00000000        0x8 ..\..\..\..\..\..\..\..\..\..\microchip\harmony\v1_07_01\bin\framework\peripheral\PIC32MX440F256H_peripherals.a(peripheral.o)
 .text.PLIB_DMA_ChannelXPatternIgnoreByteIsEnabled
                0x00000000        0x8 ..\..\..\..\..\..\..\..\..\..\microchip\harmony\v1_07_01\bin\framework\peripheral\PIC32MX440F256H_peripherals.a(peripheral.o)
 .text.PLIB_DMA_ChannelXPatternIgnoreByteDisable
                0x00000000        0x8 ..\..\..\..\..\..\..\..\..\..\microchip\harmony\v1_07_01\bin\framework\peripheral\PIC32MX440F256H_peripherals.a(peripheral.o)
 .text.PLIB_DMA_ExistsChannelXBusy
                0x00000000        0x8 ..\..\..\..\..\..\..\..\..\..\microchip\harmony\v1_07_01\bin\framework\peripheral\PIC32MX440F256H_peripherals.a(peripheral.o)
 .text.PLIB_DMA_ChannelXBusyActiveSet
                0x00000000        0x8 ..\..\..\..\..\..\..\..\..\..\microchip\harmony\v1_07_01\bin\framework\peripheral\PIC32MX440F256H_peripherals.a(peripheral.o)
 .text.PLIB_DMA_ChannelXBusyInActiveSet
                0x00000000        0x8 ..\..\..\..\..\..\..\..\..\..\microchip\harmony\v1_07_01\bin\framework\peripheral\PIC32MX440F256H_peripherals.a(peripheral.o)
 .text.PLIB_DMA_ChannelXBusyIsBusy
                0x00000000        0x8 ..\..\..\..\..\..\..\..\..\..\microchip\harmony\v1_07_01\bin\framework\peripheral\PIC32MX440F256H_peripherals.a(peripheral.o)
 .text.PLIB_DMA_ExistsChannelXPatternIgnore
                0x00000000        0x8 ..\..\..\..\..\..\..\..\..\..\microchip\harmony\v1_07_01\bin\framework\peripheral\PIC32MX440F256H_peripherals.a(peripheral.o)
 .text.PLIB_DMA_ChannelXPatternIgnoreSet
                0x00000000        0x8 ..\..\..\..\..\..\..\..\..\..\microchip\harmony\v1_07_01\bin\framework\peripheral\PIC32MX440F256H_peripherals.a(peripheral.o)
 .text.PLIB_DMA_ChannelXPatternIgnoreGet
                0x00000000        0x8 ..\..\..\..\..\..\..\..\..\..\microchip\harmony\v1_07_01\bin\framework\peripheral\PIC32MX440F256H_peripherals.a(peripheral.o)
 .text.PLIB_DMA_ExistsChannelXTrigger
                0x00000000        0x8 ..\..\..\..\..\..\..\..\..\..\microchip\harmony\v1_07_01\bin\framework\peripheral\PIC32MX440F256H_peripherals.a(peripheral.o)
 .text.PLIB_DMA_ChannelXTriggerEnable
                0x00000000       0xa0 ..\..\..\..\..\..\..\..\..\..\microchip\harmony\v1_07_01\bin\framework\peripheral\PIC32MX440F256H_peripherals.a(peripheral.o)
 .text.PLIB_DMA_ChannelXTriggerIsEnabled
                0x00000000       0x94 ..\..\..\..\..\..\..\..\..\..\microchip\harmony\v1_07_01\bin\framework\peripheral\PIC32MX440F256H_peripherals.a(peripheral.o)
 .text.PLIB_DMA_ChannelXTriggerDisable
                0x00000000       0xa0 ..\..\..\..\..\..\..\..\..\..\microchip\harmony\v1_07_01\bin\framework\peripheral\PIC32MX440F256H_peripherals.a(peripheral.o)
 .text.PLIB_DMA_ChannelXTriggerSourceNumberGet
                0x00000000        0xc ..\..\..\..\..\..\..\..\..\..\microchip\harmony\v1_07_01\bin\framework\peripheral\PIC32MX440F256H_peripherals.a(peripheral.o)
 .text.PLIB_DMA_ExistsAbortTransfer
                0x00000000        0x8 ..\..\..\..\..\..\..\..\..\..\microchip\harmony\v1_07_01\bin\framework\peripheral\PIC32MX440F256H_peripherals.a(peripheral.o)
 .text.PLIB_DMA_AbortTransferSet
                0x00000000       0x30 ..\..\..\..\..\..\..\..\..\..\microchip\harmony\v1_07_01\bin\framework\peripheral\PIC32MX440F256H_peripherals.a(peripheral.o)
 .text.PLIB_DMA_ExistsStartTransfer
                0x00000000        0x8 ..\..\..\..\..\..\..\..\..\..\microchip\harmony\v1_07_01\bin\framework\peripheral\PIC32MX440F256H_peripherals.a(peripheral.o)
 .text.PLIB_DMA_StartTransferSet
                0x00000000       0x30 ..\..\..\..\..\..\..\..\..\..\microchip\harmony\v1_07_01\bin\framework\peripheral\PIC32MX440F256H_peripherals.a(peripheral.o)
 .text.PLIB_DMA_ExistsChannelXStartIRQ
                0x00000000        0x8 ..\..\..\..\..\..\..\..\..\..\microchip\harmony\v1_07_01\bin\framework\peripheral\PIC32MX440F256H_peripherals.a(peripheral.o)
 .text.PLIB_DMA_ChannelXStartIRQSet
                0x00000000       0x44 ..\..\..\..\..\..\..\..\..\..\microchip\harmony\v1_07_01\bin\framework\peripheral\PIC32MX440F256H_peripherals.a(peripheral.o)
 .text.PLIB_DMA_ExistsChannelXAbortIRQ
                0x00000000        0x8 ..\..\..\..\..\..\..\..\..\..\microchip\harmony\v1_07_01\bin\framework\peripheral\PIC32MX440F256H_peripherals.a(peripheral.o)
 .text.PLIB_DMA_ChannelXAbortIRQSet
                0x00000000       0x48 ..\..\..\..\..\..\..\..\..\..\microchip\harmony\v1_07_01\bin\framework\peripheral\PIC32MX440F256H_peripherals.a(peripheral.o)
 .text.PLIB_DMA_ExistsChannelXINTSourceFlag
                0x00000000        0x8 ..\..\..\..\..\..\..\..\..\..\microchip\harmony\v1_07_01\bin\framework\peripheral\PIC32MX440F256H_peripherals.a(peripheral.o)
 .text.PLIB_DMA_ChannelXINTSourceFlagGet
                0x00000000      0x1a0 ..\..\..\..\..\..\..\..\..\..\microchip\harmony\v1_07_01\bin\framework\peripheral\PIC32MX440F256H_peripherals.a(peripheral.o)
 .text.PLIB_DMA_ChannelXINTSourceFlagSet
                0x00000000      0x1c8 ..\..\..\..\..\..\..\..\..\..\microchip\harmony\v1_07_01\bin\framework\peripheral\PIC32MX440F256H_peripherals.a(peripheral.o)
 .text.PLIB_DMA_ChannelXINTSourceFlagClear
                0x00000000      0x1c8 ..\..\..\..\..\..\..\..\..\..\microchip\harmony\v1_07_01\bin\framework\peripheral\PIC32MX440F256H_peripherals.a(peripheral.o)
 .text.PLIB_DMA_ExistsChannelXINTSource
                0x00000000        0x8 ..\..\..\..\..\..\..\..\..\..\microchip\harmony\v1_07_01\bin\framework\peripheral\PIC32MX440F256H_peripherals.a(peripheral.o)
 .text.PLIB_DMA_ChannelXINTSourceEnable
                0x00000000      0x1c8 ..\..\..\..\..\..\..\..\..\..\microchip\harmony\v1_07_01\bin\framework\peripheral\PIC32MX440F256H_peripherals.a(peripheral.o)
 .text.PLIB_DMA_ChannelXINTSourceDisable
                0x00000000      0x1c8 ..\..\..\..\..\..\..\..\..\..\microchip\harmony\v1_07_01\bin\framework\peripheral\PIC32MX440F256H_peripherals.a(peripheral.o)
 .text.PLIB_DMA_ChannelXINTSourceIsEnabled
                0x00000000      0x198 ..\..\..\..\..\..\..\..\..\..\microchip\harmony\v1_07_01\bin\framework\peripheral\PIC32MX440F256H_peripherals.a(peripheral.o)
 .text.PLIB_DMA_ExistsChannelXSourceStartAddress
                0x00000000        0x8 ..\..\..\..\..\..\..\..\..\..\microchip\harmony\v1_07_01\bin\framework\peripheral\PIC32MX440F256H_peripherals.a(peripheral.o)
 .text.PLIB_DMA_ChannelXSourceStartAddressGet
                0x00000000       0x74 ..\..\..\..\..\..\..\..\..\..\microchip\harmony\v1_07_01\bin\framework\peripheral\PIC32MX440F256H_peripherals.a(peripheral.o)
 .text.PLIB_DMA_ChannelXSourceStartAddressSet
                0x00000000       0xac ..\..\..\..\..\..\..\..\..\..\microchip\harmony\v1_07_01\bin\framework\peripheral\PIC32MX440F256H_peripherals.a(peripheral.o)
 .text.PLIB_DMA_ExistsChannelXDestinationStartAddress
                0x00000000        0x8 ..\..\..\..\..\..\..\..\..\..\microchip\harmony\v1_07_01\bin\framework\peripheral\PIC32MX440F256H_peripherals.a(peripheral.o)
 .text.PLIB_DMA_ChannelXDestinationStartAddressGet
                0x00000000       0x74 ..\..\..\..\..\..\..\..\..\..\microchip\harmony\v1_07_01\bin\framework\peripheral\PIC32MX440F256H_peripherals.a(peripheral.o)
 .text.PLIB_DMA_ChannelXDestinationStartAddressSet
                0x00000000       0xac ..\..\..\..\..\..\..\..\..\..\microchip\harmony\v1_07_01\bin\framework\peripheral\PIC32MX440F256H_peripherals.a(peripheral.o)
 .text.PLIB_DMA_ExistsChannelXSourceSize
                0x00000000        0x8 ..\..\..\..\..\..\..\..\..\..\microchip\harmony\v1_07_01\bin\framework\peripheral\PIC32MX440F256H_peripherals.a(peripheral.o)
 .text.PLIB_DMA_ChannelXSourceSizeGet
                0x00000000       0x34 ..\..\..\..\..\..\..\..\..\..\microchip\harmony\v1_07_01\bin\framework\peripheral\PIC32MX440F256H_peripherals.a(peripheral.o)
 .text.PLIB_DMA_ChannelXSourceSizeSet
                0x00000000       0x30 ..\..\..\..\..\..\..\..\..\..\microchip\harmony\v1_07_01\bin\framework\peripheral\PIC32MX440F256H_peripherals.a(peripheral.o)
 .text.PLIB_DMA_ExistsChannelXDestinationSize
                0x00000000        0x8 ..\..\..\..\..\..\..\..\..\..\microchip\harmony\v1_07_01\bin\framework\peripheral\PIC32MX440F256H_peripherals.a(peripheral.o)
 .text.PLIB_DMA_ChannelXDestinationSizeGet
                0x00000000       0x34 ..\..\..\..\..\..\..\..\..\..\microchip\harmony\v1_07_01\bin\framework\peripheral\PIC32MX440F256H_peripherals.a(peripheral.o)
 .text.PLIB_DMA_ChannelXDestinationSizeSet
                0x00000000       0x30 ..\..\..\..\..\..\..\..\..\..\microchip\harmony\v1_07_01\bin\framework\peripheral\PIC32MX440F256H_peripherals.a(peripheral.o)
 .text.PLIB_DMA_ExistsChannelXSourcePointer
                0x00000000        0x8 ..\..\..\..\..\..\..\..\..\..\microchip\harmony\v1_07_01\bin\framework\peripheral\PIC32MX440F256H_peripherals.a(peripheral.o)
 .text.PLIB_DMA_ChannelXSourcePointerGet
                0x00000000       0x34 ..\..\..\..\..\..\..\..\..\..\microchip\harmony\v1_07_01\bin\framework\peripheral\PIC32MX440F256H_peripherals.a(peripheral.o)
 .text.PLIB_DMA_ExistsChannelXDestinationPointer
                0x00000000        0x8 ..\..\..\..\..\..\..\..\..\..\microchip\harmony\v1_07_01\bin\framework\peripheral\PIC32MX440F256H_peripherals.a(peripheral.o)
 .text.PLIB_DMA_ChannelXDestinationPointerGet
                0x00000000       0x34 ..\..\..\..\..\..\..\..\..\..\microchip\harmony\v1_07_01\bin\framework\peripheral\PIC32MX440F256H_peripherals.a(peripheral.o)
 .text.PLIB_DMA_ExistsChannelXCellSize
                0x00000000        0x8 ..\..\..\..\..\..\..\..\..\..\microchip\harmony\v1_07_01\bin\framework\peripheral\PIC32MX440F256H_peripherals.a(peripheral.o)
 .text.PLIB_DMA_ChannelXCellSizeGet
                0x00000000       0x34 ..\..\..\..\..\..\..\..\..\..\microchip\harmony\v1_07_01\bin\framework\peripheral\PIC32MX440F256H_peripherals.a(peripheral.o)
 .text.PLIB_DMA_ChannelXCellSizeSet
                0x00000000       0x30 ..\..\..\..\..\..\..\..\..\..\microchip\harmony\v1_07_01\bin\framework\peripheral\PIC32MX440F256H_peripherals.a(peripheral.o)
 .text.PLIB_DMA_ExistsChannelXCellProgressPointer
                0x00000000        0x8 ..\..\..\..\..\..\..\..\..\..\microchip\harmony\v1_07_01\bin\framework\peripheral\PIC32MX440F256H_peripherals.a(peripheral.o)
 .text.PLIB_DMA_ChannelXCellProgressPointerGet
                0x00000000       0x34 ..\..\..\..\..\..\..\..\..\..\microchip\harmony\v1_07_01\bin\framework\peripheral\PIC32MX440F256H_peripherals.a(peripheral.o)
 .text.PLIB_DMA_ExistsChannelXPatternData
                0x00000000        0x8 ..\..\..\..\..\..\..\..\..\..\microchip\harmony\v1_07_01\bin\framework\peripheral\PIC32MX440F256H_peripherals.a(peripheral.o)
 .text.PLIB_DMA_ChannelXPatternDataGet
                0x00000000       0x34 ..\..\..\..\..\..\..\..\..\..\microchip\harmony\v1_07_01\bin\framework\peripheral\PIC32MX440F256H_peripherals.a(peripheral.o)
 .text.PLIB_DMA_ChannelXPatternDataSet
                0x00000000       0x30 ..\..\..\..\..\..\..\..\..\..\microchip\harmony\v1_07_01\bin\framework\peripheral\PIC32MX440F256H_peripherals.a(peripheral.o)
 .text.PLIB_DMT_Enable
                0x00000000        0x8 ..\..\..\..\..\..\..\..\..\..\microchip\harmony\v1_07_01\bin\framework\peripheral\PIC32MX440F256H_peripherals.a(peripheral.o)
 .text.PLIB_DMT_Disable
                0x00000000        0x8 ..\..\..\..\..\..\..\..\..\..\microchip\harmony\v1_07_01\bin\framework\peripheral\PIC32MX440F256H_peripherals.a(peripheral.o)
 .text.PLIB_DMT_IsEnabled
                0x00000000        0x8 ..\..\..\..\..\..\..\..\..\..\microchip\harmony\v1_07_01\bin\framework\peripheral\PIC32MX440F256H_peripherals.a(peripheral.o)
 .text.PLIB_DMT_ExistsEnableControl
                0x00000000        0x8 ..\..\..\..\..\..\..\..\..\..\microchip\harmony\v1_07_01\bin\framework\peripheral\PIC32MX440F256H_peripherals.a(peripheral.o)
 .text.PLIB_DMT_WindowIsOpen
                0x00000000        0x8 ..\..\..\..\..\..\..\..\..\..\microchip\harmony\v1_07_01\bin\framework\peripheral\PIC32MX440F256H_peripherals.a(peripheral.o)
 .text.PLIB_DMT_EventOccurred
                0x00000000        0x8 ..\..\..\..\..\..\..\..\..\..\microchip\harmony\v1_07_01\bin\framework\peripheral\PIC32MX440F256H_peripherals.a(peripheral.o)
 .text.PLIB_DMT_BAD2Get
                0x00000000        0x8 ..\..\..\..\..\..\..\..\..\..\microchip\harmony\v1_07_01\bin\framework\peripheral\PIC32MX440F256H_peripherals.a(peripheral.o)
 .text.PLIB_DMT_BAD1Get
                0x00000000        0x8 ..\..\..\..\..\..\..\..\..\..\microchip\harmony\v1_07_01\bin\framework\peripheral\PIC32MX440F256H_peripherals.a(peripheral.o)
 .text.PLIB_DMT_ExistsStatus
                0x00000000        0x8 ..\..\..\..\..\..\..\..\..\..\microchip\harmony\v1_07_01\bin\framework\peripheral\PIC32MX440F256H_peripherals.a(peripheral.o)
 .text.PLIB_DMT_ClearStep1
                0x00000000        0x8 ..\..\..\..\..\..\..\..\..\..\microchip\harmony\v1_07_01\bin\framework\peripheral\PIC32MX440F256H_peripherals.a(peripheral.o)
 .text.PLIB_DMT_ExistsStep1
                0x00000000        0x8 ..\..\..\..\..\..\..\..\..\..\microchip\harmony\v1_07_01\bin\framework\peripheral\PIC32MX440F256H_peripherals.a(peripheral.o)
 .text.PLIB_DMT_ClearStep2
                0x00000000        0x8 ..\..\..\..\..\..\..\..\..\..\microchip\harmony\v1_07_01\bin\framework\peripheral\PIC32MX440F256H_peripherals.a(peripheral.o)
 .text.PLIB_DMT_ExistsStep2
                0x00000000        0x8 ..\..\..\..\..\..\..\..\..\..\microchip\harmony\v1_07_01\bin\framework\peripheral\PIC32MX440F256H_peripherals.a(peripheral.o)
 .text.PLIB_DMT_CounterGet
                0x00000000        0x8 ..\..\..\..\..\..\..\..\..\..\microchip\harmony\v1_07_01\bin\framework\peripheral\PIC32MX440F256H_peripherals.a(peripheral.o)
 .text.PLIB_DMT_ExistsCounter
                0x00000000        0x8 ..\..\..\..\..\..\..\..\..\..\microchip\harmony\v1_07_01\bin\framework\peripheral\PIC32MX440F256H_peripherals.a(peripheral.o)
 .text.PLIB_DMT_PostscalerValueGet
                0x00000000        0x8 ..\..\..\..\..\..\..\..\..\..\microchip\harmony\v1_07_01\bin\framework\peripheral\PIC32MX440F256H_peripherals.a(peripheral.o)
 .text.PLIB_DMT_ExistsPostscalerValue
                0x00000000        0x8 ..\..\..\..\..\..\..\..\..\..\microchip\harmony\v1_07_01\bin\framework\peripheral\PIC32MX440F256H_peripherals.a(peripheral.o)
 .text.PLIB_DMT_PostscalerIntervalGet
                0x00000000        0x8 ..\..\..\..\..\..\..\..\..\..\microchip\harmony\v1_07_01\bin\framework\peripheral\PIC32MX440F256H_peripherals.a(peripheral.o)
 .text.PLIB_DMT_ExistsPostscalerInterval
                0x00000000        0x8 ..\..\..\..\..\..\..\..\..\..\microchip\harmony\v1_07_01\bin\framework\peripheral\PIC32MX440F256H_peripherals.a(peripheral.o)
 .text.PLIB_EBI_BaseAddressSet
                0x00000000        0x8 ..\..\..\..\..\..\..\..\..\..\microchip\harmony\v1_07_01\bin\framework\peripheral\PIC32MX440F256H_peripherals.a(peripheral.o)
 .text.PLIB_EBI_BaseAddressGet
                0x00000000        0x8 ..\..\..\..\..\..\..\..\..\..\microchip\harmony\v1_07_01\bin\framework\peripheral\PIC32MX440F256H_peripherals.a(peripheral.o)
 .text.PLIB_EBI_ExistsBaseAddress
                0x00000000        0x8 ..\..\..\..\..\..\..\..\..\..\microchip\harmony\v1_07_01\bin\framework\peripheral\PIC32MX440F256H_peripherals.a(peripheral.o)
 .text.PLIB_EBI_MemoryCharacteristicsSet
                0x00000000        0x8 ..\..\..\..\..\..\..\..\..\..\microchip\harmony\v1_07_01\bin\framework\peripheral\PIC32MX440F256H_peripherals.a(peripheral.o)
 .text.PLIB_EBI_ExistsMemoryCharacteristics
                0x00000000        0x8 ..\..\..\..\..\..\..\..\..\..\microchip\harmony\v1_07_01\bin\framework\peripheral\PIC32MX440F256H_peripherals.a(peripheral.o)
 .text.PLIB_EBI_MemoryTimingConfigSet
                0x00000000        0x8 ..\..\..\..\..\..\..\..\..\..\microchip\harmony\v1_07_01\bin\framework\peripheral\PIC32MX440F256H_peripherals.a(peripheral.o)
 .text.PLIB_EBI_ExistsMemoryTimingConfig
                0x00000000        0x8 ..\..\..\..\..\..\..\..\..\..\microchip\harmony\v1_07_01\bin\framework\peripheral\PIC32MX440F256H_peripherals.a(peripheral.o)
 .text.PLIB_EBI_ReadyModeSet
                0x00000000        0x8 ..\..\..\..\..\..\..\..\..\..\microchip\harmony\v1_07_01\bin\framework\peripheral\PIC32MX440F256H_peripherals.a(peripheral.o)
 .text.PLIB_EBI_ReadyModeGet
                0x00000000        0x8 ..\..\..\..\..\..\..\..\..\..\microchip\harmony\v1_07_01\bin\framework\peripheral\PIC32MX440F256H_peripherals.a(peripheral.o)
 .text.PLIB_EBI_ExistsReadyMode
                0x00000000        0x8 ..\..\..\..\..\..\..\..\..\..\microchip\harmony\v1_07_01\bin\framework\peripheral\PIC32MX440F256H_peripherals.a(peripheral.o)
 .text.PLIB_EBI_MemoryPagingSet
                0x00000000        0x8 ..\..\..\..\..\..\..\..\..\..\microchip\harmony\v1_07_01\bin\framework\peripheral\PIC32MX440F256H_peripherals.a(peripheral.o)
 .text.PLIB_EBI_MemoryPageSizeGet
                0x00000000        0x8 ..\..\..\..\..\..\..\..\..\..\microchip\harmony\v1_07_01\bin\framework\peripheral\PIC32MX440F256H_peripherals.a(peripheral.o)
 .text.PLIB_EBI_ExistsMemoryPaging
                0x00000000        0x8 ..\..\..\..\..\..\..\..\..\..\microchip\harmony\v1_07_01\bin\framework\peripheral\PIC32MX440F256H_peripherals.a(peripheral.o)
 .text.PLIB_EBI_PageModeGet
                0x00000000        0x8 ..\..\..\..\..\..\..\..\..\..\microchip\harmony\v1_07_01\bin\framework\peripheral\PIC32MX440F256H_peripherals.a(peripheral.o)
 .text.PLIB_EBI_ExistsPageMode
                0x00000000        0x8 ..\..\..\..\..\..\..\..\..\..\microchip\harmony\v1_07_01\bin\framework\peripheral\PIC32MX440F256H_peripherals.a(peripheral.o)
 .text.PLIB_EBI_PageReadCycleTimeGet
                0x00000000        0x8 ..\..\..\..\..\..\..\..\..\..\microchip\harmony\v1_07_01\bin\framework\peripheral\PIC32MX440F256H_peripherals.a(peripheral.o)
 .text.PLIB_EBI_ExistsPageReadTime
                0x00000000        0x8 ..\..\..\..\..\..\..\..\..\..\microchip\harmony\v1_07_01\bin\framework\peripheral\PIC32MX440F256H_peripherals.a(peripheral.o)
 .text.PLIB_EBI_DataTurnAroundTimeGet
                0x00000000        0x8 ..\..\..\..\..\..\..\..\..\..\microchip\harmony\v1_07_01\bin\framework\peripheral\PIC32MX440F256H_peripherals.a(peripheral.o)
 .text.PLIB_EBI_ExistsDataTurnAroundTime
                0x00000000        0x8 ..\..\..\..\..\..\..\..\..\..\microchip\harmony\v1_07_01\bin\framework\peripheral\PIC32MX440F256H_peripherals.a(peripheral.o)
 .text.PLIB_EBI_WritePulseWidthGet
                0x00000000        0x8 ..\..\..\..\..\..\..\..\..\..\microchip\harmony\v1_07_01\bin\framework\peripheral\PIC32MX440F256H_peripherals.a(peripheral.o)
 .text.PLIB_EBI_ExistsWritePulseWidth
                0x00000000        0x8 ..\..\..\..\..\..\..\..\..\..\microchip\harmony\v1_07_01\bin\framework\peripheral\PIC32MX440F256H_peripherals.a(peripheral.o)
 .text.PLIB_EBI_AddressHoldTimeGet
                0x00000000        0x8 ..\..\..\..\..\..\..\..\..\..\microchip\harmony\v1_07_01\bin\framework\peripheral\PIC32MX440F256H_peripherals.a(peripheral.o)
 .text.PLIB_EBI_ExistsAddressHoldTime
                0x00000000        0x8 ..\..\..\..\..\..\..\..\..\..\microchip\harmony\v1_07_01\bin\framework\peripheral\PIC32MX440F256H_peripherals.a(peripheral.o)
 .text.PLIB_EBI_AddressSetupTimeGet
                0x00000000        0x8 ..\..\..\..\..\..\..\..\..\..\microchip\harmony\v1_07_01\bin\framework\peripheral\PIC32MX440F256H_peripherals.a(peripheral.o)
 .text.PLIB_EBI_ExistsAddressSetupTime
                0x00000000        0x8 ..\..\..\..\..\..\..\..\..\..\microchip\harmony\v1_07_01\bin\framework\peripheral\PIC32MX440F256H_peripherals.a(peripheral.o)
 .text.PLIB_EBI_ReadCycleTimeGet
                0x00000000        0x8 ..\..\..\..\..\..\..\..\..\..\microchip\harmony\v1_07_01\bin\framework\peripheral\PIC32MX440F256H_peripherals.a(peripheral.o)
 .text.PLIB_EBI_ExistsReadCycleTime
                0x00000000        0x8 ..\..\..\..\..\..\..\..\..\..\microchip\harmony\v1_07_01\bin\framework\peripheral\PIC32MX440F256H_peripherals.a(peripheral.o)
 .text.PLIB_EBI_FlashTimingSet
                0x00000000        0x8 ..\..\..\..\..\..\..\..\..\..\microchip\harmony\v1_07_01\bin\framework\peripheral\PIC32MX440F256H_peripherals.a(peripheral.o)
 .text.PLIB_EBI_FlashTimingGet
                0x00000000        0x8 ..\..\..\..\..\..\..\..\..\..\microchip\harmony\v1_07_01\bin\framework\peripheral\PIC32MX440F256H_peripherals.a(peripheral.o)
 .text.PLIB_EBI_ExistsFlashTiming
                0x00000000        0x8 ..\..\..\..\..\..\..\..\..\..\microchip\harmony\v1_07_01\bin\framework\peripheral\PIC32MX440F256H_peripherals.a(peripheral.o)
 .text.PLIB_EBI_StaticMemoryWidthRegisterSet
                0x00000000        0x8 ..\..\..\..\..\..\..\..\..\..\microchip\harmony\v1_07_01\bin\framework\peripheral\PIC32MX440F256H_peripherals.a(peripheral.o)
 .text.PLIB_EBI_StaticMemoryWidthRegisterGet
                0x00000000        0x8 ..\..\..\..\..\..\..\..\..\..\microchip\harmony\v1_07_01\bin\framework\peripheral\PIC32MX440F256H_peripherals.a(peripheral.o)
 .text.PLIB_EBI_ExistsStaticMemoryWidthRegister
                0x00000000        0x8 ..\..\..\..\..\..\..\..\..\..\microchip\harmony\v1_07_01\bin\framework\peripheral\PIC32MX440F256H_peripherals.a(peripheral.o)
 .text.PLIB_EBI_FlashPowerDownModeSet
                0x00000000        0x8 ..\..\..\..\..\..\..\..\..\..\microchip\harmony\v1_07_01\bin\framework\peripheral\PIC32MX440F256H_peripherals.a(peripheral.o)
 .text.PLIB_EBI_FlashPowerDownModeGet
                0x00000000        0x8 ..\..\..\..\..\..\..\..\..\..\microchip\harmony\v1_07_01\bin\framework\peripheral\PIC32MX440F256H_peripherals.a(peripheral.o)
 .text.PLIB_EBI_ExistsFlashPowerDownMode
                0x00000000        0x8 ..\..\..\..\..\..\..\..\..\..\microchip\harmony\v1_07_01\bin\framework\peripheral\PIC32MX440F256H_peripherals.a(peripheral.o)
 .text.PLIB_EBI_ControlEnableSet
                0x00000000        0x8 ..\..\..\..\..\..\..\..\..\..\microchip\harmony\v1_07_01\bin\framework\peripheral\PIC32MX440F256H_peripherals.a(peripheral.o)
 .text.PLIB_EBI_ControlEnableGet
                0x00000000        0x8 ..\..\..\..\..\..\..\..\..\..\microchip\harmony\v1_07_01\bin\framework\peripheral\PIC32MX440F256H_peripherals.a(peripheral.o)
 .text.PLIB_EBI_ExistsControlEnable
                0x00000000        0x8 ..\..\..\..\..\..\..\..\..\..\microchip\harmony\v1_07_01\bin\framework\peripheral\PIC32MX440F256H_peripherals.a(peripheral.o)
 .text.PLIB_EBI_AddressPinEnableBitsSet
                0x00000000        0x8 ..\..\..\..\..\..\..\..\..\..\microchip\harmony\v1_07_01\bin\framework\peripheral\PIC32MX440F256H_peripherals.a(peripheral.o)
 .text.PLIB_EBI_ExistsAddressPinEnableBits
                0x00000000        0x8 ..\..\..\..\..\..\..\..\..\..\microchip\harmony\v1_07_01\bin\framework\peripheral\PIC32MX440F256H_peripherals.a(peripheral.o)
 .text.PLIB_EBI_ReadyPin3ConfigSet
                0x00000000        0x8 ..\..\..\..\..\..\..\..\..\..\microchip\harmony\v1_07_01\bin\framework\peripheral\PIC32MX440F256H_peripherals.a(peripheral.o)
 .text.PLIB_EBI_ExistsReadyPin3Config
                0x00000000        0x8 ..\..\..\..\..\..\..\..\..\..\microchip\harmony\v1_07_01\bin\framework\peripheral\PIC32MX440F256H_peripherals.a(peripheral.o)
 .text.PLIB_EBI_ReadyPin2ConfigSet
                0x00000000        0x8 ..\..\..\..\..\..\..\..\..\..\microchip\harmony\v1_07_01\bin\framework\peripheral\PIC32MX440F256H_peripherals.a(peripheral.o)
 .text.PLIB_EBI_ExistsReadyPin2Config
                0x00000000        0x8 ..\..\..\..\..\..\..\..\..\..\microchip\harmony\v1_07_01\bin\framework\peripheral\PIC32MX440F256H_peripherals.a(peripheral.o)
 .text.PLIB_EBI_ReadyPin1ConfigSet
                0x00000000        0x8 ..\..\..\..\..\..\..\..\..\..\microchip\harmony\v1_07_01\bin\framework\peripheral\PIC32MX440F256H_peripherals.a(peripheral.o)
 .text.PLIB_EBI_ExistsReadyPin1Config
                0x00000000        0x8 ..\..\..\..\..\..\..\..\..\..\microchip\harmony\v1_07_01\bin\framework\peripheral\PIC32MX440F256H_peripherals.a(peripheral.o)
 .text.PLIB_EBI_ReadyPinSensSet
                0x00000000        0x8 ..\..\..\..\..\..\..\..\..\..\microchip\harmony\v1_07_01\bin\framework\peripheral\PIC32MX440F256H_peripherals.a(peripheral.o)
 .text.PLIB_EBI_ExistsReadyPinSens
                0x00000000        0x8 ..\..\..\..\..\..\..\..\..\..\microchip\harmony\v1_07_01\bin\framework\peripheral\PIC32MX440F256H_peripherals.a(peripheral.o)
 .text.PLIB_EBI_FlashResetPinSet
                0x00000000        0x8 ..\..\..\..\..\..\..\..\..\..\microchip\harmony\v1_07_01\bin\framework\peripheral\PIC32MX440F256H_peripherals.a(peripheral.o)
 .text.PLIB_EBI_FlashResetPinGet
                0x00000000        0x8 ..\..\..\..\..\..\..\..\..\..\microchip\harmony\v1_07_01\bin\framework\peripheral\PIC32MX440F256H_peripherals.a(peripheral.o)
 .text.PLIB_EBI_ExistsFlashResetPin
                0x00000000        0x8 ..\..\..\..\..\..\..\..\..\..\microchip\harmony\v1_07_01\bin\framework\peripheral\PIC32MX440F256H_peripherals.a(peripheral.o)
 .text.PLIB_EBI_WriteOutputControlSet
                0x00000000        0x8 ..\..\..\..\..\..\..\..\..\..\microchip\harmony\v1_07_01\bin\framework\peripheral\PIC32MX440F256H_peripherals.a(peripheral.o)
 .text.PLIB_EBI_ExistsWriteOutputControl
                0x00000000        0x8 ..\..\..\..\..\..\..\..\..\..\microchip\harmony\v1_07_01\bin\framework\peripheral\PIC32MX440F256H_peripherals.a(peripheral.o)
 .text.PLIB_EBI_ByteSelectPinSet
                0x00000000        0x8 ..\..\..\..\..\..\..\..\..\..\microchip\harmony\v1_07_01\bin\framework\peripheral\PIC32MX440F256H_peripherals.a(peripheral.o)
 .text.PLIB_EBI_ExistsByteSelectPin
                0x00000000        0x8 ..\..\..\..\..\..\..\..\..\..\microchip\harmony\v1_07_01\bin\framework\peripheral\PIC32MX440F256H_peripherals.a(peripheral.o)
 .text.PLIB_EBI_ChipSelectEnableSet
                0x00000000        0x8 ..\..\..\..\..\..\..\..\..\..\microchip\harmony\v1_07_01\bin\framework\peripheral\PIC32MX440F256H_peripherals.a(peripheral.o)
 .text.PLIB_EBI_ExistsChipSelectEnable
                0x00000000        0x8 ..\..\..\..\..\..\..\..\..\..\microchip\harmony\v1_07_01\bin\framework\peripheral\PIC32MX440F256H_peripherals.a(peripheral.o)
 .text.PLIB_EBI_DataEnableSet
                0x00000000        0x8 ..\..\..\..\..\..\..\..\..\..\microchip\harmony\v1_07_01\bin\framework\peripheral\PIC32MX440F256H_peripherals.a(peripheral.o)
 .text.PLIB_EBI_ExistsDataEnable
                0x00000000        0x8 ..\..\..\..\..\..\..\..\..\..\microchip\harmony\v1_07_01\bin\framework\peripheral\PIC32MX440F256H_peripherals.a(peripheral.o)
 .text.PLIB_ETH_PauseTimerSet
                0x00000000        0x8 ..\..\..\..\..\..\..\..\..\..\microchip\harmony\v1_07_01\bin\framework\peripheral\PIC32MX440F256H_peripherals.a(peripheral.o)
 .text.PLIB_ETH_PauseTimerGet
                0x00000000        0x8 ..\..\..\..\..\..\..\..\..\..\microchip\harmony\v1_07_01\bin\framework\peripheral\PIC32MX440F256H_peripherals.a(peripheral.o)
 .text.PLIB_ETH_ExistsPauseTimer
                0x00000000        0x8 ..\..\..\..\..\..\..\..\..\..\microchip\harmony\v1_07_01\bin\framework\peripheral\PIC32MX440F256H_peripherals.a(peripheral.o)
 .text.PLIB_ETH_Enable
                0x00000000        0x8 ..\..\..\..\..\..\..\..\..\..\microchip\harmony\v1_07_01\bin\framework\peripheral\PIC32MX440F256H_peripherals.a(peripheral.o)
 .text.PLIB_ETH_Disable
                0x00000000        0x8 ..\..\..\..\..\..\..\..\..\..\microchip\harmony\v1_07_01\bin\framework\peripheral\PIC32MX440F256H_peripherals.a(peripheral.o)
 .text.PLIB_ETH_IsEnabled
                0x00000000        0x8 ..\..\..\..\..\..\..\..\..\..\microchip\harmony\v1_07_01\bin\framework\peripheral\PIC32MX440F256H_peripherals.a(peripheral.o)
 .text.PLIB_ETH_ExistsEnable
                0x00000000        0x8 ..\..\..\..\..\..\..\..\..\..\microchip\harmony\v1_07_01\bin\framework\peripheral\PIC32MX440F256H_peripherals.a(peripheral.o)
 .text.PLIB_ETH_StopInIdleEnable
                0x00000000        0x8 ..\..\..\..\..\..\..\..\..\..\microchip\harmony\v1_07_01\bin\framework\peripheral\PIC32MX440F256H_peripherals.a(peripheral.o)
 .text.PLIB_ETH_StopInIdleDisable
                0x00000000        0x8 ..\..\..\..\..\..\..\..\..\..\microchip\harmony\v1_07_01\bin\framework\peripheral\PIC32MX440F256H_peripherals.a(peripheral.o)
 .text.PLIB_ETH_StopInIdleIsEnabled
                0x00000000        0x8 ..\..\..\..\..\..\..\..\..\..\microchip\harmony\v1_07_01\bin\framework\peripheral\PIC32MX440F256H_peripherals.a(peripheral.o)
 .text.PLIB_ETH_ExistsStopInIdle
                0x00000000        0x8 ..\..\..\..\..\..\..\..\..\..\microchip\harmony\v1_07_01\bin\framework\peripheral\PIC32MX440F256H_peripherals.a(peripheral.o)
 .text.PLIB_ETH_TxRTSEnable
                0x00000000        0x8 ..\..\..\..\..\..\..\..\..\..\microchip\harmony\v1_07_01\bin\framework\peripheral\PIC32MX440F256H_peripherals.a(peripheral.o)
 .text.PLIB_ETH_TxRTSDisable
                0x00000000        0x8 ..\..\..\..\..\..\..\..\..\..\microchip\harmony\v1_07_01\bin\framework\peripheral\PIC32MX440F256H_peripherals.a(peripheral.o)
 .text.PLIB_ETH_TxRTSIsEnabled
                0x00000000        0x8 ..\..\..\..\..\..\..\..\..\..\microchip\harmony\v1_07_01\bin\framework\peripheral\PIC32MX440F256H_peripherals.a(peripheral.o)
 .text.PLIB_ETH_ExistsTransmitRTS
                0x00000000        0x8 ..\..\..\..\..\..\..\..\..\..\microchip\harmony\v1_07_01\bin\framework\peripheral\PIC32MX440F256H_peripherals.a(peripheral.o)
 .text.PLIB_ETH_RxEnable
                0x00000000        0x8 ..\..\..\..\..\..\..\..\..\..\microchip\harmony\v1_07_01\bin\framework\peripheral\PIC32MX440F256H_peripherals.a(peripheral.o)
 .text.PLIB_ETH_RxDisable
                0x00000000        0x8 ..\..\..\..\..\..\..\..\..\..\microchip\harmony\v1_07_01\bin\framework\peripheral\PIC32MX440F256H_peripherals.a(peripheral.o)
 .text.PLIB_ETH_RxIsEnabled
                0x00000000        0x8 ..\..\..\..\..\..\..\..\..\..\microchip\harmony\v1_07_01\bin\framework\peripheral\PIC32MX440F256H_peripherals.a(peripheral.o)
 .text.PLIB_ETH_ExistsRxEnable
                0x00000000        0x8 ..\..\..\..\..\..\..\..\..\..\microchip\harmony\v1_07_01\bin\framework\peripheral\PIC32MX440F256H_peripherals.a(peripheral.o)
 .text.PLIB_ETH_AutoFlowControlEnable
                0x00000000        0x8 ..\..\..\..\..\..\..\..\..\..\microchip\harmony\v1_07_01\bin\framework\peripheral\PIC32MX440F256H_peripherals.a(peripheral.o)
 .text.PLIB_ETH_AutoFlowControlDisable
                0x00000000        0x8 ..\..\..\..\..\..\..\..\..\..\microchip\harmony\v1_07_01\bin\framework\peripheral\PIC32MX440F256H_peripherals.a(peripheral.o)
 .text.PLIB_ETH_AutoFlowControlIsEnabled
                0x00000000        0x8 ..\..\..\..\..\..\..\..\..\..\microchip\harmony\v1_07_01\bin\framework\peripheral\PIC32MX440F256H_peripherals.a(peripheral.o)
 .text.PLIB_ETH_ExistsAutoFlowControl
                0x00000000        0x8 ..\..\..\..\..\..\..\..\..\..\microchip\harmony\v1_07_01\bin\framework\peripheral\PIC32MX440F256H_peripherals.a(peripheral.o)
 .text.PLIB_ETH_ManualFlowControlEnable
                0x00000000        0x8 ..\..\..\..\..\..\..\..\..\..\microchip\harmony\v1_07_01\bin\framework\peripheral\PIC32MX440F256H_peripherals.a(peripheral.o)
 .text.PLIB_ETH_ManualFlowControlDisable
                0x00000000        0x8 ..\..\..\..\..\..\..\..\..\..\microchip\harmony\v1_07_01\bin\framework\peripheral\PIC32MX440F256H_peripherals.a(peripheral.o)
 .text.PLIB_ETH_ManualFlowControlIsEnabled
                0x00000000        0x8 ..\..\..\..\..\..\..\..\..\..\microchip\harmony\v1_07_01\bin\framework\peripheral\PIC32MX440F256H_peripherals.a(peripheral.o)
 .text.PLIB_ETH_ExistsManualFlowControl
                0x00000000        0x8 ..\..\..\..\..\..\..\..\..\..\microchip\harmony\v1_07_01\bin\framework\peripheral\PIC32MX440F256H_peripherals.a(peripheral.o)
 .text.PLIB_ETH_RxBufferCountDecrement
                0x00000000        0x8 ..\..\..\..\..\..\..\..\..\..\microchip\harmony\v1_07_01\bin\framework\peripheral\PIC32MX440F256H_peripherals.a(peripheral.o)
 .text.PLIB_ETH_ExistsRxBufferCountDecrement
                0x00000000        0x8 ..\..\..\..\..\..\..\..\..\..\microchip\harmony\v1_07_01\bin\framework\peripheral\PIC32MX440F256H_peripherals.a(peripheral.o)
 .text.PLIB_ETH_ReceiveBufferSizeGet
                0x00000000        0x8 ..\..\..\..\..\..\..\..\..\..\microchip\harmony\v1_07_01\bin\framework\peripheral\PIC32MX440F256H_peripherals.a(peripheral.o)
 .text.PLIB_ETH_ReceiveBufferSizeSet
                0x00000000        0x8 ..\..\..\..\..\..\..\..\..\..\microchip\harmony\v1_07_01\bin\framework\peripheral\PIC32MX440F256H_peripherals.a(peripheral.o)
 .text.PLIB_ETH_ExistsReceiveBufferSize
                0x00000000        0x8 ..\..\..\..\..\..\..\..\..\..\microchip\harmony\v1_07_01\bin\framework\peripheral\PIC32MX440F256H_peripherals.a(peripheral.o)
 .text.PLIB_ETH_TxPacketDescAddrSet
                0x00000000        0x8 ..\..\..\..\..\..\..\..\..\..\microchip\harmony\v1_07_01\bin\framework\peripheral\PIC32MX440F256H_peripherals.a(peripheral.o)
 .text.PLIB_ETH_TxPacketDescAddrGet
                0x00000000        0x8 ..\..\..\..\..\..\..\..\..\..\microchip\harmony\v1_07_01\bin\framework\peripheral\PIC32MX440F256H_peripherals.a(peripheral.o)
 .text.PLIB_ETH_ExistsTxPacketDescriptorAddress
                0x00000000        0x8 ..\..\..\..\..\..\..\..\..\..\microchip\harmony\v1_07_01\bin\framework\peripheral\PIC32MX440F256H_peripherals.a(peripheral.o)
 .text.PLIB_ETH_RxPacketDescAddrSet
                0x00000000        0x8 ..\..\..\..\..\..\..\..\..\..\microchip\harmony\v1_07_01\bin\framework\peripheral\PIC32MX440F256H_peripherals.a(peripheral.o)
 .text.PLIB_ETH_RxPacketDescAddrGet
                0x00000000        0x8 ..\..\..\..\..\..\..\..\..\..\microchip\harmony\v1_07_01\bin\framework\peripheral\PIC32MX440F256H_peripherals.a(peripheral.o)
 .text.PLIB_ETH_ExistsRxPacketDescriptorAddress
                0x00000000        0x8 ..\..\..\..\..\..\..\..\..\..\microchip\harmony\v1_07_01\bin\framework\peripheral\PIC32MX440F256H_peripherals.a(peripheral.o)
 .text.PLIB_ETH_HashTableSet
                0x00000000        0x8 ..\..\..\..\..\..\..\..\..\..\microchip\harmony\v1_07_01\bin\framework\peripheral\PIC32MX440F256H_peripherals.a(peripheral.o)
 .text.PLIB_ETH_HashTableGet
                0x00000000        0x8 ..\..\..\..\..\..\..\..\..\..\microchip\harmony\v1_07_01\bin\framework\peripheral\PIC32MX440F256H_peripherals.a(peripheral.o)
 .text.PLIB_ETH_ExistsHashTable
                0x00000000        0x8 ..\..\..\..\..\..\..\..\..\..\microchip\harmony\v1_07_01\bin\framework\peripheral\PIC32MX440F256H_peripherals.a(peripheral.o)
 .text.PLIB_ETH_PatternMatchSet
                0x00000000        0x8 ..\..\..\..\..\..\..\..\..\..\microchip\harmony\v1_07_01\bin\framework\peripheral\PIC32MX440F256H_peripherals.a(peripheral.o)
 .text.PLIB_ETH_PatternMatchGet
                0x00000000        0xc ..\..\..\..\..\..\..\..\..\..\microchip\harmony\v1_07_01\bin\framework\peripheral\PIC32MX440F256H_peripherals.a(peripheral.o)
 .text.PLIB_ETH_PatternMatchChecksumSet
                0x00000000        0x8 ..\..\..\..\..\..\..\..\..\..\microchip\harmony\v1_07_01\bin\framework\peripheral\PIC32MX440F256H_peripherals.a(peripheral.o)
 .text.PLIB_ETH_PatternMatchChecksumGet
                0x00000000        0x8 ..\..\..\..\..\..\..\..\..\..\microchip\harmony\v1_07_01\bin\framework\peripheral\PIC32MX440F256H_peripherals.a(peripheral.o)
 .text.PLIB_ETH_PatternMatchOffsetSet
                0x00000000        0x8 ..\..\..\..\..\..\..\..\..\..\microchip\harmony\v1_07_01\bin\framework\peripheral\PIC32MX440F256H_peripherals.a(peripheral.o)
 .text.PLIB_ETH_PatternMatchOffsetGet
                0x00000000        0x8 ..\..\..\..\..\..\..\..\..\..\microchip\harmony\v1_07_01\bin\framework\peripheral\PIC32MX440F256H_peripherals.a(peripheral.o)
 .text.PLIB_ETH_PatternMatchModeSet
                0x00000000        0x8 ..\..\..\..\..\..\..\..\..\..\microchip\harmony\v1_07_01\bin\framework\peripheral\PIC32MX440F256H_peripherals.a(peripheral.o)
 .text.PLIB_ETH_PatternMatchModeGet
                0x00000000        0x8 ..\..\..\..\..\..\..\..\..\..\microchip\harmony\v1_07_01\bin\framework\peripheral\PIC32MX440F256H_peripherals.a(peripheral.o)
 .text.PLIB_ETH_ExistsPatternMatch
                0x00000000        0x8 ..\..\..\..\..\..\..\..\..\..\microchip\harmony\v1_07_01\bin\framework\peripheral\PIC32MX440F256H_peripherals.a(peripheral.o)
 .text.PLIB_ETH_ReceiveFilterEnable
                0x00000000        0x8 ..\..\..\..\..\..\..\..\..\..\microchip\harmony\v1_07_01\bin\framework\peripheral\PIC32MX440F256H_peripherals.a(peripheral.o)
 .text.PLIB_ETH_ReceiveFilterDisable
                0x00000000        0x8 ..\..\..\..\..\..\..\..\..\..\microchip\harmony\v1_07_01\bin\framework\peripheral\PIC32MX440F256H_peripherals.a(peripheral.o)
 .text.PLIB_ETH_ReceiveFilterIsEnable
                0x00000000        0x8 ..\..\..\..\..\..\..\..\..\..\microchip\harmony\v1_07_01\bin\framework\peripheral\PIC32MX440F256H_peripherals.a(peripheral.o)
 .text.PLIB_ETH_ExistsReceiveFilters
                0x00000000        0x8 ..\..\..\..\..\..\..\..\..\..\microchip\harmony\v1_07_01\bin\framework\peripheral\PIC32MX440F256H_peripherals.a(peripheral.o)
 .text.PLIB_ETH_RxFullWmarkSet
                0x00000000        0x8 ..\..\..\..\..\..\..\..\..\..\microchip\harmony\v1_07_01\bin\framework\peripheral\PIC32MX440F256H_peripherals.a(peripheral.o)
 .text.PLIB_ETH_RxFullWmarkGet
                0x00000000        0x8 ..\..\..\..\..\..\..\..\..\..\microchip\harmony\v1_07_01\bin\framework\peripheral\PIC32MX440F256H_peripherals.a(peripheral.o)
 .text.PLIB_ETH_RxEmptyWmarkSet
                0x00000000        0x8 ..\..\..\..\..\..\..\..\..\..\microchip\harmony\v1_07_01\bin\framework\peripheral\PIC32MX440F256H_peripherals.a(peripheral.o)
 .text.PLIB_ETH_RxEmptyWmarkGet
                0x00000000        0x8 ..\..\..\..\..\..\..\..\..\..\microchip\harmony\v1_07_01\bin\framework\peripheral\PIC32MX440F256H_peripherals.a(peripheral.o)
 .text.PLIB_ETH_ExistsReceiveWmarks
                0x00000000        0x8 ..\..\..\..\..\..\..\..\..\..\microchip\harmony\v1_07_01\bin\framework\peripheral\PIC32MX440F256H_peripherals.a(peripheral.o)
 .text.PLIB_ETH_InterruptSourceEnable
                0x00000000        0x8 ..\..\..\..\..\..\..\..\..\..\microchip\harmony\v1_07_01\bin\framework\peripheral\PIC32MX440F256H_peripherals.a(peripheral.o)
 .text.PLIB_ETH_InterruptSourceDisable
                0x00000000        0x8 ..\..\..\..\..\..\..\..\..\..\microchip\harmony\v1_07_01\bin\framework\peripheral\PIC32MX440F256H_peripherals.a(peripheral.o)
 .text.PLIB_ETH_InterruptSourceIsEnabled
                0x00000000        0x8 ..\..\..\..\..\..\..\..\..\..\microchip\harmony\v1_07_01\bin\framework\peripheral\PIC32MX440F256H_peripherals.a(peripheral.o)
 .text.PLIB_ETH_InterruptSourcesGet
                0x00000000        0x8 ..\..\..\..\..\..\..\..\..\..\microchip\harmony\v1_07_01\bin\framework\peripheral\PIC32MX440F256H_peripherals.a(peripheral.o)
 .text.PLIB_ETH_InterruptSet
                0x00000000        0x8 ..\..\..\..\..\..\..\..\..\..\microchip\harmony\v1_07_01\bin\framework\peripheral\PIC32MX440F256H_peripherals.a(peripheral.o)
 .text.PLIB_ETH_InterruptClear
                0x00000000        0x8 ..\..\..\..\..\..\..\..\..\..\microchip\harmony\v1_07_01\bin\framework\peripheral\PIC32MX440F256H_peripherals.a(peripheral.o)
 .text.PLIB_ETH_InterruptsGet
                0x00000000        0x8 ..\..\..\..\..\..\..\..\..\..\microchip\harmony\v1_07_01\bin\framework\peripheral\PIC32MX440F256H_peripherals.a(peripheral.o)
 .text.PLIB_ETH_InterruptStatusGet
                0x00000000        0x8 ..\..\..\..\..\..\..\..\..\..\microchip\harmony\v1_07_01\bin\framework\peripheral\PIC32MX440F256H_peripherals.a(peripheral.o)
 .text.PLIB_ETH_ExistsInterrupt
                0x00000000        0x8 ..\..\..\..\..\..\..\..\..\..\microchip\harmony\v1_07_01\bin\framework\peripheral\PIC32MX440F256H_peripherals.a(peripheral.o)
 .text.PLIB_ETH_RxPacketCountGet
                0x00000000        0x8 ..\..\..\..\..\..\..\..\..\..\microchip\harmony\v1_07_01\bin\framework\peripheral\PIC32MX440F256H_peripherals.a(peripheral.o)
 .text.PLIB_ETH_EthernetIsBusy
                0x00000000        0x8 ..\..\..\..\..\..\..\..\..\..\microchip\harmony\v1_07_01\bin\framework\peripheral\PIC32MX440F256H_peripherals.a(peripheral.o)
 .text.PLIB_ETH_TransmitIsBusy
                0x00000000        0x8 ..\..\..\..\..\..\..\..\..\..\microchip\harmony\v1_07_01\bin\framework\peripheral\PIC32MX440F256H_peripherals.a(peripheral.o)
 .text.PLIB_ETH_ReceiveIsBusy
                0x00000000        0x8 ..\..\..\..\..\..\..\..\..\..\microchip\harmony\v1_07_01\bin\framework\peripheral\PIC32MX440F256H_peripherals.a(peripheral.o)
 .text.PLIB_ETH_ExistsEthernetControllerStatus
                0x00000000        0x8 ..\..\..\..\..\..\..\..\..\..\microchip\harmony\v1_07_01\bin\framework\peripheral\PIC32MX440F256H_peripherals.a(peripheral.o)
 .text.PLIB_ETH_RxOverflowCountClear
                0x00000000        0x8 ..\..\..\..\..\..\..\..\..\..\microchip\harmony\v1_07_01\bin\framework\peripheral\PIC32MX440F256H_peripherals.a(peripheral.o)
 .text.PLIB_ETH_RxOverflowCountGet
                0x00000000        0x8 ..\..\..\..\..\..\..\..\..\..\microchip\harmony\v1_07_01\bin\framework\peripheral\PIC32MX440F256H_peripherals.a(peripheral.o)
 .text.PLIB_ETH_ExistsReceiveOverflowCount
                0x00000000        0x8 ..\..\..\..\..\..\..\..\..\..\microchip\harmony\v1_07_01\bin\framework\peripheral\PIC32MX440F256H_peripherals.a(peripheral.o)
 .text.PLIB_ETH_FramesTxdOkCountClear
                0x00000000        0x8 ..\..\..\..\..\..\..\..\..\..\microchip\harmony\v1_07_01\bin\framework\peripheral\PIC32MX440F256H_peripherals.a(peripheral.o)
 .text.PLIB_ETH_FramesTxdOkCountGet
                0x00000000        0x8 ..\..\..\..\..\..\..\..\..\..\microchip\harmony\v1_07_01\bin\framework\peripheral\PIC32MX440F256H_peripherals.a(peripheral.o)
 .text.PLIB_ETH_ExistsFramesTransmittedOK
                0x00000000        0x8 ..\..\..\..\..\..\..\..\..\..\microchip\harmony\v1_07_01\bin\framework\peripheral\PIC32MX440F256H_peripherals.a(peripheral.o)
 .text.PLIB_ETH_SingleCollisionCountClear
                0x00000000        0x8 ..\..\..\..\..\..\..\..\..\..\microchip\harmony\v1_07_01\bin\framework\peripheral\PIC32MX440F256H_peripherals.a(peripheral.o)
 .text.PLIB_ETH_SingleCollisionCountGet
                0x00000000        0x8 ..\..\..\..\..\..\..\..\..\..\microchip\harmony\v1_07_01\bin\framework\peripheral\PIC32MX440F256H_peripherals.a(peripheral.o)
 .text.PLIB_ETH_MultipleCollisionCountClear
                0x00000000        0x8 ..\..\..\..\..\..\..\..\..\..\microchip\harmony\v1_07_01\bin\framework\peripheral\PIC32MX440F256H_peripherals.a(peripheral.o)
 .text.PLIB_ETH_MultipleCollisionCountGet
                0x00000000        0x8 ..\..\..\..\..\..\..\..\..\..\microchip\harmony\v1_07_01\bin\framework\peripheral\PIC32MX440F256H_peripherals.a(peripheral.o)
 .text.PLIB_ETH_ExistsCollisionCounts
                0x00000000        0x8 ..\..\..\..\..\..\..\..\..\..\microchip\harmony\v1_07_01\bin\framework\peripheral\PIC32MX440F256H_peripherals.a(peripheral.o)
 .text.PLIB_ETH_FramesRxdOkCountClear
                0x00000000        0x8 ..\..\..\..\..\..\..\..\..\..\microchip\harmony\v1_07_01\bin\framework\peripheral\PIC32MX440F256H_peripherals.a(peripheral.o)
 .text.PLIB_ETH_FramesRxdOkCountGet
                0x00000000        0x8 ..\..\..\..\..\..\..\..\..\..\microchip\harmony\v1_07_01\bin\framework\peripheral\PIC32MX440F256H_peripherals.a(peripheral.o)
 .text.PLIB_ETH_ExistsFramexReceivedOK
                0x00000000        0x8 ..\..\..\..\..\..\..\..\..\..\microchip\harmony\v1_07_01\bin\framework\peripheral\PIC32MX440F256H_peripherals.a(peripheral.o)
 .text.PLIB_ETH_FCSErrorCountClear
                0x00000000        0x8 ..\..\..\..\..\..\..\..\..\..\microchip\harmony\v1_07_01\bin\framework\peripheral\PIC32MX440F256H_peripherals.a(peripheral.o)
 .text.PLIB_ETH_FCSErrorCountGet
                0x00000000        0x8 ..\..\..\..\..\..\..\..\..\..\microchip\harmony\v1_07_01\bin\framework\peripheral\PIC32MX440F256H_peripherals.a(peripheral.o)
 .text.PLIB_ETH_ExistsFCSErrorCount
                0x00000000        0x8 ..\..\..\..\..\..\..\..\..\..\microchip\harmony\v1_07_01\bin\framework\peripheral\PIC32MX440F256H_peripherals.a(peripheral.o)
 .text.PLIB_ETH_AlignErrorCountClear
                0x00000000        0x8 ..\..\..\..\..\..\..\..\..\..\microchip\harmony\v1_07_01\bin\framework\peripheral\PIC32MX440F256H_peripherals.a(peripheral.o)
 .text.PLIB_ETH_AlignErrorCountGet
                0x00000000        0x8 ..\..\..\..\..\..\..\..\..\..\microchip\harmony\v1_07_01\bin\framework\peripheral\PIC32MX440F256H_peripherals.a(peripheral.o)
 .text.PLIB_ETH_ExistsAlignmentErrorCount
                0x00000000        0x8 ..\..\..\..\..\..\..\..\..\..\microchip\harmony\v1_07_01\bin\framework\peripheral\PIC32MX440F256H_peripherals.a(peripheral.o)
 .text.PLIB_ETH_MIIResetEnable
                0x00000000        0x8 ..\..\..\..\..\..\..\..\..\..\microchip\harmony\v1_07_01\bin\framework\peripheral\PIC32MX440F256H_peripherals.a(peripheral.o)
 .text.PLIB_ETH_MIIResetDisable
                0x00000000        0x8 ..\..\..\..\..\..\..\..\..\..\microchip\harmony\v1_07_01\bin\framework\peripheral\PIC32MX440F256H_peripherals.a(peripheral.o)
 .text.PLIB_ETH_MIIResetIsEnabled
                0x00000000        0x8 ..\..\..\..\..\..\..\..\..\..\microchip\harmony\v1_07_01\bin\framework\peripheral\PIC32MX440F256H_peripherals.a(peripheral.o)
 .text.PLIB_ETH_SimResetEnable
                0x00000000        0x8 ..\..\..\..\..\..\..\..\..\..\microchip\harmony\v1_07_01\bin\framework\peripheral\PIC32MX440F256H_peripherals.a(peripheral.o)
 .text.PLIB_ETH_SimResetDisable
                0x00000000        0x8 ..\..\..\..\..\..\..\..\..\..\microchip\harmony\v1_07_01\bin\framework\peripheral\PIC32MX440F256H_peripherals.a(peripheral.o)
 .text.PLIB_ETH_SimResetIsEnabled
                0x00000000        0x8 ..\..\..\..\..\..\..\..\..\..\microchip\harmony\v1_07_01\bin\framework\peripheral\PIC32MX440F256H_peripherals.a(peripheral.o)
 .text.PLIB_ETH_MCSRxResetEnable
                0x00000000        0x8 ..\..\..\..\..\..\..\..\..\..\microchip\harmony\v1_07_01\bin\framework\peripheral\PIC32MX440F256H_peripherals.a(peripheral.o)
 .text.PLIB_ETH_MCSRxResetDisable
                0x00000000        0x8 ..\..\..\..\..\..\..\..\..\..\microchip\harmony\v1_07_01\bin\framework\peripheral\PIC32MX440F256H_peripherals.a(peripheral.o)
 .text.PLIB_ETH_MCSRxResetIsEnabled
                0x00000000        0x8 ..\..\..\..\..\..\..\..\..\..\microchip\harmony\v1_07_01\bin\framework\peripheral\PIC32MX440F256H_peripherals.a(peripheral.o)
 .text.PLIB_ETH_RxFuncResetEnable
                0x00000000        0x8 ..\..\..\..\..\..\..\..\..\..\microchip\harmony\v1_07_01\bin\framework\peripheral\PIC32MX440F256H_peripherals.a(peripheral.o)
 .text.PLIB_ETH_RxFuncResetDisable
                0x00000000        0x8 ..\..\..\..\..\..\..\..\..\..\microchip\harmony\v1_07_01\bin\framework\peripheral\PIC32MX440F256H_peripherals.a(peripheral.o)
 .text.PLIB_ETH_RxFuncResetIsEnabled
                0x00000000        0x8 ..\..\..\..\..\..\..\..\..\..\microchip\harmony\v1_07_01\bin\framework\peripheral\PIC32MX440F256H_peripherals.a(peripheral.o)
 .text.PLIB_ETH_MCSTxResetEnable
                0x00000000        0x8 ..\..\..\..\..\..\..\..\..\..\microchip\harmony\v1_07_01\bin\framework\peripheral\PIC32MX440F256H_peripherals.a(peripheral.o)
 .text.PLIB_ETH_MCSTxResetDisable
                0x00000000        0x8 ..\..\..\..\..\..\..\..\..\..\microchip\harmony\v1_07_01\bin\framework\peripheral\PIC32MX440F256H_peripherals.a(peripheral.o)
 .text.PLIB_ETH_MCSTxResetIsEnabled
                0x00000000        0x8 ..\..\..\..\..\..\..\..\..\..\microchip\harmony\v1_07_01\bin\framework\peripheral\PIC32MX440F256H_peripherals.a(peripheral.o)
 .text.PLIB_ETH_TxFuncResetEnable
                0x00000000        0x8 ..\..\..\..\..\..\..\..\..\..\microchip\harmony\v1_07_01\bin\framework\peripheral\PIC32MX440F256H_peripherals.a(peripheral.o)
 .text.PLIB_ETH_TxFuncResetDisable
                0x00000000        0x8 ..\..\..\..\..\..\..\..\..\..\microchip\harmony\v1_07_01\bin\framework\peripheral\PIC32MX440F256H_peripherals.a(peripheral.o)
 .text.PLIB_ETH_TxFuncResetIsEnabled
                0x00000000        0x8 ..\..\..\..\..\..\..\..\..\..\microchip\harmony\v1_07_01\bin\framework\peripheral\PIC32MX440F256H_peripherals.a(peripheral.o)
 .text.PLIB_ETH_ExistsMAC_Resets
                0x00000000        0x8 ..\..\..\..\..\..\..\..\..\..\microchip\harmony\v1_07_01\bin\framework\peripheral\PIC32MX440F256H_peripherals.a(peripheral.o)
 .text.PLIB_ETH_LoopbackEnable
                0x00000000        0x8 ..\..\..\..\..\..\..\..\..\..\microchip\harmony\v1_07_01\bin\framework\peripheral\PIC32MX440F256H_peripherals.a(peripheral.o)
 .text.PLIB_ETH_LoopbackDisable
                0x00000000        0x8 ..\..\..\..\..\..\..\..\..\..\microchip\harmony\v1_07_01\bin\framework\peripheral\PIC32MX440F256H_peripherals.a(peripheral.o)
 .text.PLIB_ETH_LoopbackIsEnabled
                0x00000000        0x8 ..\..\..\..\..\..\..\..\..\..\microchip\harmony\v1_07_01\bin\framework\peripheral\PIC32MX440F256H_peripherals.a(peripheral.o)
 .text.PLIB_ETH_TxPauseEnable
                0x00000000        0x8 ..\..\..\..\..\..\..\..\..\..\microchip\harmony\v1_07_01\bin\framework\peripheral\PIC32MX440F256H_peripherals.a(peripheral.o)
 .text.PLIB_ETH_TxPauseDisable
                0x00000000        0x8 ..\..\..\..\..\..\..\..\..\..\microchip\harmony\v1_07_01\bin\framework\peripheral\PIC32MX440F256H_peripherals.a(peripheral.o)
 .text.PLIB_ETH_TxPauseIsEnabled
                0x00000000        0x8 ..\..\..\..\..\..\..\..\..\..\microchip\harmony\v1_07_01\bin\framework\peripheral\PIC32MX440F256H_peripherals.a(peripheral.o)
 .text.PLIB_ETH_RxPauseEnable
                0x00000000        0x8 ..\..\..\..\..\..\..\..\..\..\microchip\harmony\v1_07_01\bin\framework\peripheral\PIC32MX440F256H_peripherals.a(peripheral.o)
 .text.PLIB_ETH_RxPauseDisable
                0x00000000        0x8 ..\..\..\..\..\..\..\..\..\..\microchip\harmony\v1_07_01\bin\framework\peripheral\PIC32MX440F256H_peripherals.a(peripheral.o)
 .text.PLIB_ETH_RxPauseIsEnabled
                0x00000000        0x8 ..\..\..\..\..\..\..\..\..\..\microchip\harmony\v1_07_01\bin\framework\peripheral\PIC32MX440F256H_peripherals.a(peripheral.o)
 .text.PLIB_ETH_PassAllEnable
                0x00000000        0x8 ..\..\..\..\..\..\..\..\..\..\microchip\harmony\v1_07_01\bin\framework\peripheral\PIC32MX440F256H_peripherals.a(peripheral.o)
 .text.PLIB_ETH_PassAllDisable
                0x00000000        0x8 ..\..\..\..\..\..\..\..\..\..\microchip\harmony\v1_07_01\bin\framework\peripheral\PIC32MX440F256H_peripherals.a(peripheral.o)
 .text.PLIB_ETH_PassAllIsEnabled
                0x00000000        0x8 ..\..\..\..\..\..\..\..\..\..\microchip\harmony\v1_07_01\bin\framework\peripheral\PIC32MX440F256H_peripherals.a(peripheral.o)
 .text.PLIB_ETH_ReceiveEnable
                0x00000000        0x8 ..\..\..\..\..\..\..\..\..\..\microchip\harmony\v1_07_01\bin\framework\peripheral\PIC32MX440F256H_peripherals.a(peripheral.o)
 .text.PLIB_ETH_ReceiveDisable
                0x00000000        0x8 ..\..\..\..\..\..\..\..\..\..\microchip\harmony\v1_07_01\bin\framework\peripheral\PIC32MX440F256H_peripherals.a(peripheral.o)
 .text.PLIB_ETH_ReceiveIsEnabled
                0x00000000        0x8 ..\..\..\..\..\..\..\..\..\..\microchip\harmony\v1_07_01\bin\framework\peripheral\PIC32MX440F256H_peripherals.a(peripheral.o)
 .text.PLIB_ETH_ExcessDeferEnable
                0x00000000        0x8 ..\..\..\..\..\..\..\..\..\..\microchip\harmony\v1_07_01\bin\framework\peripheral\PIC32MX440F256H_peripherals.a(peripheral.o)
 .text.PLIB_ETH_ExcessDeferDisable
                0x00000000        0x8 ..\..\..\..\..\..\..\..\..\..\microchip\harmony\v1_07_01\bin\framework\peripheral\PIC32MX440F256H_peripherals.a(peripheral.o)
 .text.PLIB_ETH_ExcessDeferIsEnabled
                0x00000000        0x8 ..\..\..\..\..\..\..\..\..\..\microchip\harmony\v1_07_01\bin\framework\peripheral\PIC32MX440F256H_peripherals.a(peripheral.o)
 .text.PLIB_ETH_BackPresNoBackoffEnable
                0x00000000        0x8 ..\..\..\..\..\..\..\..\..\..\microchip\harmony\v1_07_01\bin\framework\peripheral\PIC32MX440F256H_peripherals.a(peripheral.o)
 .text.PLIB_ETH_BackPresNoBackoffDisable
                0x00000000        0x8 ..\..\..\..\..\..\..\..\..\..\microchip\harmony\v1_07_01\bin\framework\peripheral\PIC32MX440F256H_peripherals.a(peripheral.o)
 .text.PLIB_ETH_BackPresNoBackoffIsEnabled
                0x00000000        0x8 ..\..\..\..\..\..\..\..\..\..\microchip\harmony\v1_07_01\bin\framework\peripheral\PIC32MX440F256H_peripherals.a(peripheral.o)
 .text.PLIB_ETH_NoBackoffEnable
                0x00000000        0x8 ..\..\..\..\..\..\..\..\..\..\microchip\harmony\v1_07_01\bin\framework\peripheral\PIC32MX440F256H_peripherals.a(peripheral.o)
 .text.PLIB_ETH_NoBackoffDisable
                0x00000000        0x8 ..\..\..\..\..\..\..\..\..\..\microchip\harmony\v1_07_01\bin\framework\peripheral\PIC32MX440F256H_peripherals.a(peripheral.o)
 .text.PLIB_ETH_NoBackoffIsEnabled
                0x00000000        0x8 ..\..\..\..\..\..\..\..\..\..\microchip\harmony\v1_07_01\bin\framework\peripheral\PIC32MX440F256H_peripherals.a(peripheral.o)
 .text.PLIB_ETH_LongPreambleEnable
                0x00000000        0x8 ..\..\..\..\..\..\..\..\..\..\microchip\harmony\v1_07_01\bin\framework\peripheral\PIC32MX440F256H_peripherals.a(peripheral.o)
 .text.PLIB_ETH_LongPreambleDisable
                0x00000000        0x8 ..\..\..\..\..\..\..\..\..\..\microchip\harmony\v1_07_01\bin\framework\peripheral\PIC32MX440F256H_peripherals.a(peripheral.o)
 .text.PLIB_ETH_LongPreambleIsEnabled
                0x00000000        0x8 ..\..\..\..\..\..\..\..\..\..\microchip\harmony\v1_07_01\bin\framework\peripheral\PIC32MX440F256H_peripherals.a(peripheral.o)
 .text.PLIB_ETH_PurePreambleEnable
                0x00000000        0x8 ..\..\..\..\..\..\..\..\..\..\microchip\harmony\v1_07_01\bin\framework\peripheral\PIC32MX440F256H_peripherals.a(peripheral.o)
 .text.PLIB_ETH_PurePreambleDisable
                0x00000000        0x8 ..\..\..\..\..\..\..\..\..\..\microchip\harmony\v1_07_01\bin\framework\peripheral\PIC32MX440F256H_peripherals.a(peripheral.o)
 .text.PLIB_ETH_PurePreambleIsEnabled
                0x00000000        0x8 ..\..\..\..\..\..\..\..\..\..\microchip\harmony\v1_07_01\bin\framework\peripheral\PIC32MX440F256H_peripherals.a(peripheral.o)
 .text.PLIB_ETH_AutoDetectPadGet
                0x00000000        0x8 ..\..\..\..\..\..\..\..\..\..\microchip\harmony\v1_07_01\bin\framework\peripheral\PIC32MX440F256H_peripherals.a(peripheral.o)
 .text.PLIB_ETH_AutoDetectPadSet
                0x00000000        0x8 ..\..\..\..\..\..\..\..\..\..\microchip\harmony\v1_07_01\bin\framework\peripheral\PIC32MX440F256H_peripherals.a(peripheral.o)
 .text.PLIB_ETH_AutoDetectPadClear
                0x00000000        0x8 ..\..\..\..\..\..\..\..\..\..\microchip\harmony\v1_07_01\bin\framework\peripheral\PIC32MX440F256H_peripherals.a(peripheral.o)
 .text.PLIB_ETH_CRCEnable
                0x00000000        0x8 ..\..\..\..\..\..\..\..\..\..\microchip\harmony\v1_07_01\bin\framework\peripheral\PIC32MX440F256H_peripherals.a(peripheral.o)
 .text.PLIB_ETH_CRCDisable
                0x00000000        0x8 ..\..\..\..\..\..\..\..\..\..\microchip\harmony\v1_07_01\bin\framework\peripheral\PIC32MX440F256H_peripherals.a(peripheral.o)
 .text.PLIB_ETH_CRCIsEnabled
                0x00000000        0x8 ..\..\..\..\..\..\..\..\..\..\microchip\harmony\v1_07_01\bin\framework\peripheral\PIC32MX440F256H_peripherals.a(peripheral.o)
 .text.PLIB_ETH_DelayedCRCEnable
                0x00000000        0x8 ..\..\..\..\..\..\..\..\..\..\microchip\harmony\v1_07_01\bin\framework\peripheral\PIC32MX440F256H_peripherals.a(peripheral.o)
 .text.PLIB_ETH_DelayedCRCDisable
                0x00000000        0x8 ..\..\..\..\..\..\..\..\..\..\microchip\harmony\v1_07_01\bin\framework\peripheral\PIC32MX440F256H_peripherals.a(peripheral.o)
 .text.PLIB_ETH_DelayedCRCIsEnabled
                0x00000000        0x8 ..\..\..\..\..\..\..\..\..\..\microchip\harmony\v1_07_01\bin\framework\peripheral\PIC32MX440F256H_peripherals.a(peripheral.o)
 .text.PLIB_ETH_HugeFrameEnable
                0x00000000        0x8 ..\..\..\..\..\..\..\..\..\..\microchip\harmony\v1_07_01\bin\framework\peripheral\PIC32MX440F256H_peripherals.a(peripheral.o)
 .text.PLIB_ETH_HugeFrameDisable
                0x00000000        0x8 ..\..\..\..\..\..\..\..\..\..\microchip\harmony\v1_07_01\bin\framework\peripheral\PIC32MX440F256H_peripherals.a(peripheral.o)
 .text.PLIB_ETH_HugeFrameIsEnabled
                0x00000000        0x8 ..\..\..\..\..\..\..\..\..\..\microchip\harmony\v1_07_01\bin\framework\peripheral\PIC32MX440F256H_peripherals.a(peripheral.o)
 .text.PLIB_ETH_FrameLengthCheckEnable
                0x00000000        0x8 ..\..\..\..\..\..\..\..\..\..\microchip\harmony\v1_07_01\bin\framework\peripheral\PIC32MX440F256H_peripherals.a(peripheral.o)
 .text.PLIB_ETH_FrameLengthCheckDisable
                0x00000000        0x8 ..\..\..\..\..\..\..\..\..\..\microchip\harmony\v1_07_01\bin\framework\peripheral\PIC32MX440F256H_peripherals.a(peripheral.o)
 .text.PLIB_ETH_FrameLengthCheckIsEnabled
                0x00000000        0x8 ..\..\..\..\..\..\..\..\..\..\microchip\harmony\v1_07_01\bin\framework\peripheral\PIC32MX440F256H_peripherals.a(peripheral.o)
 .text.PLIB_ETH_FullDuplexEnable
                0x00000000        0x8 ..\..\..\..\..\..\..\..\..\..\microchip\harmony\v1_07_01\bin\framework\peripheral\PIC32MX440F256H_peripherals.a(peripheral.o)
 .text.PLIB_ETH_FullDuplexDisable
                0x00000000        0x8 ..\..\..\..\..\..\..\..\..\..\microchip\harmony\v1_07_01\bin\framework\peripheral\PIC32MX440F256H_peripherals.a(peripheral.o)
 .text.PLIB_ETH_FullDuplexIsEnabled
                0x00000000        0x8 ..\..\..\..\..\..\..\..\..\..\microchip\harmony\v1_07_01\bin\framework\peripheral\PIC32MX440F256H_peripherals.a(peripheral.o)
 .text.PLIB_ETH_ExistsMAC_Configuration
                0x00000000        0x8 ..\..\..\..\..\..\..\..\..\..\microchip\harmony\v1_07_01\bin\framework\peripheral\PIC32MX440F256H_peripherals.a(peripheral.o)
 .text.PLIB_ETH_BackToBackIPGGet
                0x00000000        0x8 ..\..\..\..\..\..\..\..\..\..\microchip\harmony\v1_07_01\bin\framework\peripheral\PIC32MX440F256H_peripherals.a(peripheral.o)
 .text.PLIB_ETH_BackToBackIPGSet
                0x00000000        0x8 ..\..\..\..\..\..\..\..\..\..\microchip\harmony\v1_07_01\bin\framework\peripheral\PIC32MX440F256H_peripherals.a(peripheral.o)
 .text.PLIB_ETH_NonBackToBackIPG1Get
                0x00000000        0x8 ..\..\..\..\..\..\..\..\..\..\microchip\harmony\v1_07_01\bin\framework\peripheral\PIC32MX440F256H_peripherals.a(peripheral.o)
 .text.PLIB_ETH_NonBackToBackIPG1Set
                0x00000000        0x8 ..\..\..\..\..\..\..\..\..\..\microchip\harmony\v1_07_01\bin\framework\peripheral\PIC32MX440F256H_peripherals.a(peripheral.o)
 .text.PLIB_ETH_NonBackToBackIPG2Get
                0x00000000        0x8 ..\..\..\..\..\..\..\..\..\..\microchip\harmony\v1_07_01\bin\framework\peripheral\PIC32MX440F256H_peripherals.a(peripheral.o)
 .text.PLIB_ETH_NonBackToBackIPG2Set
                0x00000000        0x8 ..\..\..\..\..\..\..\..\..\..\microchip\harmony\v1_07_01\bin\framework\peripheral\PIC32MX440F256H_peripherals.a(peripheral.o)
 .text.PLIB_ETH_ExistsInterPacketGaps
                0x00000000        0x8 ..\..\..\..\..\..\..\..\..\..\microchip\harmony\v1_07_01\bin\framework\peripheral\PIC32MX440F256H_peripherals.a(peripheral.o)
 .text.PLIB_ETH_CollisionWindowGet
                0x00000000        0x8 ..\..\..\..\..\..\..\..\..\..\microchip\harmony\v1_07_01\bin\framework\peripheral\PIC32MX440F256H_peripherals.a(peripheral.o)
 .text.PLIB_ETH_CollisionWindowSet
                0x00000000        0x8 ..\..\..\..\..\..\..\..\..\..\microchip\harmony\v1_07_01\bin\framework\peripheral\PIC32MX440F256H_peripherals.a(peripheral.o)
 .text.PLIB_ETH_ExistsCollisionWindow
                0x00000000        0x8 ..\..\..\..\..\..\..\..\..\..\microchip\harmony\v1_07_01\bin\framework\peripheral\PIC32MX440F256H_peripherals.a(peripheral.o)
 .text.PLIB_ETH_ReTxMaxGet
                0x00000000        0x8 ..\..\..\..\..\..\..\..\..\..\microchip\harmony\v1_07_01\bin\framework\peripheral\PIC32MX440F256H_peripherals.a(peripheral.o)
 .text.PLIB_ETH_ReTxMaxSet
                0x00000000        0x8 ..\..\..\..\..\..\..\..\..\..\microchip\harmony\v1_07_01\bin\framework\peripheral\PIC32MX440F256H_peripherals.a(peripheral.o)
 .text.PLIB_ETH_ExistsRetransmissionMaximum
                0x00000000        0x8 ..\..\..\..\..\..\..\..\..\..\microchip\harmony\v1_07_01\bin\framework\peripheral\PIC32MX440F256H_peripherals.a(peripheral.o)
 .text.PLIB_ETH_MaxFrameLengthGet
                0x00000000        0x8 ..\..\..\..\..\..\..\..\..\..\microchip\harmony\v1_07_01\bin\framework\peripheral\PIC32MX440F256H_peripherals.a(peripheral.o)
 .text.PLIB_ETH_MaxFrameLengthSet
                0x00000000        0x8 ..\..\..\..\..\..\..\..\..\..\microchip\harmony\v1_07_01\bin\framework\peripheral\PIC32MX440F256H_peripherals.a(peripheral.o)
 .text.PLIB_ETH_ExistsMaxFrameLength
                0x00000000        0x8 ..\..\..\..\..\..\..\..\..\..\microchip\harmony\v1_07_01\bin\framework\peripheral\PIC32MX440F256H_peripherals.a(peripheral.o)
 .text.PLIB_ETH_RMIIResetEnable
                0x00000000        0x8 ..\..\..\..\..\..\..\..\..\..\microchip\harmony\v1_07_01\bin\framework\peripheral\PIC32MX440F256H_peripherals.a(peripheral.o)
 .text.PLIB_ETH_RMIIResetDisable
                0x00000000        0x8 ..\..\..\..\..\..\..\..\..\..\microchip\harmony\v1_07_01\bin\framework\peripheral\PIC32MX440F256H_peripherals.a(peripheral.o)
 .text.PLIB_ETH_RMIIResetIsEnabled
                0x00000000        0x8 ..\..\..\..\..\..\..\..\..\..\microchip\harmony\v1_07_01\bin\framework\peripheral\PIC32MX440F256H_peripherals.a(peripheral.o)
 .text.PLIB_ETH_RMIISpeedGet
                0x00000000        0x8 ..\..\..\..\..\..\..\..\..\..\microchip\harmony\v1_07_01\bin\framework\peripheral\PIC32MX440F256H_peripherals.a(peripheral.o)
 .text.PLIB_ETH_RMIISpeedSet
                0x00000000        0x8 ..\..\..\..\..\..\..\..\..\..\microchip\harmony\v1_07_01\bin\framework\peripheral\PIC32MX440F256H_peripherals.a(peripheral.o)
 .text.PLIB_ETH_ExistsRMII_Support
                0x00000000        0x8 ..\..\..\..\..\..\..\..\..\..\microchip\harmony\v1_07_01\bin\framework\peripheral\PIC32MX440F256H_peripherals.a(peripheral.o)
 .text.PLIB_ETH_TestBackPressEnable
                0x00000000        0x8 ..\..\..\..\..\..\..\..\..\..\microchip\harmony\v1_07_01\bin\framework\peripheral\PIC32MX440F256H_peripherals.a(peripheral.o)
 .text.PLIB_ETH_TestBackPressDisable
                0x00000000        0x8 ..\..\..\..\..\..\..\..\..\..\microchip\harmony\v1_07_01\bin\framework\peripheral\PIC32MX440F256H_peripherals.a(peripheral.o)
 .text.PLIB_ETH_TestBackPressIsEnabled
                0x00000000        0x8 ..\..\..\..\..\..\..\..\..\..\microchip\harmony\v1_07_01\bin\framework\peripheral\PIC32MX440F256H_peripherals.a(peripheral.o)
 .text.PLIB_ETH_TestPauseEnable
                0x00000000        0x8 ..\..\..\..\..\..\..\..\..\..\microchip\harmony\v1_07_01\bin\framework\peripheral\PIC32MX440F256H_peripherals.a(peripheral.o)
 .text.PLIB_ETH_TestPauseDisable
                0x00000000        0x8 ..\..\..\..\..\..\..\..\..\..\microchip\harmony\v1_07_01\bin\framework\peripheral\PIC32MX440F256H_peripherals.a(peripheral.o)
 .text.PLIB_ETH_TestPauseIsEnabled
                0x00000000        0x8 ..\..\..\..\..\..\..\..\..\..\microchip\harmony\v1_07_01\bin\framework\peripheral\PIC32MX440F256H_peripherals.a(peripheral.o)
 .text.PLIB_ETH_ShortcutQuantaEnable
                0x00000000        0x8 ..\..\..\..\..\..\..\..\..\..\microchip\harmony\v1_07_01\bin\framework\peripheral\PIC32MX440F256H_peripherals.a(peripheral.o)
 .text.PLIB_ETH_ShortcutQuantaDisable
                0x00000000        0x8 ..\..\..\..\..\..\..\..\..\..\microchip\harmony\v1_07_01\bin\framework\peripheral\PIC32MX440F256H_peripherals.a(peripheral.o)
 .text.PLIB_ETH_ShortcutQuantaIsEnabled
                0x00000000        0x8 ..\..\..\..\..\..\..\..\..\..\microchip\harmony\v1_07_01\bin\framework\peripheral\PIC32MX440F256H_peripherals.a(peripheral.o)
 .text.PLIB_ETH_ExistsMAC_Testing
                0x00000000        0x8 ..\..\..\..\..\..\..\..\..\..\microchip\harmony\v1_07_01\bin\framework\peripheral\PIC32MX440F256H_peripherals.a(peripheral.o)
 .text.PLIB_ETH_MIIMResetEnable
                0x00000000        0x8 ..\..\..\..\..\..\..\..\..\..\microchip\harmony\v1_07_01\bin\framework\peripheral\PIC32MX440F256H_peripherals.a(peripheral.o)
 .text.PLIB_ETH_MIIMResetDisable
                0x00000000        0x8 ..\..\..\..\..\..\..\..\..\..\microchip\harmony\v1_07_01\bin\framework\peripheral\PIC32MX440F256H_peripherals.a(peripheral.o)
 .text.PLIB_ETH_MIIMResetIsEnabled
                0x00000000        0x8 ..\..\..\..\..\..\..\..\..\..\microchip\harmony\v1_07_01\bin\framework\peripheral\PIC32MX440F256H_peripherals.a(peripheral.o)
 .text.PLIB_ETH_MIIMClockGet
                0x00000000        0x8 ..\..\..\..\..\..\..\..\..\..\microchip\harmony\v1_07_01\bin\framework\peripheral\PIC32MX440F256H_peripherals.a(peripheral.o)
 .text.PLIB_ETH_MIIMClockSet
                0x00000000        0x8 ..\..\..\..\..\..\..\..\..\..\microchip\harmony\v1_07_01\bin\framework\peripheral\PIC32MX440F256H_peripherals.a(peripheral.o)
 .text.PLIB_ETH_MIIMNoPreEnable
                0x00000000        0x8 ..\..\..\..\..\..\..\..\..\..\microchip\harmony\v1_07_01\bin\framework\peripheral\PIC32MX440F256H_peripherals.a(peripheral.o)
 .text.PLIB_ETH_MIIMNoPreDisable
                0x00000000        0x8 ..\..\..\..\..\..\..\..\..\..\microchip\harmony\v1_07_01\bin\framework\peripheral\PIC32MX440F256H_peripherals.a(peripheral.o)
 .text.PLIB_ETH_MIIMNoPreIsEnabled
                0x00000000        0x8 ..\..\..\..\..\..\..\..\..\..\microchip\harmony\v1_07_01\bin\framework\peripheral\PIC32MX440F256H_peripherals.a(peripheral.o)
 .text.PLIB_ETH_MIIMScanIncrEnable
                0x00000000        0x8 ..\..\..\..\..\..\..\..\..\..\microchip\harmony\v1_07_01\bin\framework\peripheral\PIC32MX440F256H_peripherals.a(peripheral.o)
 .text.PLIB_ETH_MIIMScanIncrDisable
                0x00000000        0x8 ..\..\..\..\..\..\..\..\..\..\microchip\harmony\v1_07_01\bin\framework\peripheral\PIC32MX440F256H_peripherals.a(peripheral.o)
 .text.PLIB_ETH_MIIMScanIncrIsEnabled
                0x00000000        0x8 ..\..\..\..\..\..\..\..\..\..\microchip\harmony\v1_07_01\bin\framework\peripheral\PIC32MX440F256H_peripherals.a(peripheral.o)
 .text.PLIB_ETH_ExistsMIIM_Config
                0x00000000        0x8 ..\..\..\..\..\..\..\..\..\..\microchip\harmony\v1_07_01\bin\framework\peripheral\PIC32MX440F256H_peripherals.a(peripheral.o)
 .text.PLIB_ETH_MIIMScanModeEnable
                0x00000000        0x8 ..\..\..\..\..\..\..\..\..\..\microchip\harmony\v1_07_01\bin\framework\peripheral\PIC32MX440F256H_peripherals.a(peripheral.o)
 .text.PLIB_ETH_MIIMScanModeDisable
                0x00000000        0x8 ..\..\..\..\..\..\..\..\..\..\microchip\harmony\v1_07_01\bin\framework\peripheral\PIC32MX440F256H_peripherals.a(peripheral.o)
 .text.PLIB_ETH_MIIMScanModeIsEnabled
                0x00000000        0x8 ..\..\..\..\..\..\..\..\..\..\microchip\harmony\v1_07_01\bin\framework\peripheral\PIC32MX440F256H_peripherals.a(peripheral.o)
 .text.PLIB_ETH_ExistsMIIMScanMode
                0x00000000        0x8 ..\..\..\..\..\..\..\..\..\..\microchip\harmony\v1_07_01\bin\framework\peripheral\PIC32MX440F256H_peripherals.a(peripheral.o)
 .text.PLIB_ETH_MIIMReadStart
                0x00000000        0x8 ..\..\..\..\..\..\..\..\..\..\microchip\harmony\v1_07_01\bin\framework\peripheral\PIC32MX440F256H_peripherals.a(peripheral.o)
 .text.PLIB_ETH_MIIMWriteStart
                0x00000000        0x8 ..\..\..\..\..\..\..\..\..\..\microchip\harmony\v1_07_01\bin\framework\peripheral\PIC32MX440F256H_peripherals.a(peripheral.o)
 .text.PLIB_ETH_ExistsMIIMReadWrite
                0x00000000        0x8 ..\..\..\..\..\..\..\..\..\..\microchip\harmony\v1_07_01\bin\framework\peripheral\PIC32MX440F256H_peripherals.a(peripheral.o)
 .text.PLIB_ETH_PHYAddressGet
                0x00000000        0x8 ..\..\..\..\..\..\..\..\..\..\microchip\harmony\v1_07_01\bin\framework\peripheral\PIC32MX440F256H_peripherals.a(peripheral.o)
 .text.PLIB_ETH_PHYAddressSet
                0x00000000        0x8 ..\..\..\..\..\..\..\..\..\..\microchip\harmony\v1_07_01\bin\framework\peripheral\PIC32MX440F256H_peripherals.a(peripheral.o)
 .text.PLIB_ETH_RegisterAddressGet
                0x00000000        0x8 ..\..\..\..\..\..\..\..\..\..\microchip\harmony\v1_07_01\bin\framework\peripheral\PIC32MX440F256H_peripherals.a(peripheral.o)
 .text.PLIB_ETH_RegisterAddressSet
                0x00000000        0x8 ..\..\..\..\..\..\..\..\..\..\microchip\harmony\v1_07_01\bin\framework\peripheral\PIC32MX440F256H_peripherals.a(peripheral.o)
 .text.PLIB_ETH_ExistsMIIMAddresses
                0x00000000        0x8 ..\..\..\..\..\..\..\..\..\..\microchip\harmony\v1_07_01\bin\framework\peripheral\PIC32MX440F256H_peripherals.a(peripheral.o)
 .text.PLIB_ETH_MIIMWriteDataSet
                0x00000000        0x8 ..\..\..\..\..\..\..\..\..\..\microchip\harmony\v1_07_01\bin\framework\peripheral\PIC32MX440F256H_peripherals.a(peripheral.o)
 .text.PLIB_ETH_MIIMReadDataGet
                0x00000000        0x8 ..\..\..\..\..\..\..\..\..\..\microchip\harmony\v1_07_01\bin\framework\peripheral\PIC32MX440F256H_peripherals.a(peripheral.o)
 .text.PLIB_ETH_ExistsMIIWriteReadData
                0x00000000        0x8 ..\..\..\..\..\..\..\..\..\..\microchip\harmony\v1_07_01\bin\framework\peripheral\PIC32MX440F256H_peripherals.a(peripheral.o)
 .text.PLIB_ETH_LinkHasFailed
                0x00000000        0x8 ..\..\..\..\..\..\..\..\..\..\microchip\harmony\v1_07_01\bin\framework\peripheral\PIC32MX440F256H_peripherals.a(peripheral.o)
 .text.PLIB_ETH_DataNotValid
                0x00000000        0x8 ..\..\..\..\..\..\..\..\..\..\microchip\harmony\v1_07_01\bin\framework\peripheral\PIC32MX440F256H_peripherals.a(peripheral.o)
 .text.PLIB_ETH_MIIMIsScanning
                0x00000000        0x8 ..\..\..\..\..\..\..\..\..\..\microchip\harmony\v1_07_01\bin\framework\peripheral\PIC32MX440F256H_peripherals.a(peripheral.o)
 .text.PLIB_ETH_MIIMIsBusy
                0x00000000        0x8 ..\..\..\..\..\..\..\..\..\..\microchip\harmony\v1_07_01\bin\framework\peripheral\PIC32MX440F256H_peripherals.a(peripheral.o)
 .text.PLIB_ETH_ExistsMIIM_Indicators
                0x00000000        0x8 ..\..\..\..\..\..\..\..\..\..\microchip\harmony\v1_07_01\bin\framework\peripheral\PIC32MX440F256H_peripherals.a(peripheral.o)
 .text.PLIB_ETH_StationAddressGet
                0x00000000        0x8 ..\..\..\..\..\..\..\..\..\..\microchip\harmony\v1_07_01\bin\framework\peripheral\PIC32MX440F256H_peripherals.a(peripheral.o)
 .text.PLIB_ETH_StationAddressSet
                0x00000000        0x8 ..\..\..\..\..\..\..\..\..\..\microchip\harmony\v1_07_01\bin\framework\peripheral\PIC32MX440F256H_peripherals.a(peripheral.o)
 .text.PLIB_ETH_ExistsStationAddress
                0x00000000        0x8 ..\..\..\..\..\..\..\..\..\..\microchip\harmony\v1_07_01\bin\framework\peripheral\PIC32MX440F256H_peripherals.a(peripheral.o)
 .text.PLIB_I2C_SlaveClockStretchingEnable
                0x00000000       0x44 ..\..\..\..\..\..\..\..\..\..\microchip\harmony\v1_07_01\bin\framework\peripheral\PIC32MX440F256H_peripherals.a(peripheral.o)
 .text.PLIB_I2C_SlaveClockStretchingDisable
                0x00000000       0x44 ..\..\..\..\..\..\..\..\..\..\microchip\harmony\v1_07_01\bin\framework\peripheral\PIC32MX440F256H_peripherals.a(peripheral.o)
 .text.PLIB_I2C_ExistsClockStretching
                0x00000000        0x8 ..\..\..\..\..\..\..\..\..\..\microchip\harmony\v1_07_01\bin\framework\peripheral\PIC32MX440F256H_peripherals.a(peripheral.o)
 .text.PLIB_I2C_GeneralCallEnable
                0x00000000       0x44 ..\..\..\..\..\..\..\..\..\..\microchip\harmony\v1_07_01\bin\framework\peripheral\PIC32MX440F256H_peripherals.a(peripheral.o)
 .text.PLIB_I2C_GeneralCallDisable
                0x00000000       0x44 ..\..\..\..\..\..\..\..\..\..\microchip\harmony\v1_07_01\bin\framework\peripheral\PIC32MX440F256H_peripherals.a(peripheral.o)
 .text.PLIB_I2C_ExistsGeneralCall
                0x00000000        0x8 ..\..\..\..\..\..\..\..\..\..\microchip\harmony\v1_07_01\bin\framework\peripheral\PIC32MX440F256H_peripherals.a(peripheral.o)
 .text.PLIB_I2C_SMBEnable
                0x00000000       0x44 ..\..\..\..\..\..\..\..\..\..\microchip\harmony\v1_07_01\bin\framework\peripheral\PIC32MX440F256H_peripherals.a(peripheral.o)
 .text.PLIB_I2C_SMBDisable
                0x00000000       0x44 ..\..\..\..\..\..\..\..\..\..\microchip\harmony\v1_07_01\bin\framework\peripheral\PIC32MX440F256H_peripherals.a(peripheral.o)
 .text.PLIB_I2C_ExistsSMBus
                0x00000000        0x8 ..\..\..\..\..\..\..\..\..\..\microchip\harmony\v1_07_01\bin\framework\peripheral\PIC32MX440F256H_peripherals.a(peripheral.o)
 .text.PLIB_I2C_HighFrequencyEnable
                0x00000000       0x44 ..\..\..\..\..\..\..\..\..\..\microchip\harmony\v1_07_01\bin\framework\peripheral\PIC32MX440F256H_peripherals.a(peripheral.o)
 .text.PLIB_I2C_HighFrequencyDisable
                0x00000000       0x44 ..\..\..\..\..\..\..\..\..\..\microchip\harmony\v1_07_01\bin\framework\peripheral\PIC32MX440F256H_peripherals.a(peripheral.o)
 .text.PLIB_I2C_ExistsHighFrequency
                0x00000000        0x8 ..\..\..\..\..\..\..\..\..\..\microchip\harmony\v1_07_01\bin\framework\peripheral\PIC32MX440F256H_peripherals.a(peripheral.o)
 .text.PLIB_I2C_ReservedAddressProtectEnable
                0x00000000       0x44 ..\..\..\..\..\..\..\..\..\..\microchip\harmony\v1_07_01\bin\framework\peripheral\PIC32MX440F256H_peripherals.a(peripheral.o)
 .text.PLIB_I2C_ReservedAddressProtectDisable
                0x00000000       0x44 ..\..\..\..\..\..\..\..\..\..\microchip\harmony\v1_07_01\bin\framework\peripheral\PIC32MX440F256H_peripherals.a(peripheral.o)
 .text.PLIB_I2C_ExistsReservedAddressProtect
                0x00000000        0x8 ..\..\..\..\..\..\..\..\..\..\microchip\harmony\v1_07_01\bin\framework\peripheral\PIC32MX440F256H_peripherals.a(peripheral.o)
 .text.PLIB_I2C_StopInIdleEnable
                0x00000000       0x44 ..\..\..\..\..\..\..\..\..\..\microchip\harmony\v1_07_01\bin\framework\peripheral\PIC32MX440F256H_peripherals.a(peripheral.o)
 .text.PLIB_I2C_StopInIdleDisable
                0x00000000       0x44 ..\..\..\..\..\..\..\..\..\..\microchip\harmony\v1_07_01\bin\framework\peripheral\PIC32MX440F256H_peripherals.a(peripheral.o)
 .text.PLIB_I2C_ExistsStopInIdle
                0x00000000        0x8 ..\..\..\..\..\..\..\..\..\..\microchip\harmony\v1_07_01\bin\framework\peripheral\PIC32MX440F256H_peripherals.a(peripheral.o)
 .text.PLIB_I2C_IPMIEnable
                0x00000000        0x8 ..\..\..\..\..\..\..\..\..\..\microchip\harmony\v1_07_01\bin\framework\peripheral\PIC32MX440F256H_peripherals.a(peripheral.o)
 .text.PLIB_I2C_IPMIDisable
                0x00000000        0x8 ..\..\..\..\..\..\..\..\..\..\microchip\harmony\v1_07_01\bin\framework\peripheral\PIC32MX440F256H_peripherals.a(peripheral.o)
 .text.PLIB_I2C_ExistsIPMI
                0x00000000        0x8 ..\..\..\..\..\..\..\..\..\..\microchip\harmony\v1_07_01\bin\framework\peripheral\PIC32MX440F256H_peripherals.a(peripheral.o)
 .text.PLIB_I2C_Enable
                0x00000000       0x44 ..\..\..\..\..\..\..\..\..\..\microchip\harmony\v1_07_01\bin\framework\peripheral\PIC32MX440F256H_peripherals.a(peripheral.o)
 .text.PLIB_I2C_Disable
                0x00000000       0x44 ..\..\..\..\..\..\..\..\..\..\microchip\harmony\v1_07_01\bin\framework\peripheral\PIC32MX440F256H_peripherals.a(peripheral.o)
 .text.PLIB_I2C_ExistsModuleEnable
                0x00000000        0x8 ..\..\..\..\..\..\..\..\..\..\microchip\harmony\v1_07_01\bin\framework\peripheral\PIC32MX440F256H_peripherals.a(peripheral.o)
 .text.PLIB_I2C_StartWasDetected
                0x00000000       0x34 ..\..\..\..\..\..\..\..\..\..\microchip\harmony\v1_07_01\bin\framework\peripheral\PIC32MX440F256H_peripherals.a(peripheral.o)
 .text.PLIB_I2C_StartClear
                0x00000000       0x44 ..\..\..\..\..\..\..\..\..\..\microchip\harmony\v1_07_01\bin\framework\peripheral\PIC32MX440F256H_peripherals.a(peripheral.o)
 .text.PLIB_I2C_ExistsStartDetect
                0x00000000        0x8 ..\..\..\..\..\..\..\..\..\..\microchip\harmony\v1_07_01\bin\framework\peripheral\PIC32MX440F256H_peripherals.a(peripheral.o)
 .text.PLIB_I2C_StopWasDetected
                0x00000000       0x34 ..\..\..\..\..\..\..\..\..\..\microchip\harmony\v1_07_01\bin\framework\peripheral\PIC32MX440F256H_peripherals.a(peripheral.o)
 .text.PLIB_I2C_StopClear
                0x00000000       0x44 ..\..\..\..\..\..\..\..\..\..\microchip\harmony\v1_07_01\bin\framework\peripheral\PIC32MX440F256H_peripherals.a(peripheral.o)
 .text.PLIB_I2C_ExistsStopDetect
                0x00000000        0x8 ..\..\..\..\..\..\..\..\..\..\microchip\harmony\v1_07_01\bin\framework\peripheral\PIC32MX440F256H_peripherals.a(peripheral.o)
 .text.PLIB_I2C_ArbitrationLossHasOccurred
                0x00000000       0x34 ..\..\..\..\..\..\..\..\..\..\microchip\harmony\v1_07_01\bin\framework\peripheral\PIC32MX440F256H_peripherals.a(peripheral.o)
 .text.PLIB_I2C_ArbitrationLossClear
                0x00000000       0x44 ..\..\..\..\..\..\..\..\..\..\microchip\harmony\v1_07_01\bin\framework\peripheral\PIC32MX440F256H_peripherals.a(peripheral.o)
 .text.PLIB_I2C_ExistsArbitrationLoss
                0x00000000        0x8 ..\..\..\..\..\..\..\..\..\..\microchip\harmony\v1_07_01\bin\framework\peripheral\PIC32MX440F256H_peripherals.a(peripheral.o)
 .text.PLIB_I2C_BusIsIdle
                0x00000000       0x68 ..\..\..\..\..\..\..\..\..\..\microchip\harmony\v1_07_01\bin\framework\peripheral\PIC32MX440F256H_peripherals.a(peripheral.o)
 .text.PLIB_I2C_ExistsBusIsIdle
                0x00000000        0x8 ..\..\..\..\..\..\..\..\..\..\microchip\harmony\v1_07_01\bin\framework\peripheral\PIC32MX440F256H_peripherals.a(peripheral.o)
 .text.PLIB_I2C_BaudRateSet
                0x00000000       0x8c ..\..\..\..\..\..\..\..\..\..\microchip\harmony\v1_07_01\bin\framework\peripheral\PIC32MX440F256H_peripherals.a(peripheral.o)
 .text.PLIB_I2C_BaudRateGet
                0x00000000       0x84 ..\..\..\..\..\..\..\..\..\..\microchip\harmony\v1_07_01\bin\framework\peripheral\PIC32MX440F256H_peripherals.a(peripheral.o)
 .text.PLIB_I2C_ExistsBaudRate
                0x00000000        0x8 ..\..\..\..\..\..\..\..\..\..\microchip\harmony\v1_07_01\bin\framework\peripheral\PIC32MX440F256H_peripherals.a(peripheral.o)
 .text.PLIB_I2C_SlaveAddress7BitSet
                0x00000000       0x58 ..\..\..\..\..\..\..\..\..\..\microchip\harmony\v1_07_01\bin\framework\peripheral\PIC32MX440F256H_peripherals.a(peripheral.o)
 .text.PLIB_I2C_SlaveAddress7BitGet
                0x00000000       0x34 ..\..\..\..\..\..\..\..\..\..\microchip\harmony\v1_07_01\bin\framework\peripheral\PIC32MX440F256H_peripherals.a(peripheral.o)
 .text.PLIB_I2C_ExistsSlaveAddress7Bit
                0x00000000        0x8 ..\..\..\..\..\..\..\..\..\..\microchip\harmony\v1_07_01\bin\framework\peripheral\PIC32MX440F256H_peripherals.a(peripheral.o)
 .text.PLIB_I2C_SlaveAddress10BitSet
                0x00000000       0x58 ..\..\..\..\..\..\..\..\..\..\microchip\harmony\v1_07_01\bin\framework\peripheral\PIC32MX440F256H_peripherals.a(peripheral.o)
 .text.PLIB_I2C_SlaveAddress10BitGet
                0x00000000       0x34 ..\..\..\..\..\..\..\..\..\..\microchip\harmony\v1_07_01\bin\framework\peripheral\PIC32MX440F256H_peripherals.a(peripheral.o)
 .text.PLIB_I2C_SlaveAddressModeIs10Bits
                0x00000000       0x34 ..\..\..\..\..\..\..\..\..\..\microchip\harmony\v1_07_01\bin\framework\peripheral\PIC32MX440F256H_peripherals.a(peripheral.o)
 .text.PLIB_I2C_ExistsSlaveAddress10Bit
                0x00000000        0x8 ..\..\..\..\..\..\..\..\..\..\microchip\harmony\v1_07_01\bin\framework\peripheral\PIC32MX440F256H_peripherals.a(peripheral.o)
 .text.PLIB_I2C_SlaveAddress10BitWasDetected
                0x00000000       0x34 ..\..\..\..\..\..\..\..\..\..\microchip\harmony\v1_07_01\bin\framework\peripheral\PIC32MX440F256H_peripherals.a(peripheral.o)
 .text.PLIB_I2C_ExistsSlaveAddressDetect
                0x00000000        0x8 ..\..\..\..\..\..\..\..\..\..\microchip\harmony\v1_07_01\bin\framework\peripheral\PIC32MX440F256H_peripherals.a(peripheral.o)
 .text.PLIB_I2C_SlaveAddressIsGeneralCall
                0x00000000       0x34 ..\..\..\..\..\..\..\..\..\..\microchip\harmony\v1_07_01\bin\framework\peripheral\PIC32MX440F256H_peripherals.a(peripheral.o)
 .text.PLIB_I2C_ExistsGeneralCallAddressDetect
                0x00000000        0x8 ..\..\..\..\..\..\..\..\..\..\microchip\harmony\v1_07_01\bin\framework\peripheral\PIC32MX440F256H_peripherals.a(peripheral.o)
 .text.PLIB_I2C_SlaveMask7BitSet
                0x00000000       0x38 ..\..\..\..\..\..\..\..\..\..\microchip\harmony\v1_07_01\bin\framework\peripheral\PIC32MX440F256H_peripherals.a(peripheral.o)
 .text.PLIB_I2C_SlaveMask7BitGet
                0x00000000       0x34 ..\..\..\..\..\..\..\..\..\..\microchip\harmony\v1_07_01\bin\framework\peripheral\PIC32MX440F256H_peripherals.a(peripheral.o)
 .text.PLIB_I2C_SlaveMask10BitSet
                0x00000000       0x38 ..\..\..\..\..\..\..\..\..\..\microchip\harmony\v1_07_01\bin\framework\peripheral\PIC32MX440F256H_peripherals.a(peripheral.o)
 .text.PLIB_I2C_SlaveMask10BitGet
                0x00000000       0x34 ..\..\..\..\..\..\..\..\..\..\microchip\harmony\v1_07_01\bin\framework\peripheral\PIC32MX440F256H_peripherals.a(peripheral.o)
 .text.PLIB_I2C_ExistsSlaveMask
                0x00000000        0x8 ..\..\..\..\..\..\..\..\..\..\microchip\harmony\v1_07_01\bin\framework\peripheral\PIC32MX440F256H_peripherals.a(peripheral.o)
 .text.PLIB_I2C_SlaveReadIsRequested
                0x00000000       0x34 ..\..\..\..\..\..\..\..\..\..\microchip\harmony\v1_07_01\bin\framework\peripheral\PIC32MX440F256H_peripherals.a(peripheral.o)
 .text.PLIB_I2C_ExistsSlaveReadRequest
                0x00000000        0x8 ..\..\..\..\..\..\..\..\..\..\microchip\harmony\v1_07_01\bin\framework\peripheral\PIC32MX440F256H_peripherals.a(peripheral.o)
 .text.PLIB_I2C_SlaveDataIsDetected
                0x00000000       0x34 ..\..\..\..\..\..\..\..\..\..\microchip\harmony\v1_07_01\bin\framework\peripheral\PIC32MX440F256H_peripherals.a(peripheral.o)
 .text.PLIB_I2C_SlaveAddressIsDetected
                0x00000000       0x3c ..\..\..\..\..\..\..\..\..\..\microchip\harmony\v1_07_01\bin\framework\peripheral\PIC32MX440F256H_peripherals.a(peripheral.o)
 .text.PLIB_I2C_ExistsSlaveDataDetect
                0x00000000        0x8 ..\..\..\..\..\..\..\..\..\..\microchip\harmony\v1_07_01\bin\framework\peripheral\PIC32MX440F256H_peripherals.a(peripheral.o)
 .text.PLIB_I2C_SlaveClockHold
                0x00000000       0x44 ..\..\..\..\..\..\..\..\..\..\microchip\harmony\v1_07_01\bin\framework\peripheral\PIC32MX440F256H_peripherals.a(peripheral.o)
 .text.PLIB_I2C_SlaveClockRelease
                0x00000000       0x44 ..\..\..\..\..\..\..\..\..\..\microchip\harmony\v1_07_01\bin\framework\peripheral\PIC32MX440F256H_peripherals.a(peripheral.o)
 .text.PLIB_I2C_ExistsSlaveClockHold
                0x00000000        0x8 ..\..\..\..\..\..\..\..\..\..\microchip\harmony\v1_07_01\bin\framework\peripheral\PIC32MX440F256H_peripherals.a(peripheral.o)
 .text.PLIB_I2C_MasterStart
                0x00000000       0x44 ..\..\..\..\..\..\..\..\..\..\microchip\harmony\v1_07_01\bin\framework\peripheral\PIC32MX440F256H_peripherals.a(peripheral.o)
 .text.PLIB_I2C_ExistsMasterStart
                0x00000000        0x8 ..\..\..\..\..\..\..\..\..\..\microchip\harmony\v1_07_01\bin\framework\peripheral\PIC32MX440F256H_peripherals.a(peripheral.o)
 .text.PLIB_I2C_MasterStartRepeat
                0x00000000       0x44 ..\..\..\..\..\..\..\..\..\..\microchip\harmony\v1_07_01\bin\framework\peripheral\PIC32MX440F256H_peripherals.a(peripheral.o)
 .text.PLIB_I2C_ExistsMasterStartRepeat
                0x00000000        0x8 ..\..\..\..\..\..\..\..\..\..\microchip\harmony\v1_07_01\bin\framework\peripheral\PIC32MX440F256H_peripherals.a(peripheral.o)
 .text.PLIB_I2C_MasterReceiverClock1Byte
                0x00000000       0x44 ..\..\..\..\..\..\..\..\..\..\microchip\harmony\v1_07_01\bin\framework\peripheral\PIC32MX440F256H_peripherals.a(peripheral.o)
 .text.PLIB_I2C_ExistsMasterReceiverClock1Byte
                0x00000000        0x8 ..\..\..\..\..\..\..\..\..\..\microchip\harmony\v1_07_01\bin\framework\peripheral\PIC32MX440F256H_peripherals.a(peripheral.o)
 .text.PLIB_I2C_MasterStop
                0x00000000       0x44 ..\..\..\..\..\..\..\..\..\..\microchip\harmony\v1_07_01\bin\framework\peripheral\PIC32MX440F256H_peripherals.a(peripheral.o)
 .text.PLIB_I2C_ExistsMasterStop
                0x00000000        0x8 ..\..\..\..\..\..\..\..\..\..\microchip\harmony\v1_07_01\bin\framework\peripheral\PIC32MX440F256H_peripherals.a(peripheral.o)
 .text.PLIB_I2C_TransmitterIsBusy
                0x00000000       0x34 ..\..\..\..\..\..\..\..\..\..\microchip\harmony\v1_07_01\bin\framework\peripheral\PIC32MX440F256H_peripherals.a(peripheral.o)
 .text.PLIB_I2C_TransmitterIsReady
                0x00000000       0x3c ..\..\..\..\..\..\..\..\..\..\microchip\harmony\v1_07_01\bin\framework\peripheral\PIC32MX440F256H_peripherals.a(peripheral.o)
 .text.PLIB_I2C_ExistsTransmitterIsBusy
                0x00000000        0x8 ..\..\..\..\..\..\..\..\..\..\microchip\harmony\v1_07_01\bin\framework\peripheral\PIC32MX440F256H_peripherals.a(peripheral.o)
 .text.PLIB_I2C_TransmitterByteSend
                0x00000000       0x38 ..\..\..\..\..\..\..\..\..\..\microchip\harmony\v1_07_01\bin\framework\peripheral\PIC32MX440F256H_peripherals.a(peripheral.o)
 .text.PLIB_I2C_ExistsTransmitterByteSend
                0x00000000        0x8 ..\..\..\..\..\..\..\..\..\..\microchip\harmony\v1_07_01\bin\framework\peripheral\PIC32MX440F256H_peripherals.a(peripheral.o)
 .text.PLIB_I2C_TransmitterByteHasCompleted
                0x00000000       0x3c ..\..\..\..\..\..\..\..\..\..\microchip\harmony\v1_07_01\bin\framework\peripheral\PIC32MX440F256H_peripherals.a(peripheral.o)
 .text.PLIB_I2C_ExistsTransmitterByteComplete
                0x00000000        0x8 ..\..\..\..\..\..\..\..\..\..\microchip\harmony\v1_07_01\bin\framework\peripheral\PIC32MX440F256H_peripherals.a(peripheral.o)
 .text.PLIB_I2C_TransmitterByteWasAcknowledged
                0x00000000       0x3c ..\..\..\..\..\..\..\..\..\..\microchip\harmony\v1_07_01\bin\framework\peripheral\PIC32MX440F256H_peripherals.a(peripheral.o)
 .text.PLIB_I2C_ExistsTransmitterByteAcknowledge
                0x00000000        0x8 ..\..\..\..\..\..\..\..\..\..\microchip\harmony\v1_07_01\bin\framework\peripheral\PIC32MX440F256H_peripherals.a(peripheral.o)
 .text.PLIB_I2C_TransmitterOverflowHasOccurred
                0x00000000       0x34 ..\..\..\..\..\..\..\..\..\..\microchip\harmony\v1_07_01\bin\framework\peripheral\PIC32MX440F256H_peripherals.a(peripheral.o)
 .text.PLIB_I2C_TransmitterOverflowClear
                0x00000000       0x44 ..\..\..\..\..\..\..\..\..\..\microchip\harmony\v1_07_01\bin\framework\peripheral\PIC32MX440F256H_peripherals.a(peripheral.o)
 .text.PLIB_I2C_ExistsTransmitterOverflow
                0x00000000        0x8 ..\..\..\..\..\..\..\..\..\..\microchip\harmony\v1_07_01\bin\framework\peripheral\PIC32MX440F256H_peripherals.a(peripheral.o)
 .text.PLIB_I2C_ReceivedByteIsAvailable
                0x00000000       0x34 ..\..\..\..\..\..\..\..\..\..\microchip\harmony\v1_07_01\bin\framework\peripheral\PIC32MX440F256H_peripherals.a(peripheral.o)
 .text.PLIB_I2C_ExistsReceivedByteAvailable
                0x00000000        0x8 ..\..\..\..\..\..\..\..\..\..\microchip\harmony\v1_07_01\bin\framework\peripheral\PIC32MX440F256H_peripherals.a(peripheral.o)
 .text.PLIB_I2C_ReceivedByteGet
                0x00000000       0x34 ..\..\..\..\..\..\..\..\..\..\microchip\harmony\v1_07_01\bin\framework\peripheral\PIC32MX440F256H_peripherals.a(peripheral.o)
 .text.PLIB_I2C_ExistsReceivedByteGet
                0x00000000        0x8 ..\..\..\..\..\..\..\..\..\..\microchip\harmony\v1_07_01\bin\framework\peripheral\PIC32MX440F256H_peripherals.a(peripheral.o)
 .text.PLIB_I2C_ReceivedByteAcknowledge
                0x00000000       0xa4 ..\..\..\..\..\..\..\..\..\..\microchip\harmony\v1_07_01\bin\framework\peripheral\PIC32MX440F256H_peripherals.a(peripheral.o)
 .text.PLIB_I2C_ReceiverByteAcknowledgeHasCompleted
                0x00000000       0x3c ..\..\..\..\..\..\..\..\..\..\microchip\harmony\v1_07_01\bin\framework\peripheral\PIC32MX440F256H_peripherals.a(peripheral.o)
 .text.PLIB_I2C_MasterReceiverReadyToAcknowledge
                0x00000000       0x3c ..\..\..\..\..\..\..\..\..\..\microchip\harmony\v1_07_01\bin\framework\peripheral\PIC32MX440F256H_peripherals.a(peripheral.o)
 .text.PLIB_I2C_ExistsReceivedByteAcknowledge
                0x00000000        0x8 ..\..\..\..\..\..\..\..\..\..\microchip\harmony\v1_07_01\bin\framework\peripheral\PIC32MX440F256H_peripherals.a(peripheral.o)
 .text.PLIB_I2C_ReceiverOverflowHasOccurred
                0x00000000       0x34 ..\..\..\..\..\..\..\..\..\..\microchip\harmony\v1_07_01\bin\framework\peripheral\PIC32MX440F256H_peripherals.a(peripheral.o)
 .text.PLIB_I2C_ReceiverOverflowClear
                0x00000000       0x44 ..\..\..\..\..\..\..\..\..\..\microchip\harmony\v1_07_01\bin\framework\peripheral\PIC32MX440F256H_peripherals.a(peripheral.o)
 .text.PLIB_I2C_ExistsReceiverOverflow
                0x00000000        0x8 ..\..\..\..\..\..\..\..\..\..\microchip\harmony\v1_07_01\bin\framework\peripheral\PIC32MX440F256H_peripherals.a(peripheral.o)
 .text.PLIB_I2C_SlaveInterruptOnStopEnable
                0x00000000        0x8 ..\..\..\..\..\..\..\..\..\..\microchip\harmony\v1_07_01\bin\framework\peripheral\PIC32MX440F256H_peripherals.a(peripheral.o)
 .text.PLIB_I2C_SlaveInterruptOnStopDisable
                0x00000000        0x8 ..\..\..\..\..\..\..\..\..\..\microchip\harmony\v1_07_01\bin\framework\peripheral\PIC32MX440F256H_peripherals.a(peripheral.o)
 .text.PLIB_I2C_ExistsSlaveInterruptOnStop
                0x00000000        0x8 ..\..\..\..\..\..\..\..\..\..\microchip\harmony\v1_07_01\bin\framework\peripheral\PIC32MX440F256H_peripherals.a(peripheral.o)
 .text.PLIB_I2C_SlaveInterruptOnStartEnable
                0x00000000        0x8 ..\..\..\..\..\..\..\..\..\..\microchip\harmony\v1_07_01\bin\framework\peripheral\PIC32MX440F256H_peripherals.a(peripheral.o)
 .text.PLIB_I2C_SlaveInterruptOnStartDisable
                0x00000000        0x8 ..\..\..\..\..\..\..\..\..\..\microchip\harmony\v1_07_01\bin\framework\peripheral\PIC32MX440F256H_peripherals.a(peripheral.o)
 .text.PLIB_I2C_ExistsSlaveInterruptOnStart
                0x00000000        0x8 ..\..\..\..\..\..\..\..\..\..\microchip\harmony\v1_07_01\bin\framework\peripheral\PIC32MX440F256H_peripherals.a(peripheral.o)
 .text.PLIB_I2C_SlaveBufferOverwriteEnable
                0x00000000        0x8 ..\..\..\..\..\..\..\..\..\..\microchip\harmony\v1_07_01\bin\framework\peripheral\PIC32MX440F256H_peripherals.a(peripheral.o)
 .text.PLIB_I2C_SlaveBufferOverwriteDisable
                0x00000000        0x8 ..\..\..\..\..\..\..\..\..\..\microchip\harmony\v1_07_01\bin\framework\peripheral\PIC32MX440F256H_peripherals.a(peripheral.o)
 .text.PLIB_I2C_ExistsSlaveBufferOverwrite
                0x00000000        0x8 ..\..\..\..\..\..\..\..\..\..\microchip\harmony\v1_07_01\bin\framework\peripheral\PIC32MX440F256H_peripherals.a(peripheral.o)
 .text.PLIB_I2C_DataLineHoldTimeSet
                0x00000000        0x8 ..\..\..\..\..\..\..\..\..\..\microchip\harmony\v1_07_01\bin\framework\peripheral\PIC32MX440F256H_peripherals.a(peripheral.o)
 .text.PLIB_I2C_ExistsDataLineHoldTime
                0x00000000        0x8 ..\..\..\..\..\..\..\..\..\..\microchip\harmony\v1_07_01\bin\framework\peripheral\PIC32MX440F256H_peripherals.a(peripheral.o)
 .text.PLIB_I2C_SlaveBusCollisionDetectEnable
                0x00000000        0x8 ..\..\..\..\..\..\..\..\..\..\microchip\harmony\v1_07_01\bin\framework\peripheral\PIC32MX440F256H_peripherals.a(peripheral.o)
 .text.PLIB_I2C_SlaveBusCollisionDetectDisable
                0x00000000        0x8 ..\..\..\..\..\..\..\..\..\..\microchip\harmony\v1_07_01\bin\framework\peripheral\PIC32MX440F256H_peripherals.a(peripheral.o)
 .text.PLIB_I2C_ExistsSlaveBusCollisionDetect
                0x00000000        0x8 ..\..\..\..\..\..\..\..\..\..\microchip\harmony\v1_07_01\bin\framework\peripheral\PIC32MX440F256H_peripherals.a(peripheral.o)
 .text.PLIB_I2C_SlaveAddressHoldEnable
                0x00000000        0x8 ..\..\..\..\..\..\..\..\..\..\microchip\harmony\v1_07_01\bin\framework\peripheral\PIC32MX440F256H_peripherals.a(peripheral.o)
 .text.PLIB_I2C_SlaveAddressHoldDisable
                0x00000000        0x8 ..\..\..\..\..\..\..\..\..\..\microchip\harmony\v1_07_01\bin\framework\peripheral\PIC32MX440F256H_peripherals.a(peripheral.o)
 .text.PLIB_I2C_ExistsSlaveAddressHoldEnable
                0x00000000        0x8 ..\..\..\..\..\..\..\..\..\..\microchip\harmony\v1_07_01\bin\framework\peripheral\PIC32MX440F256H_peripherals.a(peripheral.o)
 .text.PLIB_I2C_SlaveDataHoldEnable
                0x00000000        0x8 ..\..\..\..\..\..\..\..\..\..\microchip\harmony\v1_07_01\bin\framework\peripheral\PIC32MX440F256H_peripherals.a(peripheral.o)
 .text.PLIB_I2C_SlaveDataHoldDisable
                0x00000000        0x8 ..\..\..\..\..\..\..\..\..\..\microchip\harmony\v1_07_01\bin\framework\peripheral\PIC32MX440F256H_peripherals.a(peripheral.o)
 .text.PLIB_I2C_ExistsSlaveDataHoldEnable
                0x00000000        0x8 ..\..\..\..\..\..\..\..\..\..\microchip\harmony\v1_07_01\bin\framework\peripheral\PIC32MX440F256H_peripherals.a(peripheral.o)
 .text.PLIB_I2C_AcksequenceIsInProgress
                0x00000000        0x8 ..\..\..\..\..\..\..\..\..\..\microchip\harmony\v1_07_01\bin\framework\peripheral\PIC32MX440F256H_peripherals.a(peripheral.o)
 .text.PLIB_I2C_ExistsAcksequenceProgress
                0x00000000        0x8 ..\..\..\..\..\..\..\..\..\..\microchip\harmony\v1_07_01\bin\framework\peripheral\PIC32MX440F256H_peripherals.a(peripheral.o)
 .text.PLIB_IC_Enable
                0x00000000       0xb0 ..\..\..\..\..\..\..\..\..\..\microchip\harmony\v1_07_01\bin\framework\peripheral\PIC32MX440F256H_peripherals.a(peripheral.o)
 .text.PLIB_IC_Disable
                0x00000000       0xb0 ..\..\..\..\..\..\..\..\..\..\microchip\harmony\v1_07_01\bin\framework\peripheral\PIC32MX440F256H_peripherals.a(peripheral.o)
 .text.PLIB_IC_ExistsEnable
                0x00000000        0x8 ..\..\..\..\..\..\..\..\..\..\microchip\harmony\v1_07_01\bin\framework\peripheral\PIC32MX440F256H_peripherals.a(peripheral.o)
 .text.PLIB_IC_StopInIdleEnable
                0x00000000       0xb0 ..\..\..\..\..\..\..\..\..\..\microchip\harmony\v1_07_01\bin\framework\peripheral\PIC32MX440F256H_peripherals.a(peripheral.o)
 .text.PLIB_IC_StopInIdleDisable
                0x00000000       0xb0 ..\..\..\..\..\..\..\..\..\..\microchip\harmony\v1_07_01\bin\framework\peripheral\PIC32MX440F256H_peripherals.a(peripheral.o)
 .text.PLIB_IC_ExistsStopInIdle
                0x00000000        0x8 ..\..\..\..\..\..\..\..\..\..\microchip\harmony\v1_07_01\bin\framework\peripheral\PIC32MX440F256H_peripherals.a(peripheral.o)
 .text.PLIB_IC_FirstCaptureEdgeSelect
                0x00000000      0x100 ..\..\..\..\..\..\..\..\..\..\microchip\harmony\v1_07_01\bin\framework\peripheral\PIC32MX440F256H_peripherals.a(peripheral.o)
 .text.PLIB_IC_ExistsEdgeCapture
                0x00000000        0x8 ..\..\..\..\..\..\..\..\..\..\microchip\harmony\v1_07_01\bin\framework\peripheral\PIC32MX440F256H_peripherals.a(peripheral.o)
 .text.PLIB_IC_EventsPerInterruptSelect
                0x00000000      0x100 ..\..\..\..\..\..\..\..\..\..\microchip\harmony\v1_07_01\bin\framework\peripheral\PIC32MX440F256H_peripherals.a(peripheral.o)
 .text.PLIB_IC_ExistsEventsPerInterruptSelect
                0x00000000        0x8 ..\..\..\..\..\..\..\..\..\..\microchip\harmony\v1_07_01\bin\framework\peripheral\PIC32MX440F256H_peripherals.a(peripheral.o)
 .text.PLIB_IC_Buffer32BitGet
                0x00000000       0x90 ..\..\..\..\..\..\..\..\..\..\microchip\harmony\v1_07_01\bin\framework\peripheral\PIC32MX440F256H_peripherals.a(peripheral.o)
 .text.PLIB_IC_Buffer16BitGet
                0x00000000       0x90 ..\..\..\..\..\..\..\..\..\..\microchip\harmony\v1_07_01\bin\framework\peripheral\PIC32MX440F256H_peripherals.a(peripheral.o)
 .text.PLIB_IC_ExistsBufferValue
                0x00000000        0x8 ..\..\..\..\..\..\..\..\..\..\microchip\harmony\v1_07_01\bin\framework\peripheral\PIC32MX440F256H_peripherals.a(peripheral.o)
 .text.PLIB_IC_BufferIsEmpty
                0x00000000       0xa4 ..\..\..\..\..\..\..\..\..\..\microchip\harmony\v1_07_01\bin\framework\peripheral\PIC32MX440F256H_peripherals.a(peripheral.o)
 .text.PLIB_IC_ExistsBufferIsEmptyStatus
                0x00000000        0x8 ..\..\..\..\..\..\..\..\..\..\microchip\harmony\v1_07_01\bin\framework\peripheral\PIC32MX440F256H_peripherals.a(peripheral.o)
 .text.PLIB_IC_BufferOverflowHasOccurred
                0x00000000       0x90 ..\..\..\..\..\..\..\..\..\..\microchip\harmony\v1_07_01\bin\framework\peripheral\PIC32MX440F256H_peripherals.a(peripheral.o)
 .text.PLIB_IC_ExistsBufferOverflowStatus
                0x00000000        0x8 ..\..\..\..\..\..\..\..\..\..\microchip\harmony\v1_07_01\bin\framework\peripheral\PIC32MX440F256H_peripherals.a(peripheral.o)
 .text.PLIB_IC_ModeSelect
                0x00000000       0xec ..\..\..\..\..\..\..\..\..\..\microchip\harmony\v1_07_01\bin\framework\peripheral\PIC32MX440F256H_peripherals.a(peripheral.o)
 .text.PLIB_IC_ExistsCaptureMode
                0x00000000        0x8 ..\..\..\..\..\..\..\..\..\..\microchip\harmony\v1_07_01\bin\framework\peripheral\PIC32MX440F256H_peripherals.a(peripheral.o)
 .text.PLIB_IC_BufferSizeSelect
                0x00000000      0x100 ..\..\..\..\..\..\..\..\..\..\microchip\harmony\v1_07_01\bin\framework\peripheral\PIC32MX440F256H_peripherals.a(peripheral.o)
 .text.PLIB_IC_ExistsBufferSize
                0x00000000        0x8 ..\..\..\..\..\..\..\..\..\..\microchip\harmony\v1_07_01\bin\framework\peripheral\PIC32MX440F256H_peripherals.a(peripheral.o)
 .text.PLIB_IC_TimerSelect
                0x00000000      0x100 ..\..\..\..\..\..\..\..\..\..\microchip\harmony\v1_07_01\bin\framework\peripheral\PIC32MX440F256H_peripherals.a(peripheral.o)
 .text.PLIB_IC_ExistsTimerSelect
                0x00000000        0x8 ..\..\..\..\..\..\..\..\..\..\microchip\harmony\v1_07_01\bin\framework\peripheral\PIC32MX440F256H_peripherals.a(peripheral.o)
 .text.PLIB_IC_AlternateClockEnable
                0x00000000        0x8 ..\..\..\..\..\..\..\..\..\..\microchip\harmony\v1_07_01\bin\framework\peripheral\PIC32MX440F256H_peripherals.a(peripheral.o)
 .text.PLIB_IC_AlternateClockDisable
                0x00000000        0x8 ..\..\..\..\..\..\..\..\..\..\microchip\harmony\v1_07_01\bin\framework\peripheral\PIC32MX440F256H_peripherals.a(peripheral.o)
 .text.PLIB_IC_ExistsAlternateClock
                0x00000000        0x8 ..\..\..\..\..\..\..\..\..\..\microchip\harmony\v1_07_01\bin\framework\peripheral\PIC32MX440F256H_peripherals.a(peripheral.o)
 .text.PLIB_IC_AlternateTimerSelect
                0x00000000        0x8 ..\..\..\..\..\..\..\..\..\..\microchip\harmony\v1_07_01\bin\framework\peripheral\PIC32MX440F256H_peripherals.a(peripheral.o)
 .text.PLIB_IC_ExistsAlternateTimerSelect
                0x00000000        0x8 ..\..\..\..\..\..\..\..\..\..\microchip\harmony\v1_07_01\bin\framework\peripheral\PIC32MX440F256H_peripherals.a(peripheral.o)
 .text.PLIB_INT_ExistsSingleVectorShadowSet
                0x00000000        0x8 ..\..\..\..\..\..\..\..\..\..\microchip\harmony\v1_07_01\bin\framework\peripheral\PIC32MX440F256H_peripherals.a(peripheral.o)
 .text.PLIB_INT_SingleVectorShadowSetDisable
                0x00000000       0x1c ..\..\..\..\..\..\..\..\..\..\microchip\harmony\v1_07_01\bin\framework\peripheral\PIC32MX440F256H_peripherals.a(peripheral.o)
 .text.PLIB_INT_SingleVectorShadowSetEnable
                0x00000000       0x1c ..\..\..\..\..\..\..\..\..\..\microchip\harmony\v1_07_01\bin\framework\peripheral\PIC32MX440F256H_peripherals.a(peripheral.o)
 .text.PLIB_INT_ExistsVectorSelect
                0x00000000        0x8 ..\..\..\..\..\..\..\..\..\..\microchip\harmony\v1_07_01\bin\framework\peripheral\PIC32MX440F256H_peripherals.a(peripheral.o)
 .text.PLIB_INT_SingleVectorSelect
                0x00000000       0x1c ..\..\..\..\..\..\..\..\..\..\microchip\harmony\v1_07_01\bin\framework\peripheral\PIC32MX440F256H_peripherals.a(peripheral.o)
 .text.PLIB_INT_ExistsProximityTimerEnable
                0x00000000        0x8 ..\..\..\..\..\..\..\..\..\..\microchip\harmony\v1_07_01\bin\framework\peripheral\PIC32MX440F256H_peripherals.a(peripheral.o)
 .text.PLIB_INT_ProximityTimerEnable
                0x00000000       0x2c ..\..\..\..\..\..\..\..\..\..\microchip\harmony\v1_07_01\bin\framework\peripheral\PIC32MX440F256H_peripherals.a(peripheral.o)
 .text.PLIB_INT_ProximityTimerDisable
                0x00000000       0x1c ..\..\..\..\..\..\..\..\..\..\microchip\harmony\v1_07_01\bin\framework\peripheral\PIC32MX440F256H_peripherals.a(peripheral.o)
 .text.PLIB_INT_ExistsProximityTimerControl
                0x00000000        0x8 ..\..\..\..\..\..\..\..\..\..\microchip\harmony\v1_07_01\bin\framework\peripheral\PIC32MX440F256H_peripherals.a(peripheral.o)
 .text.PLIB_INT_ProximityTimerSet
                0x00000000       0x14 ..\..\..\..\..\..\..\..\..\..\microchip\harmony\v1_07_01\bin\framework\peripheral\PIC32MX440F256H_peripherals.a(peripheral.o)
 .text.PLIB_INT_ProximityTimerGet
                0x00000000       0x20 ..\..\..\..\..\..\..\..\..\..\microchip\harmony\v1_07_01\bin\framework\peripheral\PIC32MX440F256H_peripherals.a(peripheral.o)
 .text.PLIB_INT_ExistsExternalINTEdgeSelect
                0x00000000        0x8 ..\..\..\..\..\..\..\..\..\..\microchip\harmony\v1_07_01\bin\framework\peripheral\PIC32MX440F256H_peripherals.a(peripheral.o)
 .text.PLIB_INT_ExternalRisingEdgeSelect
                0x00000000       0x1c ..\..\..\..\..\..\..\..\..\..\microchip\harmony\v1_07_01\bin\framework\peripheral\PIC32MX440F256H_peripherals.a(peripheral.o)
 .text.PLIB_INT_ExternalFallingEdgeSelect
                0x00000000       0x1c ..\..\..\..\..\..\..\..\..\..\microchip\harmony\v1_07_01\bin\framework\peripheral\PIC32MX440F256H_peripherals.a(peripheral.o)
 .text.PLIB_INT_ExistsINTCPUPriority
                0x00000000        0x8 ..\..\..\..\..\..\..\..\..\..\microchip\harmony\v1_07_01\bin\framework\peripheral\PIC32MX440F256H_peripherals.a(peripheral.o)
 .text.PLIB_INT_PriorityGet
                0x00000000       0x20 ..\..\..\..\..\..\..\..\..\..\microchip\harmony\v1_07_01\bin\framework\peripheral\PIC32MX440F256H_peripherals.a(peripheral.o)
 .text.PLIB_INT_ExistsINTCPUVector
                0x00000000        0x8 ..\..\..\..\..\..\..\..\..\..\microchip\harmony\v1_07_01\bin\framework\peripheral\PIC32MX440F256H_peripherals.a(peripheral.o)
 .text.PLIB_INT_VectorGet
                0x00000000       0x20 ..\..\..\..\..\..\..\..\..\..\microchip\harmony\v1_07_01\bin\framework\peripheral\PIC32MX440F256H_peripherals.a(peripheral.o)
 .text.PLIB_INT_ExistsSourceFlag
                0x00000000        0x8 ..\..\..\..\..\..\..\..\..\..\microchip\harmony\v1_07_01\bin\framework\peripheral\PIC32MX440F256H_peripherals.a(peripheral.o)
 .text.PLIB_INT_SourceFlagGet
                0x00000000       0x38 ..\..\..\..\..\..\..\..\..\..\microchip\harmony\v1_07_01\bin\framework\peripheral\PIC32MX440F256H_peripherals.a(peripheral.o)
 .text.PLIB_INT_SourceFlagSet
                0x00000000       0x30 ..\..\..\..\..\..\..\..\..\..\microchip\harmony\v1_07_01\bin\framework\peripheral\PIC32MX440F256H_peripherals.a(peripheral.o)
 .text.PLIB_INT_ExistsSourceControl
                0x00000000        0x8 ..\..\..\..\..\..\..\..\..\..\microchip\harmony\v1_07_01\bin\framework\peripheral\PIC32MX440F256H_peripherals.a(peripheral.o)
 .text.PLIB_INT_ExistsVectorPriority
                0x00000000        0x8 ..\..\..\..\..\..\..\..\..\..\microchip\harmony\v1_07_01\bin\framework\peripheral\PIC32MX440F256H_peripherals.a(peripheral.o)
 .text.PLIB_INT_VectorPriorityGet
                0x00000000       0x44 ..\..\..\..\..\..\..\..\..\..\microchip\harmony\v1_07_01\bin\framework\peripheral\PIC32MX440F256H_peripherals.a(peripheral.o)
 .text.PLIB_INT_VectorSubPriorityGet
                0x00000000       0x40 ..\..\..\..\..\..\..\..\..\..\microchip\harmony\v1_07_01\bin\framework\peripheral\PIC32MX440F256H_peripherals.a(peripheral.o)
 .text.PLIB_INT_ExistsCPUCurrentPriorityLevel
                0x00000000        0x8 ..\..\..\..\..\..\..\..\..\..\microchip\harmony\v1_07_01\bin\framework\peripheral\PIC32MX440F256H_peripherals.a(peripheral.o)
 .text.PLIB_INT_CPUCurrentPriorityLevelGet
                0x00000000       0x30 ..\..\..\..\..\..\..\..\..\..\microchip\harmony\v1_07_01\bin\framework\peripheral\PIC32MX440F256H_peripherals.a(peripheral.o)
 .text.PLIB_INT_ExistsEnableControl
                0x00000000        0x8 ..\..\..\..\..\..\..\..\..\..\microchip\harmony\v1_07_01\bin\framework\peripheral\PIC32MX440F256H_peripherals.a(peripheral.o)
 .text.PLIB_INT_Disable
                0x00000000       0x28 ..\..\..\..\..\..\..\..\..\..\microchip\harmony\v1_07_01\bin\framework\peripheral\PIC32MX440F256H_peripherals.a(peripheral.o)
 .text.PLIB_INT_IsEnabled
                0x00000000       0x30 ..\..\..\..\..\..\..\..\..\..\microchip\harmony\v1_07_01\bin\framework\peripheral\PIC32MX440F256H_peripherals.a(peripheral.o)
 .text.PLIB_INT_ExistsShadowRegisterAssign
                0x00000000        0x8 ..\..\..\..\..\..\..\..\..\..\microchip\harmony\v1_07_01\bin\framework\peripheral\PIC32MX440F256H_peripherals.a(peripheral.o)
 .text.PLIB_INT_ShadowRegisterAssign
                0x00000000        0x8 ..\..\..\..\..\..\..\..\..\..\microchip\harmony\v1_07_01\bin\framework\peripheral\PIC32MX440F256H_peripherals.a(peripheral.o)
 .text.PLIB_INT_ShadowRegisterGet
                0x00000000        0x8 ..\..\..\..\..\..\..\..\..\..\microchip\harmony\v1_07_01\bin\framework\peripheral\PIC32MX440F256H_peripherals.a(peripheral.o)
 .text.PLIB_INT_ExistsVariableOffset
                0x00000000        0x8 ..\..\..\..\..\..\..\..\..\..\microchip\harmony\v1_07_01\bin\framework\peripheral\PIC32MX440F256H_peripherals.a(peripheral.o)
 .text.PLIB_INT_VariableVectorOffsetSet
                0x00000000        0x8 ..\..\..\..\..\..\..\..\..\..\microchip\harmony\v1_07_01\bin\framework\peripheral\PIC32MX440F256H_peripherals.a(peripheral.o)
 .text.PLIB_INT_VariableVectorOffsetGet
                0x00000000        0x8 ..\..\..\..\..\..\..\..\..\..\microchip\harmony\v1_07_01\bin\framework\peripheral\PIC32MX440F256H_peripherals.a(peripheral.o)
 .text.PLIB_INT_ExistsSoftwareNMI
                0x00000000        0x8 ..\..\..\..\..\..\..\..\..\..\microchip\harmony\v1_07_01\bin\framework\peripheral\PIC32MX440F256H_peripherals.a(peripheral.o)
 .text.PLIB_INT_SoftwareNMITrigger
                0x00000000        0x8 ..\..\..\..\..\..\..\..\..\..\microchip\harmony\v1_07_01\bin\framework\peripheral\PIC32MX440F256H_peripherals.a(peripheral.o)
 .text.PLIB_NVM_ExistsWriteErrorStatus
                0x00000000        0x8 ..\..\..\..\..\..\..\..\..\..\microchip\harmony\v1_07_01\bin\framework\peripheral\PIC32MX440F256H_peripherals.a(peripheral.o)
 .text.PLIB_NVM_WriteOperationHasTerminated
                0x00000000       0x20 ..\..\..\..\..\..\..\..\..\..\microchip\harmony\v1_07_01\bin\framework\peripheral\PIC32MX440F256H_peripherals.a(peripheral.o)
 .text.PLIB_NVM_ExistsMemoryModificationControl
                0x00000000        0x8 ..\..\..\..\..\..\..\..\..\..\microchip\harmony\v1_07_01\bin\framework\peripheral\PIC32MX440F256H_peripherals.a(peripheral.o)
 .text.PLIB_NVM_MemoryModifyEnable
                0x00000000       0x1c ..\..\..\..\..\..\..\..\..\..\microchip\harmony\v1_07_01\bin\framework\peripheral\PIC32MX440F256H_peripherals.a(peripheral.o)
 .text.PLIB_NVM_MemoryModifyInhibit
                0x00000000       0x1c ..\..\..\..\..\..\..\..\..\..\microchip\harmony\v1_07_01\bin\framework\peripheral\PIC32MX440F256H_peripherals.a(peripheral.o)
 .text.PLIB_NVM_ExistsOperationMode
                0x00000000        0x8 ..\..\..\..\..\..\..\..\..\..\microchip\harmony\v1_07_01\bin\framework\peripheral\PIC32MX440F256H_peripherals.a(peripheral.o)
 .text.PLIB_NVM_MemoryOperationSelect
                0x00000000       0x28 ..\..\..\..\..\..\..\..\..\..\microchip\harmony\v1_07_01\bin\framework\peripheral\PIC32MX440F256H_peripherals.a(peripheral.o)
 .text.PLIB_NVM_ExistsAddressModifyControl
                0x00000000        0x8 ..\..\..\..\..\..\..\..\..\..\microchip\harmony\v1_07_01\bin\framework\peripheral\PIC32MX440F256H_peripherals.a(peripheral.o)
 .text.PLIB_NVM_FlashAddressToModify
                0x00000000       0x14 ..\..\..\..\..\..\..\..\..\..\microchip\harmony\v1_07_01\bin\framework\peripheral\PIC32MX440F256H_peripherals.a(peripheral.o)
 .text.PLIB_NVM_ExistsProvideData
                0x00000000        0x8 ..\..\..\..\..\..\..\..\..\..\microchip\harmony\v1_07_01\bin\framework\peripheral\PIC32MX440F256H_peripherals.a(peripheral.o)
 .text.PLIB_NVM_FlashProvideData
                0x00000000       0x14 ..\..\..\..\..\..\..\..\..\..\microchip\harmony\v1_07_01\bin\framework\peripheral\PIC32MX440F256H_peripherals.a(peripheral.o)
 .text.PLIB_NVM_ExistsWriteOperation
                0x00000000        0x8 ..\..\..\..\..\..\..\..\..\..\microchip\harmony\v1_07_01\bin\framework\peripheral\PIC32MX440F256H_peripherals.a(peripheral.o)
 .text.PLIB_NVM_FlashRead
                0x00000000       0x1c ..\..\..\..\..\..\..\..\..\..\microchip\harmony\v1_07_01\bin\framework\peripheral\PIC32MX440F256H_peripherals.a(peripheral.o)
 .text.PLIB_NVM_FlashWriteStart
                0x00000000       0x1c ..\..\..\..\..\..\..\..\..\..\microchip\harmony\v1_07_01\bin\framework\peripheral\PIC32MX440F256H_peripherals.a(peripheral.o)
 .text.PLIB_NVM_FlashEraseStart
                0x00000000       0x1c ..\..\..\..\..\..\..\..\..\..\microchip\harmony\v1_07_01\bin\framework\peripheral\PIC32MX440F256H_peripherals.a(peripheral.o)
 .text.PLIB_NVM_FlashWriteCycleHasCompleted
                0x00000000       0x24 ..\..\..\..\..\..\..\..\..\..\microchip\harmony\v1_07_01\bin\framework\peripheral\PIC32MX440F256H_peripherals.a(peripheral.o)
 .text.PLIB_NVM_ExistsKeySequence
                0x00000000        0x8 ..\..\..\..\..\..\..\..\..\..\microchip\harmony\v1_07_01\bin\framework\peripheral\PIC32MX440F256H_peripherals.a(peripheral.o)
 .text.PLIB_NVM_FlashWriteKeySequence
                0x00000000       0x14 ..\..\..\..\..\..\..\..\..\..\microchip\harmony\v1_07_01\bin\framework\peripheral\PIC32MX440F256H_peripherals.a(peripheral.o)
 .text.PLIB_NVM_ExistsSourceAddress
                0x00000000        0x8 ..\..\..\..\..\..\..\..\..\..\microchip\harmony\v1_07_01\bin\framework\peripheral\PIC32MX440F256H_peripherals.a(peripheral.o)
 .text.PLIB_NVM_DataBlockSourceAddress
                0x00000000       0x14 ..\..\..\..\..\..\..\..\..\..\microchip\harmony\v1_07_01\bin\framework\peripheral\PIC32MX440F256H_peripherals.a(peripheral.o)
 .text.PLIB_NVM_ExistsLowVoltageStatus
                0x00000000        0x8 ..\..\..\..\..\..\..\..\..\..\microchip\harmony\v1_07_01\bin\framework\peripheral\PIC32MX440F256H_peripherals.a(peripheral.o)
 .text.PLIB_NVM_LowVoltageEventIsActive
                0x00000000       0x20 ..\..\..\..\..\..\..\..\..\..\microchip\harmony\v1_07_01\bin\framework\peripheral\PIC32MX440F256H_peripherals.a(peripheral.o)
 .text.PLIB_NVM_ExistsLowVoltageError
                0x00000000        0x8 ..\..\..\..\..\..\..\..\..\..\microchip\harmony\v1_07_01\bin\framework\peripheral\PIC32MX440F256H_peripherals.a(peripheral.o)
 .text.PLIB_NVM_LowVoltageIsDetected
                0x00000000       0x20 ..\..\..\..\..\..\..\..\..\..\microchip\harmony\v1_07_01\bin\framework\peripheral\PIC32MX440F256H_peripherals.a(peripheral.o)
 .text.PLIB_NVM_ExistsFlashBankRegionSelect
                0x00000000        0x8 ..\..\..\..\..\..\..\..\..\..\microchip\harmony\v1_07_01\bin\framework\peripheral\PIC32MX440F256H_peripherals.a(peripheral.o)
 .text.PLIB_NVM_ProgramFlashBank1LowerRegion
                0x00000000        0x8 ..\..\..\..\..\..\..\..\..\..\microchip\harmony\v1_07_01\bin\framework\peripheral\PIC32MX440F256H_peripherals.a(peripheral.o)
 .text.PLIB_NVM_ProgramFlashBank2LowerRegion
                0x00000000        0x8 ..\..\..\..\..\..\..\..\..\..\microchip\harmony\v1_07_01\bin\framework\peripheral\PIC32MX440F256H_peripherals.a(peripheral.o)
 .text.PLIB_NVM_ProgramFlashBank2IsLowerRegion
                0x00000000        0x8 ..\..\..\..\..\..\..\..\..\..\microchip\harmony\v1_07_01\bin\framework\peripheral\PIC32MX440F256H_peripherals.a(peripheral.o)
 .text.PLIB_NVM_ExistsBootFlashBankRegion
                0x00000000        0x8 ..\..\..\..\..\..\..\..\..\..\microchip\harmony\v1_07_01\bin\framework\peripheral\PIC32MX440F256H_peripherals.a(peripheral.o)
 .text.PLIB_NVM_BootFlashBank1LowerRegion
                0x00000000        0x8 ..\..\..\..\..\..\..\..\..\..\microchip\harmony\v1_07_01\bin\framework\peripheral\PIC32MX440F256H_peripherals.a(peripheral.o)
 .text.PLIB_NVM_BootFlashBank2LowerRegion
                0x00000000        0x8 ..\..\..\..\..\..\..\..\..\..\microchip\harmony\v1_07_01\bin\framework\peripheral\PIC32MX440F256H_peripherals.a(peripheral.o)
 .text.PLIB_NVM_BootFlashBank2IsLowerRegion
                0x00000000        0x8 ..\..\..\..\..\..\..\..\..\..\microchip\harmony\v1_07_01\bin\framework\peripheral\PIC32MX440F256H_peripherals.a(peripheral.o)
 .text.PLIB_NVM_ExistsProvideQuadData
                0x00000000        0x8 ..\..\..\..\..\..\..\..\..\..\microchip\harmony\v1_07_01\bin\framework\peripheral\PIC32MX440F256H_peripherals.a(peripheral.o)
 .text.PLIB_NVM_FlashProvideQuadData
                0x00000000        0x8 ..\..\..\..\..\..\..\..\..\..\microchip\harmony\v1_07_01\bin\framework\peripheral\PIC32MX440F256H_peripherals.a(peripheral.o)
 .text.PLIB_NVM_ExistsLockPFMSelect
                0x00000000        0x8 ..\..\..\..\..\..\..\..\..\..\microchip\harmony\v1_07_01\bin\framework\peripheral\PIC32MX440F256H_peripherals.a(peripheral.o)
 .text.PLIB_NVM_LockProgramFlashMemory
                0x00000000        0x8 ..\..\..\..\..\..\..\..\..\..\microchip\harmony\v1_07_01\bin\framework\peripheral\PIC32MX440F256H_peripherals.a(peripheral.o)
 .text.PLIB_NVM_IsProgramFlashMemoryLocked
                0x00000000        0x8 ..\..\..\..\..\..\..\..\..\..\microchip\harmony\v1_07_01\bin\framework\peripheral\PIC32MX440F256H_peripherals.a(peripheral.o)
 .text.PLIB_NVM_ExistsFlashWPMemoryRangeProvide
                0x00000000        0x8 ..\..\..\..\..\..\..\..\..\..\microchip\harmony\v1_07_01\bin\framework\peripheral\PIC32MX440F256H_peripherals.a(peripheral.o)
 .text.PLIB_NVM_FlashWriteProtectMemoryAreaRange
                0x00000000        0x8 ..\..\..\..\..\..\..\..\..\..\microchip\harmony\v1_07_01\bin\framework\peripheral\PIC32MX440F256H_peripherals.a(peripheral.o)
 .text.PLIB_NVM_ExistsLockBootSelect
                0x00000000        0x8 ..\..\..\..\..\..\..\..\..\..\microchip\harmony\v1_07_01\bin\framework\peripheral\PIC32MX440F256H_peripherals.a(peripheral.o)
 .text.PLIB_NVM_LockBootMemory
                0x00000000        0x8 ..\..\..\..\..\..\..\..\..\..\microchip\harmony\v1_07_01\bin\framework\peripheral\PIC32MX440F256H_peripherals.a(peripheral.o)
 .text.PLIB_NVM_IsBootMemoryLocked
                0x00000000        0x8 ..\..\..\..\..\..\..\..\..\..\microchip\harmony\v1_07_01\bin\framework\peripheral\PIC32MX440F256H_peripherals.a(peripheral.o)
 .text.PLIB_NVM_ExistsBootPageWriteProtect
                0x00000000        0x8 ..\..\..\..\..\..\..\..\..\..\microchip\harmony\v1_07_01\bin\framework\peripheral\PIC32MX440F256H_peripherals.a(peripheral.o)
 .text.PLIB_NVM_BootPageWriteProtectionEnable
                0x00000000        0x8 ..\..\..\..\..\..\..\..\..\..\microchip\harmony\v1_07_01\bin\framework\peripheral\PIC32MX440F256H_peripherals.a(peripheral.o)
 .text.PLIB_NVM_BootPageWriteProtectionDisable
                0x00000000        0x8 ..\..\..\..\..\..\..\..\..\..\microchip\harmony\v1_07_01\bin\framework\peripheral\PIC32MX440F256H_peripherals.a(peripheral.o)
 .text.PLIB_NVM_IsBootPageWriteProtected
                0x00000000        0x8 ..\..\..\..\..\..\..\..\..\..\microchip\harmony\v1_07_01\bin\framework\peripheral\PIC32MX440F256H_peripherals.a(peripheral.o)
 .text.PLIB_NVM_ExistsSwapLockControl
                0x00000000        0x8 ..\..\..\..\..\..\..\..\..\..\microchip\harmony\v1_07_01\bin\framework\peripheral\PIC32MX440F256H_peripherals.a(peripheral.o)
 .text.PLIB_NVM_FlashSwapLockSelect
                0x00000000        0x8 ..\..\..\..\..\..\..\..\..\..\microchip\harmony\v1_07_01\bin\framework\peripheral\PIC32MX440F256H_peripherals.a(peripheral.o)
 .text.PLIB_NVM_FlashSwapLockStatusGet
                0x00000000        0x8 ..\..\..\..\..\..\..\..\..\..\microchip\harmony\v1_07_01\bin\framework\peripheral\PIC32MX440F256H_peripherals.a(peripheral.o)
 .text.PLIB_NVM_ExistsEEPROMEnableControl
                0x00000000        0x8 ..\..\..\..\..\..\..\..\..\..\microchip\harmony\v1_07_01\bin\framework\peripheral\PIC32MX440F256H_peripherals.a(peripheral.o)
 .text.PLIB_NVM_EEPROMEnable
                0x00000000        0x8 ..\..\..\..\..\..\..\..\..\..\microchip\harmony\v1_07_01\bin\framework\peripheral\PIC32MX440F256H_peripherals.a(peripheral.o)
 .text.PLIB_NVM_EEPROMDisable
                0x00000000        0x8 ..\..\..\..\..\..\..\..\..\..\microchip\harmony\v1_07_01\bin\framework\peripheral\PIC32MX440F256H_peripherals.a(peripheral.o)
 .text.PLIB_NVM_EEPROMIsReady
                0x00000000        0x8 ..\..\..\..\..\..\..\..\..\..\microchip\harmony\v1_07_01\bin\framework\peripheral\PIC32MX440F256H_peripherals.a(peripheral.o)
 .text.PLIB_NVM_ExistsEEPROMStopInIdleControl
                0x00000000        0x8 ..\..\..\..\..\..\..\..\..\..\microchip\harmony\v1_07_01\bin\framework\peripheral\PIC32MX440F256H_peripherals.a(peripheral.o)
 .text.PLIB_NVM_EEPROMStopInIdleEnable
                0x00000000        0x8 ..\..\..\..\..\..\..\..\..\..\microchip\harmony\v1_07_01\bin\framework\peripheral\PIC32MX440F256H_peripherals.a(peripheral.o)
 .text.PLIB_NVM_EEPROMStopInIdleDisable
                0x00000000        0x8 ..\..\..\..\..\..\..\..\..\..\microchip\harmony\v1_07_01\bin\framework\peripheral\PIC32MX440F256H_peripherals.a(peripheral.o)
 .text.PLIB_NVM_EEPROMStopInIdleIsEnabled
                0x00000000        0x8 ..\..\..\..\..\..\..\..\..\..\microchip\harmony\v1_07_01\bin\framework\peripheral\PIC32MX440F256H_peripherals.a(peripheral.o)
 .text.PLIB_NVM_ExistsEEPROMOperationModeControl
                0x00000000        0x8 ..\..\..\..\..\..\..\..\..\..\microchip\harmony\v1_07_01\bin\framework\peripheral\PIC32MX440F256H_peripherals.a(peripheral.o)
 .text.PLIB_NVM_EEPROMOperationSelect
                0x00000000        0x8 ..\..\..\..\..\..\..\..\..\..\microchip\harmony\v1_07_01\bin\framework\peripheral\PIC32MX440F256H_peripherals.a(peripheral.o)
 .text.PLIB_NVM_ExistsEEPROMAddressControl
                0x00000000        0x8 ..\..\..\..\..\..\..\..\..\..\microchip\harmony\v1_07_01\bin\framework\peripheral\PIC32MX440F256H_peripherals.a(peripheral.o)
 .text.PLIB_NVM_EEPROMAddress
                0x00000000        0x8 ..\..\..\..\..\..\..\..\..\..\microchip\harmony\v1_07_01\bin\framework\peripheral\PIC32MX440F256H_peripherals.a(peripheral.o)
 .text.PLIB_NVM_ExistsEEPROMDataControl
                0x00000000        0x8 ..\..\..\..\..\..\..\..\..\..\microchip\harmony\v1_07_01\bin\framework\peripheral\PIC32MX440F256H_peripherals.a(peripheral.o)
 .text.PLIB_NVM_EEPROMDataToWrite
                0x00000000        0x8 ..\..\..\..\..\..\..\..\..\..\microchip\harmony\v1_07_01\bin\framework\peripheral\PIC32MX440F256H_peripherals.a(peripheral.o)
 .text.PLIB_NVM_EEPROMRead
                0x00000000        0x8 ..\..\..\..\..\..\..\..\..\..\microchip\harmony\v1_07_01\bin\framework\peripheral\PIC32MX440F256H_peripherals.a(peripheral.o)
 .text.PLIB_NVM_ExistsEEPROMKeySequence
                0x00000000        0x8 ..\..\..\..\..\..\..\..\..\..\microchip\harmony\v1_07_01\bin\framework\peripheral\PIC32MX440F256H_peripherals.a(peripheral.o)
 .text.PLIB_NVM_EEPROMKeySequenceWrite
                0x00000000        0x8 ..\..\..\..\..\..\..\..\..\..\microchip\harmony\v1_07_01\bin\framework\peripheral\PIC32MX440F256H_peripherals.a(peripheral.o)
 .text.PLIB_NVM_ExistsEEPROMEnableOperationControl
                0x00000000        0x8 ..\..\..\..\..\..\..\..\..\..\microchip\harmony\v1_07_01\bin\framework\peripheral\PIC32MX440F256H_peripherals.a(peripheral.o)
 .text.PLIB_NVM_EEPROMWriteEnable
                0x00000000        0x8 ..\..\..\..\..\..\..\..\..\..\microchip\harmony\v1_07_01\bin\framework\peripheral\PIC32MX440F256H_peripherals.a(peripheral.o)
 .text.PLIB_NVM_EEPROMWriteIsEnabled
                0x00000000        0x8 ..\..\..\..\..\..\..\..\..\..\microchip\harmony\v1_07_01\bin\framework\peripheral\PIC32MX440F256H_peripherals.a(peripheral.o)
 .text.PLIB_NVM_EEPROMReadEnable
                0x00000000        0x8 ..\..\..\..\..\..\..\..\..\..\microchip\harmony\v1_07_01\bin\framework\peripheral\PIC32MX440F256H_peripherals.a(peripheral.o)
 .text.PLIB_NVM_EEPROMReadIsEnabled
                0x00000000        0x8 ..\..\..\..\..\..\..\..\..\..\microchip\harmony\v1_07_01\bin\framework\peripheral\PIC32MX440F256H_peripherals.a(peripheral.o)
 .text.PLIB_NVM_ExistsEEPROMStartOperationControl
                0x00000000        0x8 ..\..\..\..\..\..\..\..\..\..\microchip\harmony\v1_07_01\bin\framework\peripheral\PIC32MX440F256H_peripherals.a(peripheral.o)
 .text.PLIB_NVM_EEPROMReadStart
                0x00000000        0x8 ..\..\..\..\..\..\..\..\..\..\microchip\harmony\v1_07_01\bin\framework\peripheral\PIC32MX440F256H_peripherals.a(peripheral.o)
 .text.PLIB_NVM_EEPROMWriteStart
                0x00000000        0x8 ..\..\..\..\..\..\..\..\..\..\microchip\harmony\v1_07_01\bin\framework\peripheral\PIC32MX440F256H_peripherals.a(peripheral.o)
 .text.PLIB_NVM_EEPROMEraseStart
                0x00000000        0x8 ..\..\..\..\..\..\..\..\..\..\microchip\harmony\v1_07_01\bin\framework\peripheral\PIC32MX440F256H_peripherals.a(peripheral.o)
 .text.PLIB_NVM_EEPROMOperationHasCompleted
                0x00000000        0x8 ..\..\..\..\..\..\..\..\..\..\microchip\harmony\v1_07_01\bin\framework\peripheral\PIC32MX440F256H_peripherals.a(peripheral.o)
 .text.PLIB_NVM_ExistsEEPROMLongWriteStatus
                0x00000000        0x8 ..\..\..\..\..\..\..\..\..\..\microchip\harmony\v1_07_01\bin\framework\peripheral\PIC32MX440F256H_peripherals.a(peripheral.o)
 .text.PLIB_NVM_EEPROMNextWriteCycleIsLong
                0x00000000        0x8 ..\..\..\..\..\..\..\..\..\..\microchip\harmony\v1_07_01\bin\framework\peripheral\PIC32MX440F256H_peripherals.a(peripheral.o)
 .text.PLIB_NVM_ExistsEEPROMOperationAbortControl
                0x00000000        0x8 ..\..\..\..\..\..\..\..\..\..\microchip\harmony\v1_07_01\bin\framework\peripheral\PIC32MX440F256H_peripherals.a(peripheral.o)
 .text.PLIB_NVM_EEPROMOperationAbort
                0x00000000        0x8 ..\..\..\..\..\..\..\..\..\..\microchip\harmony\v1_07_01\bin\framework\peripheral\PIC32MX440F256H_peripherals.a(peripheral.o)
 .text.PLIB_NVM_ExistsEEPROMErrorStatus
                0x00000000        0x8 ..\..\..\..\..\..\..\..\..\..\microchip\harmony\v1_07_01\bin\framework\peripheral\PIC32MX440F256H_peripherals.a(peripheral.o)
 .text.PLIB_NVM_EEPROMErrorGet
                0x00000000        0x8 ..\..\..\..\..\..\..\..\..\..\microchip\harmony\v1_07_01\bin\framework\peripheral\PIC32MX440F256H_peripherals.a(peripheral.o)
 .text.PLIB_NVM_EEPROMErrorClear
                0x00000000        0x8 ..\..\..\..\..\..\..\..\..\..\microchip\harmony\v1_07_01\bin\framework\peripheral\PIC32MX440F256H_peripherals.a(peripheral.o)
 .text.PLIB_OC_Enable
                0x00000000       0xb0 ..\..\..\..\..\..\..\..\..\..\microchip\harmony\v1_07_01\bin\framework\peripheral\PIC32MX440F256H_peripherals.a(peripheral.o)
 .text.PLIB_OC_Disable
                0x00000000       0xb0 ..\..\..\..\..\..\..\..\..\..\microchip\harmony\v1_07_01\bin\framework\peripheral\PIC32MX440F256H_peripherals.a(peripheral.o)
 .text.PLIB_OC_IsEnabled
                0x00000000       0x90 ..\..\..\..\..\..\..\..\..\..\microchip\harmony\v1_07_01\bin\framework\peripheral\PIC32MX440F256H_peripherals.a(peripheral.o)
 .text.PLIB_OC_ExistsEnableControl
                0x00000000        0x8 ..\..\..\..\..\..\..\..\..\..\microchip\harmony\v1_07_01\bin\framework\peripheral\PIC32MX440F256H_peripherals.a(peripheral.o)
 .text.PLIB_OC_StopInIdleEnable
                0x00000000       0xb0 ..\..\..\..\..\..\..\..\..\..\microchip\harmony\v1_07_01\bin\framework\peripheral\PIC32MX440F256H_peripherals.a(peripheral.o)
 .text.PLIB_OC_StopInIdleDisable
                0x00000000       0xb0 ..\..\..\..\..\..\..\..\..\..\microchip\harmony\v1_07_01\bin\framework\peripheral\PIC32MX440F256H_peripherals.a(peripheral.o)
 .text.PLIB_OC_ExistsStopInIdle
                0x00000000        0x8 ..\..\..\..\..\..\..\..\..\..\microchip\harmony\v1_07_01\bin\framework\peripheral\PIC32MX440F256H_peripherals.a(peripheral.o)
 .text.PLIB_OC_FaultInputSelect
                0x00000000       0xec ..\..\..\..\..\..\..\..\..\..\microchip\harmony\v1_07_01\bin\framework\peripheral\PIC32MX440F256H_peripherals.a(peripheral.o)
 .text.PLIB_OC_ExistsFaultInput
                0x00000000        0x8 ..\..\..\..\..\..\..\..\..\..\microchip\harmony\v1_07_01\bin\framework\peripheral\PIC32MX440F256H_peripherals.a(peripheral.o)
 .text.PLIB_OC_FaultHasOccurred
                0x00000000       0x90 ..\..\..\..\..\..\..\..\..\..\microchip\harmony\v1_07_01\bin\framework\peripheral\PIC32MX440F256H_peripherals.a(peripheral.o)
 .text.PLIB_OC_ExistsFaultStatus
                0x00000000        0x8 ..\..\..\..\..\..\..\..\..\..\microchip\harmony\v1_07_01\bin\framework\peripheral\PIC32MX440F256H_peripherals.a(peripheral.o)
 .text.PLIB_OC_TimerSelect
                0x00000000      0x100 ..\..\..\..\..\..\..\..\..\..\microchip\harmony\v1_07_01\bin\framework\peripheral\PIC32MX440F256H_peripherals.a(peripheral.o)
 .text.PLIB_OC_ExistsTimerSelect
                0x00000000        0x8 ..\..\..\..\..\..\..\..\..\..\microchip\harmony\v1_07_01\bin\framework\peripheral\PIC32MX440F256H_peripherals.a(peripheral.o)
 .text.PLIB_OC_AlternateClockEnable
                0x00000000        0x8 ..\..\..\..\..\..\..\..\..\..\microchip\harmony\v1_07_01\bin\framework\peripheral\PIC32MX440F256H_peripherals.a(peripheral.o)
 .text.PLIB_OC_AlternateClockDisable
                0x00000000        0x8 ..\..\..\..\..\..\..\..\..\..\microchip\harmony\v1_07_01\bin\framework\peripheral\PIC32MX440F256H_peripherals.a(peripheral.o)
 .text.PLIB_OC_ExistsAlternateClock
                0x00000000        0x8 ..\..\..\..\..\..\..\..\..\..\microchip\harmony\v1_07_01\bin\framework\peripheral\PIC32MX440F256H_peripherals.a(peripheral.o)
 .text.PLIB_OC_AlternateTimerSelect
                0x00000000        0x8 ..\..\..\..\..\..\..\..\..\..\microchip\harmony\v1_07_01\bin\framework\peripheral\PIC32MX440F256H_peripherals.a(peripheral.o)
 .text.PLIB_OC_ExistsAlternateTimerSelect
                0x00000000        0x8 ..\..\..\..\..\..\..\..\..\..\microchip\harmony\v1_07_01\bin\framework\peripheral\PIC32MX440F256H_peripherals.a(peripheral.o)
 .text.PLIB_OC_Buffer32BitSet
                0x00000000       0x88 ..\..\..\..\..\..\..\..\..\..\microchip\harmony\v1_07_01\bin\framework\peripheral\PIC32MX440F256H_peripherals.a(peripheral.o)
 .text.PLIB_OC_Buffer16BitSet
                0x00000000       0x8c ..\..\..\..\..\..\..\..\..\..\microchip\harmony\v1_07_01\bin\framework\peripheral\PIC32MX440F256H_peripherals.a(peripheral.o)
 .text.PLIB_OC_ExistsBufferValue
                0x00000000        0x8 ..\..\..\..\..\..\..\..\..\..\microchip\harmony\v1_07_01\bin\framework\peripheral\PIC32MX440F256H_peripherals.a(peripheral.o)
 .text.PLIB_OC_PulseWidth32BitSet
                0x00000000       0x88 ..\..\..\..\..\..\..\..\..\..\microchip\harmony\v1_07_01\bin\framework\peripheral\PIC32MX440F256H_peripherals.a(peripheral.o)
 .text.PLIB_OC_PulseWidth16BitSet
                0x00000000       0x8c ..\..\..\..\..\..\..\..\..\..\microchip\harmony\v1_07_01\bin\framework\peripheral\PIC32MX440F256H_peripherals.a(peripheral.o)
 .text.PLIB_OC_ExistsPulseWidth
                0x00000000        0x8 ..\..\..\..\..\..\..\..\..\..\microchip\harmony\v1_07_01\bin\framework\peripheral\PIC32MX440F256H_peripherals.a(peripheral.o)
 .text.PLIB_OC_BufferSizeSelect
                0x00000000      0x100 ..\..\..\..\..\..\..\..\..\..\microchip\harmony\v1_07_01\bin\framework\peripheral\PIC32MX440F256H_peripherals.a(peripheral.o)
 .text.PLIB_OC_ExistsBufferSize
                0x00000000        0x8 ..\..\..\..\..\..\..\..\..\..\microchip\harmony\v1_07_01\bin\framework\peripheral\PIC32MX440F256H_peripherals.a(peripheral.o)
 .text.PLIB_OC_ModeSelect
                0x00000000       0xec ..\..\..\..\..\..\..\..\..\..\microchip\harmony\v1_07_01\bin\framework\peripheral\PIC32MX440F256H_peripherals.a(peripheral.o)
 .text.PLIB_OC_ExistsCompareModeSelect
                0x00000000        0x8 ..\..\..\..\..\..\..\..\..\..\microchip\harmony\v1_07_01\bin\framework\peripheral\PIC32MX440F256H_peripherals.a(peripheral.o)
 .text.PLIB_OSC_ExistsOnWaitAction
                0x00000000        0x8 ..\..\..\..\..\..\..\..\..\..\microchip\harmony\v1_07_01\bin\framework\peripheral\PIC32MX440F256H_peripherals.a(peripheral.o)
 .text.PLIB_OSC_OnWaitActionSet
                0x00000000       0x2c ..\..\..\..\..\..\..\..\..\..\microchip\harmony\v1_07_01\bin\framework\peripheral\PIC32MX440F256H_peripherals.a(peripheral.o)
 .text.PLIB_OSC_OnWaitActionGet
                0x00000000       0x20 ..\..\..\..\..\..\..\..\..\..\microchip\harmony\v1_07_01\bin\framework\peripheral\PIC32MX440F256H_peripherals.a(peripheral.o)
 .text.PLIB_OSC_ExistsSecondaryEnable
                0x00000000        0x8 ..\..\..\..\..\..\..\..\..\..\microchip\harmony\v1_07_01\bin\framework\peripheral\PIC32MX440F256H_peripherals.a(peripheral.o)
 .text.PLIB_OSC_SecondaryEnable
                0x00000000       0x1c ..\..\..\..\..\..\..\..\..\..\microchip\harmony\v1_07_01\bin\framework\peripheral\PIC32MX440F256H_peripherals.a(peripheral.o)
 .text.PLIB_OSC_SecondaryDisable
                0x00000000       0x1c ..\..\..\..\..\..\..\..\..\..\microchip\harmony\v1_07_01\bin\framework\peripheral\PIC32MX440F256H_peripherals.a(peripheral.o)
 .text.PLIB_OSC_SecondaryIsEnabled
                0x00000000       0x20 ..\..\..\..\..\..\..\..\..\..\microchip\harmony\v1_07_01\bin\framework\peripheral\PIC32MX440F256H_peripherals.a(peripheral.o)
 .text.PLIB_OSC_ExistsSecondaryReady
                0x00000000        0x8 ..\..\..\..\..\..\..\..\..\..\microchip\harmony\v1_07_01\bin\framework\peripheral\PIC32MX440F256H_peripherals.a(peripheral.o)
 .text.PLIB_OSC_SecondaryIsReady
                0x00000000       0x20 ..\..\..\..\..\..\..\..\..\..\microchip\harmony\v1_07_01\bin\framework\peripheral\PIC32MX440F256H_peripherals.a(peripheral.o)
 .text.PLIB_OSC_ExistsFRCDivisor
                0x00000000        0x8 ..\..\..\..\..\..\..\..\..\..\microchip\harmony\v1_07_01\bin\framework\peripheral\PIC32MX440F256H_peripherals.a(peripheral.o)
 .text.PLIB_OSC_FRCDivisorSelect
                0x00000000       0x34 ..\..\..\..\..\..\..\..\..\..\microchip\harmony\v1_07_01\bin\framework\peripheral\PIC32MX440F256H_peripherals.a(peripheral.o)
 .text.PLIB_OSC_FRCDivisorGet
                0x00000000       0x3c ..\..\..\..\..\..\..\..\..\..\microchip\harmony\v1_07_01\bin\framework\peripheral\PIC32MX440F256H_peripherals.a(peripheral.o)
 .text.PLIB_OSC_ExistsOscSelect
                0x00000000        0x8 ..\..\..\..\..\..\..\..\..\..\microchip\harmony\v1_07_01\bin\framework\peripheral\PIC32MX440F256H_peripherals.a(peripheral.o)
 .text.PLIB_OSC_SysClockSelect
                0x00000000       0x40 ..\..\..\..\..\..\..\..\..\..\microchip\harmony\v1_07_01\bin\framework\peripheral\PIC32MX440F256H_peripherals.a(peripheral.o)
 .text.PLIB_OSC_ExistsOscSwitchInit
                0x00000000        0x8 ..\..\..\..\..\..\..\..\..\..\microchip\harmony\v1_07_01\bin\framework\peripheral\PIC32MX440F256H_peripherals.a(peripheral.o)
 .text.PLIB_OSC_ClockSwitchingAbort
                0x00000000       0x1c ..\..\..\..\..\..\..\..\..\..\microchip\harmony\v1_07_01\bin\framework\peripheral\PIC32MX440F256H_peripherals.a(peripheral.o)
 .text.PLIB_OSC_ClockSwitchingIsComplete
                0x00000000       0x24 ..\..\..\..\..\..\..\..\..\..\microchip\harmony\v1_07_01\bin\framework\peripheral\PIC32MX440F256H_peripherals.a(peripheral.o)
 .text.PLIB_OSC_ExistsOscCurrentGet
                0x00000000        0x8 ..\..\..\..\..\..\..\..\..\..\microchip\harmony\v1_07_01\bin\framework\peripheral\PIC32MX440F256H_peripherals.a(peripheral.o)
 .text.PLIB_OSC_CurrentSysClockGet
                0x00000000       0x20 ..\..\..\..\..\..\..\..\..\..\microchip\harmony\v1_07_01\bin\framework\peripheral\PIC32MX440F256H_peripherals.a(peripheral.o)
 .text.PLIB_OSC_ExistsPBClockDivisor
                0x00000000        0x8 ..\..\..\..\..\..\..\..\..\..\microchip\harmony\v1_07_01\bin\framework\peripheral\PIC32MX440F256H_peripherals.a(peripheral.o)
 .text.PLIB_OSC_PBClockDivisorGet
                0x00000000       0x28 ..\..\..\..\..\..\..\..\..\..\microchip\harmony\v1_07_01\bin\framework\peripheral\PIC32MX440F256H_peripherals.a(peripheral.o)
 .text.PLIB_OSC_PBClockDivisorSet
                0x00000000       0x70 ..\..\..\..\..\..\..\..\..\..\microchip\harmony\v1_07_01\bin\framework\peripheral\PIC32MX440F256H_peripherals.a(peripheral.o)
 .text.PLIB_OSC_ExistsPBClockReady
                0x00000000        0x8 ..\..\..\..\..\..\..\..\..\..\microchip\harmony\v1_07_01\bin\framework\peripheral\PIC32MX440F256H_peripherals.a(peripheral.o)
 .text.PLIB_OSC_PBClockDivisorIsReady
                0x00000000        0x8 ..\..\..\..\..\..\..\..\..\..\microchip\harmony\v1_07_01\bin\framework\peripheral\PIC32MX440F256H_peripherals.a(peripheral.o)
 .text.PLIB_OSC_ExistsUsbClockSource
                0x00000000        0x8 ..\..\..\..\..\..\..\..\..\..\microchip\harmony\v1_07_01\bin\framework\peripheral\PIC32MX440F256H_peripherals.a(peripheral.o)
 .text.PLIB_OSC_UsbClockSourceSelect
                0x00000000       0x2c ..\..\..\..\..\..\..\..\..\..\microchip\harmony\v1_07_01\bin\framework\peripheral\PIC32MX440F256H_peripherals.a(peripheral.o)
 .text.PLIB_OSC_UsbClockSourceGet
                0x00000000       0x20 ..\..\..\..\..\..\..\..\..\..\microchip\harmony\v1_07_01\bin\framework\peripheral\PIC32MX440F256H_peripherals.a(peripheral.o)
 .text.PLIB_OSC_ExistsPLLLockStatus
                0x00000000        0x8 ..\..\..\..\..\..\..\..\..\..\microchip\harmony\v1_07_01\bin\framework\peripheral\PIC32MX440F256H_peripherals.a(peripheral.o)
 .text.PLIB_OSC_PLLIsLocked
                0x00000000       0x34 ..\..\..\..\..\..\..\..\..\..\microchip\harmony\v1_07_01\bin\framework\peripheral\PIC32MX440F256H_peripherals.a(peripheral.o)
 .text.PLIB_OSC_ExistsPLLClockLock
                0x00000000        0x8 ..\..\..\..\..\..\..\..\..\..\microchip\harmony\v1_07_01\bin\framework\peripheral\PIC32MX440F256H_peripherals.a(peripheral.o)
 .text.PLIB_OSC_PLLClockLock
                0x00000000       0x1c ..\..\..\..\..\..\..\..\..\..\microchip\harmony\v1_07_01\bin\framework\peripheral\PIC32MX440F256H_peripherals.a(peripheral.o)
 .text.PLIB_OSC_PLLClockUnlock
                0x00000000       0x1c ..\..\..\..\..\..\..\..\..\..\microchip\harmony\v1_07_01\bin\framework\peripheral\PIC32MX440F256H_peripherals.a(peripheral.o)
 .text.PLIB_OSC_PLLClockIsLocked
                0x00000000       0x20 ..\..\..\..\..\..\..\..\..\..\microchip\harmony\v1_07_01\bin\framework\peripheral\PIC32MX440F256H_peripherals.a(peripheral.o)
 .text.PLIB_OSC_ExistsSysPLLMultiplier
                0x00000000        0x8 ..\..\..\..\..\..\..\..\..\..\microchip\harmony\v1_07_01\bin\framework\peripheral\PIC32MX440F256H_peripherals.a(peripheral.o)
 .text.PLIB_OSC_SysPLLMultiplierSelect
                0x00000000       0xa4 ..\..\..\..\..\..\..\..\..\..\microchip\harmony\v1_07_01\bin\framework\peripheral\PIC32MX440F256H_peripherals.a(peripheral.o)
 .text.PLIB_OSC_SysPLLMultiplierGet
                0x00000000       0x40 ..\..\..\..\..\..\..\..\..\..\microchip\harmony\v1_07_01\bin\framework\peripheral\PIC32MX440F256H_peripherals.a(peripheral.o)
 .text.PLIB_OSC_ExistsUPLLMultiplier
                0x00000000        0x8 ..\..\..\..\..\..\..\..\..\..\microchip\harmony\v1_07_01\bin\framework\peripheral\PIC32MX440F256H_peripherals.a(peripheral.o)
 .text.PLIB_OSC_UPLLMultiplierSelect
                0x00000000       0x14 ..\..\..\..\..\..\..\..\..\..\microchip\harmony\v1_07_01\bin\framework\peripheral\PIC32MX440F256H_peripherals.a(peripheral.o)
 .text.PLIB_OSC_UPLLMultiplierGet
                0x00000000        0x8 ..\..\..\..\..\..\..\..\..\..\microchip\harmony\v1_07_01\bin\framework\peripheral\PIC32MX440F256H_peripherals.a(peripheral.o)
 .text.PLIB_OSC_ExistsBTPLLMultiplier
                0x00000000        0x8 ..\..\..\..\..\..\..\..\..\..\microchip\harmony\v1_07_01\bin\framework\peripheral\PIC32MX440F256H_peripherals.a(peripheral.o)
 .text.PLIB_OSC_BTPLLMultiplierSelect
                0x00000000       0x14 ..\..\..\..\..\..\..\..\..\..\microchip\harmony\v1_07_01\bin\framework\peripheral\PIC32MX440F256H_peripherals.a(peripheral.o)
 .text.PLIB_OSC_BTPLLMultiplierGet
                0x00000000        0x8 ..\..\..\..\..\..\..\..\..\..\microchip\harmony\v1_07_01\bin\framework\peripheral\PIC32MX440F256H_peripherals.a(peripheral.o)
 .text.PLIB_OSC_ExistsSysPLLOutputDivisor
                0x00000000        0x8 ..\..\..\..\..\..\..\..\..\..\microchip\harmony\v1_07_01\bin\framework\peripheral\PIC32MX440F256H_peripherals.a(peripheral.o)
 .text.PLIB_OSC_SysPLLOutputDivisorSet
                0x00000000       0x34 ..\..\..\..\..\..\..\..\..\..\microchip\harmony\v1_07_01\bin\framework\peripheral\PIC32MX440F256H_peripherals.a(peripheral.o)
 .text.PLIB_OSC_SysPLLOutputDivisorGet
                0x00000000       0x3c ..\..\..\..\..\..\..\..\..\..\microchip\harmony\v1_07_01\bin\framework\peripheral\PIC32MX440F256H_peripherals.a(peripheral.o)
 .text.PLIB_OSC_ExistsUPLLOutputDivisor
                0x00000000        0x8 ..\..\..\..\..\..\..\..\..\..\microchip\harmony\v1_07_01\bin\framework\peripheral\PIC32MX440F256H_peripherals.a(peripheral.o)
 .text.PLIB_OSC_UPLLOutputDivisorSet
                0x00000000        0x8 ..\..\..\..\..\..\..\..\..\..\microchip\harmony\v1_07_01\bin\framework\peripheral\PIC32MX440F256H_peripherals.a(peripheral.o)
 .text.PLIB_OSC_UPLLOutputDivisorGet
                0x00000000        0x8 ..\..\..\..\..\..\..\..\..\..\microchip\harmony\v1_07_01\bin\framework\peripheral\PIC32MX440F256H_peripherals.a(peripheral.o)
 .text.PLIB_OSC_ExistsBTPLLOutputDivisor
                0x00000000        0x8 ..\..\..\..\..\..\..\..\..\..\microchip\harmony\v1_07_01\bin\framework\peripheral\PIC32MX440F256H_peripherals.a(peripheral.o)
 .text.PLIB_OSC_BTPLLOutputDivisorSet
                0x00000000        0x8 ..\..\..\..\..\..\..\..\..\..\microchip\harmony\v1_07_01\bin\framework\peripheral\PIC32MX440F256H_peripherals.a(peripheral.o)
 .text.PLIB_OSC_BTPLLOutputDivisorGet
                0x00000000        0x8 ..\..\..\..\..\..\..\..\..\..\microchip\harmony\v1_07_01\bin\framework\peripheral\PIC32MX440F256H_peripherals.a(peripheral.o)
 .text.PLIB_OSC_ExistsClockFail
                0x00000000        0x8 ..\..\..\..\..\..\..\..\..\..\microchip\harmony\v1_07_01\bin\framework\peripheral\PIC32MX440F256H_peripherals.a(peripheral.o)
 .text.PLIB_OSC_ClockHasFailed
                0x00000000       0x20 ..\..\..\..\..\..\..\..\..\..\microchip\harmony\v1_07_01\bin\framework\peripheral\PIC32MX440F256H_peripherals.a(peripheral.o)
 .text.PLIB_OSC_ExistsFRCTuning
                0x00000000        0x8 ..\..\..\..\..\..\..\..\..\..\microchip\harmony\v1_07_01\bin\framework\peripheral\PIC32MX440F256H_peripherals.a(peripheral.o)
 .text.PLIB_OSC_FRCTuningSelect
                0x00000000       0x30 ..\..\..\..\..\..\..\..\..\..\microchip\harmony\v1_07_01\bin\framework\peripheral\PIC32MX440F256H_peripherals.a(peripheral.o)
 .text.PLIB_OSC_ExistsReferenceOscBaseClock
                0x00000000        0x8 ..\..\..\..\..\..\..\..\..\..\microchip\harmony\v1_07_01\bin\framework\peripheral\PIC32MX440F256H_peripherals.a(peripheral.o)
 .text.PLIB_OSC_ReferenceOscBaseClockSelect
                0x00000000        0x8 ..\..\..\..\..\..\..\..\..\..\microchip\harmony\v1_07_01\bin\framework\peripheral\PIC32MX440F256H_peripherals.a(peripheral.o)
 .text.PLIB_OSC_ExistsReferenceOscChange
                0x00000000        0x8 ..\..\..\..\..\..\..\..\..\..\microchip\harmony\v1_07_01\bin\framework\peripheral\PIC32MX440F256H_peripherals.a(peripheral.o)
 .text.PLIB_OSC_ReferenceOscSwitchIsComplete
                0x00000000        0x8 ..\..\..\..\..\..\..\..\..\..\microchip\harmony\v1_07_01\bin\framework\peripheral\PIC32MX440F256H_peripherals.a(peripheral.o)
 .text.PLIB_OSC_ExistsReferenceOscChangeActive
                0x00000000        0x8 ..\..\..\..\..\..\..\..\..\..\microchip\harmony\v1_07_01\bin\framework\peripheral\PIC32MX440F256H_peripherals.a(peripheral.o)
 .text.PLIB_OSC_ReferenceOscSourceChangeIsActive
                0x00000000        0x8 ..\..\..\..\..\..\..\..\..\..\microchip\harmony\v1_07_01\bin\framework\peripheral\PIC32MX440F256H_peripherals.a(peripheral.o)
 .text.PLIB_OSC_ExistsReferenceOscStopInSleep
                0x00000000        0x8 ..\..\..\..\..\..\..\..\..\..\microchip\harmony\v1_07_01\bin\framework\peripheral\PIC32MX440F256H_peripherals.a(peripheral.o)
 .text.PLIB_OSC_ReferenceOscStopInSleepEnable
                0x00000000        0x8 ..\..\..\..\..\..\..\..\..\..\microchip\harmony\v1_07_01\bin\framework\peripheral\PIC32MX440F256H_peripherals.a(peripheral.o)
 .text.PLIB_OSC_ReferenceOscStopInSleepDisable
                0x00000000        0x8 ..\..\..\..\..\..\..\..\..\..\microchip\harmony\v1_07_01\bin\framework\peripheral\PIC32MX440F256H_peripherals.a(peripheral.o)
 .text.PLIB_OSC_ReferenceOscStopInSleepIsEnabled
                0x00000000        0x8 ..\..\..\..\..\..\..\..\..\..\microchip\harmony\v1_07_01\bin\framework\peripheral\PIC32MX440F256H_peripherals.a(peripheral.o)
 .text.PLIB_OSC_ExistsReferenceOutputEnable
                0x00000000        0x8 ..\..\..\..\..\..\..\..\..\..\microchip\harmony\v1_07_01\bin\framework\peripheral\PIC32MX440F256H_peripherals.a(peripheral.o)
 .text.PLIB_OSC_ReferenceOutputEnable
                0x00000000        0x8 ..\..\..\..\..\..\..\..\..\..\microchip\harmony\v1_07_01\bin\framework\peripheral\PIC32MX440F256H_peripherals.a(peripheral.o)
 .text.PLIB_OSC_ReferenceOutputDisable
                0x00000000        0x8 ..\..\..\..\..\..\..\..\..\..\microchip\harmony\v1_07_01\bin\framework\peripheral\PIC32MX440F256H_peripherals.a(peripheral.o)
 .text.PLIB_OSC_ReferenceOutputIsEnabled
                0x00000000        0x8 ..\..\..\..\..\..\..\..\..\..\microchip\harmony\v1_07_01\bin\framework\peripheral\PIC32MX440F256H_peripherals.a(peripheral.o)
 .text.PLIB_OSC_ExistsReferenceOscStopInIdleEnable
                0x00000000        0x8 ..\..\..\..\..\..\..\..\..\..\microchip\harmony\v1_07_01\bin\framework\peripheral\PIC32MX440F256H_peripherals.a(peripheral.o)
 .text.PLIB_OSC_ReferenceOscStopInIdleEnable
                0x00000000        0x8 ..\..\..\..\..\..\..\..\..\..\microchip\harmony\v1_07_01\bin\framework\peripheral\PIC32MX440F256H_peripherals.a(peripheral.o)
 .text.PLIB_OSC_ReferenceOscStopInIdleDisable
                0x00000000        0x8 ..\..\..\..\..\..\..\..\..\..\microchip\harmony\v1_07_01\bin\framework\peripheral\PIC32MX440F256H_peripherals.a(peripheral.o)
 .text.PLIB_OSC_ReferenceOscStopInIdleIsEnabled
                0x00000000        0x8 ..\..\..\..\..\..\..\..\..\..\microchip\harmony\v1_07_01\bin\framework\peripheral\PIC32MX440F256H_peripherals.a(peripheral.o)
 .text.PLIB_OSC_ExistsReferenceOscEnable
                0x00000000        0x8 ..\..\..\..\..\..\..\..\..\..\microchip\harmony\v1_07_01\bin\framework\peripheral\PIC32MX440F256H_peripherals.a(peripheral.o)
 .text.PLIB_OSC_ReferenceOscEnable
                0x00000000        0x8 ..\..\..\..\..\..\..\..\..\..\microchip\harmony\v1_07_01\bin\framework\peripheral\PIC32MX440F256H_peripherals.a(peripheral.o)
 .text.PLIB_OSC_ReferenceOscDisable
                0x00000000        0x8 ..\..\..\..\..\..\..\..\..\..\microchip\harmony\v1_07_01\bin\framework\peripheral\PIC32MX440F256H_peripherals.a(peripheral.o)
 .text.PLIB_OSC_ReferenceOscIsEnabled
                0x00000000        0x8 ..\..\..\..\..\..\..\..\..\..\microchip\harmony\v1_07_01\bin\framework\peripheral\PIC32MX440F256H_peripherals.a(peripheral.o)
 .text.PLIB_OSC_ExistsReferenceOscDivisor
                0x00000000        0x8 ..\..\..\..\..\..\..\..\..\..\microchip\harmony\v1_07_01\bin\framework\peripheral\PIC32MX440F256H_peripherals.a(peripheral.o)
 .text.PLIB_OSC_ReferenceOscDivisorValueSet
                0x00000000       0x14 ..\..\..\..\..\..\..\..\..\..\microchip\harmony\v1_07_01\bin\framework\peripheral\PIC32MX440F256H_peripherals.a(peripheral.o)
 .text.PLIB_OSC_ExistsReferenceOscTrim
                0x00000000        0x8 ..\..\..\..\..\..\..\..\..\..\microchip\harmony\v1_07_01\bin\framework\peripheral\PIC32MX440F256H_peripherals.a(peripheral.o)
 .text.PLIB_OSC_ReferenceOscTrimSet
                0x00000000       0x14 ..\..\..\..\..\..\..\..\..\..\microchip\harmony\v1_07_01\bin\framework\peripheral\PIC32MX440F256H_peripherals.a(peripheral.o)
 .text.PLIB_OSC_ExistsPBClockOutputEnable
                0x00000000        0x8 ..\..\..\..\..\..\..\..\..\..\microchip\harmony\v1_07_01\bin\framework\peripheral\PIC32MX440F256H_peripherals.a(peripheral.o)
 .text.PLIB_OSC_PBOutputClockEnable
                0x00000000        0x8 ..\..\..\..\..\..\..\..\..\..\microchip\harmony\v1_07_01\bin\framework\peripheral\PIC32MX440F256H_peripherals.a(peripheral.o)
 .text.PLIB_OSC_PBOutputClockDisable
                0x00000000        0x8 ..\..\..\..\..\..\..\..\..\..\microchip\harmony\v1_07_01\bin\framework\peripheral\PIC32MX440F256H_peripherals.a(peripheral.o)
 .text.PLIB_OSC_PBOutputClockIsEnabled
                0x00000000        0x8 ..\..\..\..\..\..\..\..\..\..\microchip\harmony\v1_07_01\bin\framework\peripheral\PIC32MX440F256H_peripherals.a(peripheral.o)
 .text.PLIB_OSC_ExistsSysPLLInputDivisor
                0x00000000        0x8 ..\..\..\..\..\..\..\..\..\..\microchip\harmony\v1_07_01\bin\framework\peripheral\PIC32MX440F256H_peripherals.a(peripheral.o)
 .text.PLIB_OSC_SysPLLInputDivisorSet
                0x00000000        0x8 ..\..\..\..\..\..\..\..\..\..\microchip\harmony\v1_07_01\bin\framework\peripheral\PIC32MX440F256H_peripherals.a(peripheral.o)
 .text.PLIB_OSC_SysPLLInputDivisorGet
                0x00000000        0x8 ..\..\..\..\..\..\..\..\..\..\microchip\harmony\v1_07_01\bin\framework\peripheral\PIC32MX440F256H_peripherals.a(peripheral.o)
 .text.PLIB_OSC_ExistsUPLLInputDivisor
                0x00000000        0x8 ..\..\..\..\..\..\..\..\..\..\microchip\harmony\v1_07_01\bin\framework\peripheral\PIC32MX440F256H_peripherals.a(peripheral.o)
 .text.PLIB_OSC_UPLLInputDivisorSet
                0x00000000        0x8 ..\..\..\..\..\..\..\..\..\..\microchip\harmony\v1_07_01\bin\framework\peripheral\PIC32MX440F256H_peripherals.a(peripheral.o)
 .text.PLIB_OSC_UPLLInputDivisorGet
                0x00000000        0x8 ..\..\..\..\..\..\..\..\..\..\microchip\harmony\v1_07_01\bin\framework\peripheral\PIC32MX440F256H_peripherals.a(peripheral.o)
 .text.PLIB_OSC_ExistsBTPLLInputDivisor
                0x00000000        0x8 ..\..\..\..\..\..\..\..\..\..\microchip\harmony\v1_07_01\bin\framework\peripheral\PIC32MX440F256H_peripherals.a(peripheral.o)
 .text.PLIB_OSC_BTPLLInputDivisorSet
                0x00000000        0x8 ..\..\..\..\..\..\..\..\..\..\microchip\harmony\v1_07_01\bin\framework\peripheral\PIC32MX440F256H_peripherals.a(peripheral.o)
 .text.PLIB_OSC_BTPLLInputDivisorGet
                0x00000000        0x8 ..\..\..\..\..\..\..\..\..\..\microchip\harmony\v1_07_01\bin\framework\peripheral\PIC32MX440F256H_peripherals.a(peripheral.o)
 .text.PLIB_OSC_ExistsSysPLLInputClockSource
                0x00000000        0x8 ..\..\..\..\..\..\..\..\..\..\microchip\harmony\v1_07_01\bin\framework\peripheral\PIC32MX440F256H_peripherals.a(peripheral.o)
 .text.PLIB_OSC_SysPLLInputClockSourceSet
                0x00000000        0x8 ..\..\..\..\..\..\..\..\..\..\microchip\harmony\v1_07_01\bin\framework\peripheral\PIC32MX440F256H_peripherals.a(peripheral.o)
 .text.PLIB_OSC_SysPLLInputClockSourceGet
                0x00000000        0x8 ..\..\..\..\..\..\..\..\..\..\microchip\harmony\v1_07_01\bin\framework\peripheral\PIC32MX440F256H_peripherals.a(peripheral.o)
 .text.PLIB_OSC_ExistsBTPLLInputClockSource
                0x00000000        0x8 ..\..\..\..\..\..\..\..\..\..\microchip\harmony\v1_07_01\bin\framework\peripheral\PIC32MX440F256H_peripherals.a(peripheral.o)
 .text.PLIB_OSC_BTPLLInputClockSourceSet
                0x00000000        0x8 ..\..\..\..\..\..\..\..\..\..\microchip\harmony\v1_07_01\bin\framework\peripheral\PIC32MX440F256H_peripherals.a(peripheral.o)
 .text.PLIB_OSC_BTPLLInputClockSourceGet
                0x00000000        0x8 ..\..\..\..\..\..\..\..\..\..\microchip\harmony\v1_07_01\bin\framework\peripheral\PIC32MX440F256H_peripherals.a(peripheral.o)
 .text.PLIB_OSC_ExistsSysPLLFrequencyRange
                0x00000000        0x8 ..\..\..\..\..\..\..\..\..\..\microchip\harmony\v1_07_01\bin\framework\peripheral\PIC32MX440F256H_peripherals.a(peripheral.o)
 .text.PLIB_OSC_SysPLLFrequencyRangeSet
                0x00000000        0x8 ..\..\..\..\..\..\..\..\..\..\microchip\harmony\v1_07_01\bin\framework\peripheral\PIC32MX440F256H_peripherals.a(peripheral.o)
 .text.PLIB_OSC_SysPLLFrequencyRangeGet
                0x00000000        0x8 ..\..\..\..\..\..\..\..\..\..\microchip\harmony\v1_07_01\bin\framework\peripheral\PIC32MX440F256H_peripherals.a(peripheral.o)
 .text.PLIB_OSC_ExistsBTPLLFrequencyRange
                0x00000000        0x8 ..\..\..\..\..\..\..\..\..\..\microchip\harmony\v1_07_01\bin\framework\peripheral\PIC32MX440F256H_peripherals.a(peripheral.o)
 .text.PLIB_OSC_BTPLLFrequencyRangeSet
                0x00000000        0x8 ..\..\..\..\..\..\..\..\..\..\microchip\harmony\v1_07_01\bin\framework\peripheral\PIC32MX440F256H_peripherals.a(peripheral.o)
 .text.PLIB_OSC_BTPLLFrequencyRangeGet
                0x00000000        0x8 ..\..\..\..\..\..\..\..\..\..\microchip\harmony\v1_07_01\bin\framework\peripheral\PIC32MX440F256H_peripherals.a(peripheral.o)
 .text.PLIB_OSC_ExistsUPLLFrequencyRange
                0x00000000        0x8 ..\..\..\..\..\..\..\..\..\..\microchip\harmony\v1_07_01\bin\framework\peripheral\PIC32MX440F256H_peripherals.a(peripheral.o)
 .text.PLIB_OSC_UPLLFrequencyRangeSet
                0x00000000        0x8 ..\..\..\..\..\..\..\..\..\..\microchip\harmony\v1_07_01\bin\framework\peripheral\PIC32MX440F256H_peripherals.a(peripheral.o)
 .text.PLIB_OSC_UPLLFrequencyRangeGet
                0x00000000        0x8 ..\..\..\..\..\..\..\..\..\..\microchip\harmony\v1_07_01\bin\framework\peripheral\PIC32MX440F256H_peripherals.a(peripheral.o)
 .text.PLIB_OSC_ExistsSleepToStartupClock
                0x00000000        0x8 ..\..\..\..\..\..\..\..\..\..\microchip\harmony\v1_07_01\bin\framework\peripheral\PIC32MX440F256H_peripherals.a(peripheral.o)
 .text.PLIB_OSC_SleepToStartupClockSelect
                0x00000000        0x8 ..\..\..\..\..\..\..\..\..\..\microchip\harmony\v1_07_01\bin\framework\peripheral\PIC32MX440F256H_peripherals.a(peripheral.o)
 .text.PLIB_OSC_SleepToStartupClockGet
                0x00000000        0x8 ..\..\..\..\..\..\..\..\..\..\microchip\harmony\v1_07_01\bin\framework\peripheral\PIC32MX440F256H_peripherals.a(peripheral.o)
 .text.PLIB_OSC_ExistsClockReadyStatus
                0x00000000        0x8 ..\..\..\..\..\..\..\..\..\..\microchip\harmony\v1_07_01\bin\framework\peripheral\PIC32MX440F256H_peripherals.a(peripheral.o)
 .text.PLIB_OSC_ClockIsReady
                0x00000000        0x8 ..\..\..\..\..\..\..\..\..\..\microchip\harmony\v1_07_01\bin\framework\peripheral\PIC32MX440F256H_peripherals.a(peripheral.o)
 .text.PLIB_OSC_ExistsClockDiagStatus
                0x00000000        0x8 ..\..\..\..\..\..\..\..\..\..\microchip\harmony\v1_07_01\bin\framework\peripheral\PIC32MX440F256H_peripherals.a(peripheral.o)
 .text.PLIB_OSC_ClockStop
                0x00000000        0x8 ..\..\..\..\..\..\..\..\..\..\microchip\harmony\v1_07_01\bin\framework\peripheral\PIC32MX440F256H_peripherals.a(peripheral.o)
 .text.PLIB_OSC_ClockStart
                0x00000000        0x8 ..\..\..\..\..\..\..\..\..\..\microchip\harmony\v1_07_01\bin\framework\peripheral\PIC32MX440F256H_peripherals.a(peripheral.o)
 .text.PLIB_OSC_ClockStopStatus
                0x00000000        0x8 ..\..\..\..\..\..\..\..\..\..\microchip\harmony\v1_07_01\bin\framework\peripheral\PIC32MX440F256H_peripherals.a(peripheral.o)
 .text.PLIB_OSC_ExistsClockSlewingStatus
                0x00000000        0x8 ..\..\..\..\..\..\..\..\..\..\microchip\harmony\v1_07_01\bin\framework\peripheral\PIC32MX440F256H_peripherals.a(peripheral.o)
 .text.PLIB_OSC_ClockSlewingIsActive
                0x00000000        0x8 ..\..\..\..\..\..\..\..\..\..\microchip\harmony\v1_07_01\bin\framework\peripheral\PIC32MX440F256H_peripherals.a(peripheral.o)
 .text.PLIB_OSC_ExistsSlewEnableControl
                0x00000000        0x8 ..\..\..\..\..\..\..\..\..\..\microchip\harmony\v1_07_01\bin\framework\peripheral\PIC32MX440F256H_peripherals.a(peripheral.o)
 .text.PLIB_OSC_SlewEnable
                0x00000000        0x8 ..\..\..\..\..\..\..\..\..\..\microchip\harmony\v1_07_01\bin\framework\peripheral\PIC32MX440F256H_peripherals.a(peripheral.o)
 .text.PLIB_OSC_SlewDisable
                0x00000000        0x8 ..\..\..\..\..\..\..\..\..\..\microchip\harmony\v1_07_01\bin\framework\peripheral\PIC32MX440F256H_peripherals.a(peripheral.o)
 .text.PLIB_OSC_SlewIsEnabled
                0x00000000        0x8 ..\..\..\..\..\..\..\..\..\..\microchip\harmony\v1_07_01\bin\framework\peripheral\PIC32MX440F256H_peripherals.a(peripheral.o)
 .text.PLIB_OSC_ExistsSlewDivisorStepControl
                0x00000000        0x8 ..\..\..\..\..\..\..\..\..\..\microchip\harmony\v1_07_01\bin\framework\peripheral\PIC32MX440F256H_peripherals.a(peripheral.o)
 .text.PLIB_OSC_SlewDivisorStepSelect
                0x00000000        0x8 ..\..\..\..\..\..\..\..\..\..\microchip\harmony\v1_07_01\bin\framework\peripheral\PIC32MX440F256H_peripherals.a(peripheral.o)
 .text.PLIB_OSC_SlewDivisorStepGet
                0x00000000        0x8 ..\..\..\..\..\..\..\..\..\..\microchip\harmony\v1_07_01\bin\framework\peripheral\PIC32MX440F256H_peripherals.a(peripheral.o)
 .text.PLIB_OSC_ExistsSystemClockDivisorControl
                0x00000000        0x8 ..\..\..\..\..\..\..\..\..\..\microchip\harmony\v1_07_01\bin\framework\peripheral\PIC32MX440F256H_peripherals.a(peripheral.o)
 .text.PLIB_OSC_SystemClockDivisorSelect
                0x00000000        0x8 ..\..\..\..\..\..\..\..\..\..\microchip\harmony\v1_07_01\bin\framework\peripheral\PIC32MX440F256H_peripherals.a(peripheral.o)
 .text.PLIB_OSC_SystemClockDivisorGet
                0x00000000        0x8 ..\..\..\..\..\..\..\..\..\..\microchip\harmony\v1_07_01\bin\framework\peripheral\PIC32MX440F256H_peripherals.a(peripheral.o)
 .text.PLIB_OSC_ExistsDreamModeControl
                0x00000000        0x8 ..\..\..\..\..\..\..\..\..\..\microchip\harmony\v1_07_01\bin\framework\peripheral\PIC32MX440F256H_peripherals.a(peripheral.o)
 .text.PLIB_OSC_DreamModeEnable
                0x00000000        0x8 ..\..\..\..\..\..\..\..\..\..\microchip\harmony\v1_07_01\bin\framework\peripheral\PIC32MX440F256H_peripherals.a(peripheral.o)
 .text.PLIB_OSC_DreamModeDisable
                0x00000000        0x8 ..\..\..\..\..\..\..\..\..\..\microchip\harmony\v1_07_01\bin\framework\peripheral\PIC32MX440F256H_peripherals.a(peripheral.o)
 .text.PLIB_OSC_DreamModeStatus
                0x00000000        0x8 ..\..\..\..\..\..\..\..\..\..\microchip\harmony\v1_07_01\bin\framework\peripheral\PIC32MX440F256H_peripherals.a(peripheral.o)
 .text.PLIB_OSC_ExistsForceLock
                0x00000000        0x8 ..\..\..\..\..\..\..\..\..\..\microchip\harmony\v1_07_01\bin\framework\peripheral\PIC32MX440F256H_peripherals.a(peripheral.o)
 .text.PLIB_OSC_ForceSPLLLockEnable
                0x00000000        0x8 ..\..\..\..\..\..\..\..\..\..\microchip\harmony\v1_07_01\bin\framework\peripheral\PIC32MX440F256H_peripherals.a(peripheral.o)
 .text.PLIB_OSC_ForceSPLLLockDisable
                0x00000000        0x8 ..\..\..\..\..\..\..\..\..\..\microchip\harmony\v1_07_01\bin\framework\peripheral\PIC32MX440F256H_peripherals.a(peripheral.o)
 .text.PLIB_OSC_ForceSPLLLockStatus
                0x00000000        0x8 ..\..\..\..\..\..\..\..\..\..\microchip\harmony\v1_07_01\bin\framework\peripheral\PIC32MX440F256H_peripherals.a(peripheral.o)
 .text.PLIB_OSC_ExistsResetPLL
                0x00000000        0x8 ..\..\..\..\..\..\..\..\..\..\microchip\harmony\v1_07_01\bin\framework\peripheral\PIC32MX440F256H_peripherals.a(peripheral.o)
 .text.PLIB_OSC_ResetPLLAssert
                0x00000000        0x8 ..\..\..\..\..\..\..\..\..\..\microchip\harmony\v1_07_01\bin\framework\peripheral\PIC32MX440F256H_peripherals.a(peripheral.o)
 .text.PLIB_OSC_ResetPLLDeassert
                0x00000000        0x8 ..\..\..\..\..\..\..\..\..\..\microchip\harmony\v1_07_01\bin\framework\peripheral\PIC32MX440F256H_peripherals.a(peripheral.o)
 .text.PLIB_OSC_ResetPLLStatus
                0x00000000        0x8 ..\..\..\..\..\..\..\..\..\..\microchip\harmony\v1_07_01\bin\framework\peripheral\PIC32MX440F256H_peripherals.a(peripheral.o)
 .text.PLIB_OSC_ExistsPLLBypass
                0x00000000        0x8 ..\..\..\..\..\..\..\..\..\..\microchip\harmony\v1_07_01\bin\framework\peripheral\PIC32MX440F256H_peripherals.a(peripheral.o)
 .text.PLIB_OSC_PLLBypassEnable
                0x00000000        0x8 ..\..\..\..\..\..\..\..\..\..\microchip\harmony\v1_07_01\bin\framework\peripheral\PIC32MX440F256H_peripherals.a(peripheral.o)
 .text.PLIB_OSC_PLLBypassDisable
                0x00000000        0x8 ..\..\..\..\..\..\..\..\..\..\microchip\harmony\v1_07_01\bin\framework\peripheral\PIC32MX440F256H_peripherals.a(peripheral.o)
 .text.PLIB_OSC_PLLBypassStatus
                0x00000000        0x8 ..\..\..\..\..\..\..\..\..\..\microchip\harmony\v1_07_01\bin\framework\peripheral\PIC32MX440F256H_peripherals.a(peripheral.o)
 .text.PLIB_OSC_ExistsBTPLLClockOut
                0x00000000        0x8 ..\..\..\..\..\..\..\..\..\..\microchip\harmony\v1_07_01\bin\framework\peripheral\PIC32MX440F256H_peripherals.a(peripheral.o)
 .text.PLIB_OSC_BTPLLClockOutEnable
                0x00000000        0x8 ..\..\..\..\..\..\..\..\..\..\microchip\harmony\v1_07_01\bin\framework\peripheral\PIC32MX440F256H_peripherals.a(peripheral.o)
 .text.PLIB_OSC_BTPLLClockOutDisable
                0x00000000        0x8 ..\..\..\..\..\..\..\..\..\..\microchip\harmony\v1_07_01\bin\framework\peripheral\PIC32MX440F256H_peripherals.a(peripheral.o)
 .text.PLIB_OSC_BTPLLClockOutStatus
                0x00000000        0x8 ..\..\..\..\..\..\..\..\..\..\microchip\harmony\v1_07_01\bin\framework\peripheral\PIC32MX440F256H_peripherals.a(peripheral.o)
 .text.PLIB_PCACHE_WaitStateGet
                0x00000000       0x20 ..\..\..\..\..\..\..\..\..\..\microchip\harmony\v1_07_01\bin\framework\peripheral\PIC32MX440F256H_peripherals.a(peripheral.o)
 .text.PLIB_PCACHE_PrefetchEnableGet
                0x00000000       0x20 ..\..\..\..\..\..\..\..\..\..\microchip\harmony\v1_07_01\bin\framework\peripheral\PIC32MX440F256H_peripherals.a(peripheral.o)
 .text.PLIB_PCACHE_ExistsDataCacheEnable
                0x00000000        0x8 ..\..\..\..\..\..\..\..\..\..\microchip\harmony\v1_07_01\bin\framework\peripheral\PIC32MX440F256H_peripherals.a(peripheral.o)
 .text.PLIB_PCACHE_DataCacheEnableSet
                0x00000000       0x2c ..\..\..\..\..\..\..\..\..\..\microchip\harmony\v1_07_01\bin\framework\peripheral\PIC32MX440F256H_peripherals.a(peripheral.o)
 .text.PLIB_PCACHE_DataCacheEnableGet
                0x00000000       0x20 ..\..\..\..\..\..\..\..\..\..\microchip\harmony\v1_07_01\bin\framework\peripheral\PIC32MX440F256H_peripherals.a(peripheral.o)
 .text.PLIB_PCACHE_ExistsFlashSECInt
                0x00000000        0x8 ..\..\..\..\..\..\..\..\..\..\microchip\harmony\v1_07_01\bin\framework\peripheral\PIC32MX440F256H_peripherals.a(peripheral.o)
 .text.PLIB_PCACHE_FlashSECIntEnable
                0x00000000        0x8 ..\..\..\..\..\..\..\..\..\..\microchip\harmony\v1_07_01\bin\framework\peripheral\PIC32MX440F256H_peripherals.a(peripheral.o)
 .text.PLIB_PCACHE_FlashSECIntDisable
                0x00000000        0x8 ..\..\..\..\..\..\..\..\..\..\microchip\harmony\v1_07_01\bin\framework\peripheral\PIC32MX440F256H_peripherals.a(peripheral.o)
 .text.PLIB_PCACHE_ExistsFlashDEDStatus
                0x00000000        0x8 ..\..\..\..\..\..\..\..\..\..\microchip\harmony\v1_07_01\bin\framework\peripheral\PIC32MX440F256H_peripherals.a(peripheral.o)
 .text.PLIB_PCACHE_FlashDEDStatusGet
                0x00000000        0x8 ..\..\..\..\..\..\..\..\..\..\microchip\harmony\v1_07_01\bin\framework\peripheral\PIC32MX440F256H_peripherals.a(peripheral.o)
 .text.PLIB_PCACHE_FlashDEDStatusClear
                0x00000000        0x8 ..\..\..\..\..\..\..\..\..\..\microchip\harmony\v1_07_01\bin\framework\peripheral\PIC32MX440F256H_peripherals.a(peripheral.o)
 .text.PLIB_PCACHE_ExistsFlashSECStatus
                0x00000000        0x8 ..\..\..\..\..\..\..\..\..\..\microchip\harmony\v1_07_01\bin\framework\peripheral\PIC32MX440F256H_peripherals.a(peripheral.o)
 .text.PLIB_PCACHE_FlashSECStatusGet
                0x00000000        0x8 ..\..\..\..\..\..\..\..\..\..\microchip\harmony\v1_07_01\bin\framework\peripheral\PIC32MX440F256H_peripherals.a(peripheral.o)
 .text.PLIB_PCACHE_FlashSECStatusSet
                0x00000000        0x8 ..\..\..\..\..\..\..\..\..\..\microchip\harmony\v1_07_01\bin\framework\peripheral\PIC32MX440F256H_peripherals.a(peripheral.o)
 .text.PLIB_PCACHE_FlashSECStatusClear
                0x00000000        0x8 ..\..\..\..\..\..\..\..\..\..\microchip\harmony\v1_07_01\bin\framework\peripheral\PIC32MX440F256H_peripherals.a(peripheral.o)
 .text.PLIB_PCACHE_ExistsFlashSECCount
                0x00000000        0x8 ..\..\..\..\..\..\..\..\..\..\microchip\harmony\v1_07_01\bin\framework\peripheral\PIC32MX440F256H_peripherals.a(peripheral.o)
 .text.PLIB_PCACHE_FlashSECCountSet
                0x00000000        0x8 ..\..\..\..\..\..\..\..\..\..\microchip\harmony\v1_07_01\bin\framework\peripheral\PIC32MX440F256H_peripherals.a(peripheral.o)
 .text.PLIB_PCACHE_FlashSECCountGet
                0x00000000        0x8 ..\..\..\..\..\..\..\..\..\..\microchip\harmony\v1_07_01\bin\framework\peripheral\PIC32MX440F256H_peripherals.a(peripheral.o)
 .text.PLIB_PCACHE_ExistsInvalidateOnPFMProgram
                0x00000000        0x8 ..\..\..\..\..\..\..\..\..\..\microchip\harmony\v1_07_01\bin\framework\peripheral\PIC32MX440F256H_peripherals.a(peripheral.o)
 .text.PLIB_PCACHE_InvalidateOnPFMProgramAll
                0x00000000       0x1c ..\..\..\..\..\..\..\..\..\..\microchip\harmony\v1_07_01\bin\framework\peripheral\PIC32MX440F256H_peripherals.a(peripheral.o)
 .text.PLIB_PCACHE_InvalidateOnPFMProgramUnlocked
                0x00000000       0x1c ..\..\..\..\..\..\..\..\..\..\microchip\harmony\v1_07_01\bin\framework\peripheral\PIC32MX440F256H_peripherals.a(peripheral.o)
 .text.PLIB_PCACHE_ExistsCacheLine
                0x00000000        0x8 ..\..\..\..\..\..\..\..\..\..\microchip\harmony\v1_07_01\bin\framework\peripheral\PIC32MX440F256H_peripherals.a(peripheral.o)
 .text.PLIB_PCACHE_CacheLineSelect
                0x00000000       0x34 ..\..\..\..\..\..\..\..\..\..\microchip\harmony\v1_07_01\bin\framework\peripheral\PIC32MX440F256H_peripherals.a(peripheral.o)
 .text.PLIB_PCACHE_CacheLineDeselect
                0x00000000       0x34 ..\..\..\..\..\..\..\..\..\..\microchip\harmony\v1_07_01\bin\framework\peripheral\PIC32MX440F256H_peripherals.a(peripheral.o)
 .text.PLIB_PCACHE_CacheLineData
                0x00000000       0x1c ..\..\..\..\..\..\..\..\..\..\microchip\harmony\v1_07_01\bin\framework\peripheral\PIC32MX440F256H_peripherals.a(peripheral.o)
 .text.PLIB_PCACHE_CacheLineInst
                0x00000000       0x1c ..\..\..\..\..\..\..\..\..\..\microchip\harmony\v1_07_01\bin\framework\peripheral\PIC32MX440F256H_peripherals.a(peripheral.o)
 .text.PLIB_PCACHE_CacheLineIsInst
                0x00000000       0x20 ..\..\..\..\..\..\..\..\..\..\microchip\harmony\v1_07_01\bin\framework\peripheral\PIC32MX440F256H_peripherals.a(peripheral.o)
 .text.PLIB_PCACHE_ExistsCacheLineType
                0x00000000        0x8 ..\..\..\..\..\..\..\..\..\..\microchip\harmony\v1_07_01\bin\framework\peripheral\PIC32MX440F256H_peripherals.a(peripheral.o)
 .text.PLIB_PCACHE_CacheLineLock
                0x00000000       0x1c ..\..\..\..\..\..\..\..\..\..\microchip\harmony\v1_07_01\bin\framework\peripheral\PIC32MX440F256H_peripherals.a(peripheral.o)
 .text.PLIB_PCACHE_CacheLineUnlock
                0x00000000       0x1c ..\..\..\..\..\..\..\..\..\..\microchip\harmony\v1_07_01\bin\framework\peripheral\PIC32MX440F256H_peripherals.a(peripheral.o)
 .text.PLIB_PCACHE_CacheLineIsLocked
                0x00000000       0x20 ..\..\..\..\..\..\..\..\..\..\microchip\harmony\v1_07_01\bin\framework\peripheral\PIC32MX440F256H_peripherals.a(peripheral.o)
 .text.PLIB_PCACHE_ExistsCacheLineLock
                0x00000000        0x8 ..\..\..\..\..\..\..\..\..\..\microchip\harmony\v1_07_01\bin\framework\peripheral\PIC32MX440F256H_peripherals.a(peripheral.o)
 .text.PLIB_PCACHE_CacheLineValid
                0x00000000       0x1c ..\..\..\..\..\..\..\..\..\..\microchip\harmony\v1_07_01\bin\framework\peripheral\PIC32MX440F256H_peripherals.a(peripheral.o)
 .text.PLIB_PCACHE_CacheLineInvalid
                0x00000000       0x1c ..\..\..\..\..\..\..\..\..\..\microchip\harmony\v1_07_01\bin\framework\peripheral\PIC32MX440F256H_peripherals.a(peripheral.o)
 .text.PLIB_PCACHE_CacheLineIsValid
                0x00000000       0x20 ..\..\..\..\..\..\..\..\..\..\microchip\harmony\v1_07_01\bin\framework\peripheral\PIC32MX440F256H_peripherals.a(peripheral.o)
 .text.PLIB_PCACHE_ExistsCacheLineValid
                0x00000000        0x8 ..\..\..\..\..\..\..\..\..\..\microchip\harmony\v1_07_01\bin\framework\peripheral\PIC32MX440F256H_peripherals.a(peripheral.o)
 .text.PLIB_PCACHE_CacheLineAddrSet
                0x00000000       0x34 ..\..\..\..\..\..\..\..\..\..\microchip\harmony\v1_07_01\bin\framework\peripheral\PIC32MX440F256H_peripherals.a(peripheral.o)
 .text.PLIB_PCACHE_CacheLineAddrGet
                0x00000000       0x28 ..\..\..\..\..\..\..\..\..\..\microchip\harmony\v1_07_01\bin\framework\peripheral\PIC32MX440F256H_peripherals.a(peripheral.o)
 .text.PLIB_PCACHE_ExistsCacheLineAddr
                0x00000000        0x8 ..\..\..\..\..\..\..\..\..\..\microchip\harmony\v1_07_01\bin\framework\peripheral\PIC32MX440F256H_peripherals.a(peripheral.o)
 .text.PLIB_PCACHE_CacheLineFlashTypeBoot
                0x00000000       0x1c ..\..\..\..\..\..\..\..\..\..\microchip\harmony\v1_07_01\bin\framework\peripheral\PIC32MX440F256H_peripherals.a(peripheral.o)
 .text.PLIB_PCACHE_CacheLineFlashTypeInst
                0x00000000       0x1c ..\..\..\..\..\..\..\..\..\..\microchip\harmony\v1_07_01\bin\framework\peripheral\PIC32MX440F256H_peripherals.a(peripheral.o)
 .text.PLIB_PCACHE_CacheLineFlashTypeIsInst
                0x00000000       0x20 ..\..\..\..\..\..\..\..\..\..\microchip\harmony\v1_07_01\bin\framework\peripheral\PIC32MX440F256H_peripherals.a(peripheral.o)
 .text.PLIB_PCACHE_ExistsCacheLineFlashType
                0x00000000        0x8 ..\..\..\..\..\..\..\..\..\..\microchip\harmony\v1_07_01\bin\framework\peripheral\PIC32MX440F256H_peripherals.a(peripheral.o)
 .text.PLIB_PCACHE_CacheLineMaskSet
                0x00000000       0x18 ..\..\..\..\..\..\..\..\..\..\microchip\harmony\v1_07_01\bin\framework\peripheral\PIC32MX440F256H_peripherals.a(peripheral.o)
 .text.PLIB_PCACHE_CacheLineMaskGet
                0x00000000       0x20 ..\..\..\..\..\..\..\..\..\..\microchip\harmony\v1_07_01\bin\framework\peripheral\PIC32MX440F256H_peripherals.a(peripheral.o)
 .text.PLIB_PCACHE_ExistsCacheLineMask
                0x00000000        0x8 ..\..\..\..\..\..\..\..\..\..\microchip\harmony\v1_07_01\bin\framework\peripheral\PIC32MX440F256H_peripherals.a(peripheral.o)
 .text.PLIB_PCACHE_WordRead
                0x00000000       0x68 ..\..\..\..\..\..\..\..\..\..\microchip\harmony\v1_07_01\bin\framework\peripheral\PIC32MX440F256H_peripherals.a(peripheral.o)
 .text.PLIB_PCACHE_WordWrite
                0x00000000       0x68 ..\..\..\..\..\..\..\..\..\..\microchip\harmony\v1_07_01\bin\framework\peripheral\PIC32MX440F256H_peripherals.a(peripheral.o)
 .text.PLIB_PCACHE_ExistsWord
                0x00000000        0x8 ..\..\..\..\..\..\..\..\..\..\microchip\harmony\v1_07_01\bin\framework\peripheral\PIC32MX440F256H_peripherals.a(peripheral.o)
 .text.PLIB_PCACHE_LeastRecentlyUsedStateRead
                0x00000000       0x20 ..\..\..\..\..\..\..\..\..\..\microchip\harmony\v1_07_01\bin\framework\peripheral\PIC32MX440F256H_peripherals.a(peripheral.o)
 .text.PLIB_PCACHE_ExistsLeastRecentlyUsedState
                0x00000000        0x8 ..\..\..\..\..\..\..\..\..\..\microchip\harmony\v1_07_01\bin\framework\peripheral\PIC32MX440F256H_peripherals.a(peripheral.o)
 .text.PLIB_PCACHE_CacheHitRead
                0x00000000       0x20 ..\..\..\..\..\..\..\..\..\..\microchip\harmony\v1_07_01\bin\framework\peripheral\PIC32MX440F256H_peripherals.a(peripheral.o)
 .text.PLIB_PCACHE_CacheHitWrite
                0x00000000       0x14 ..\..\..\..\..\..\..\..\..\..\microchip\harmony\v1_07_01\bin\framework\peripheral\PIC32MX440F256H_peripherals.a(peripheral.o)
 .text.PLIB_PCACHE_ExistsCacheHit
                0x00000000        0x8 ..\..\..\..\..\..\..\..\..\..\microchip\harmony\v1_07_01\bin\framework\peripheral\PIC32MX440F256H_peripherals.a(peripheral.o)
 .text.PLIB_PCACHE_CacheMissRead
                0x00000000       0x20 ..\..\..\..\..\..\..\..\..\..\microchip\harmony\v1_07_01\bin\framework\peripheral\PIC32MX440F256H_peripherals.a(peripheral.o)
 .text.PLIB_PCACHE_CacheMissWrite
                0x00000000       0x14 ..\..\..\..\..\..\..\..\..\..\microchip\harmony\v1_07_01\bin\framework\peripheral\PIC32MX440F256H_peripherals.a(peripheral.o)
 .text.PLIB_PCACHE_ExistsCacheMiss
                0x00000000        0x8 ..\..\..\..\..\..\..\..\..\..\microchip\harmony\v1_07_01\bin\framework\peripheral\PIC32MX440F256H_peripherals.a(peripheral.o)
 .text.PLIB_PCACHE_PrefetchAbortRead
                0x00000000       0x20 ..\..\..\..\..\..\..\..\..\..\microchip\harmony\v1_07_01\bin\framework\peripheral\PIC32MX440F256H_peripherals.a(peripheral.o)
 .text.PLIB_PCACHE_PrefetchAbortWrite
                0x00000000       0x14 ..\..\..\..\..\..\..\..\..\..\microchip\harmony\v1_07_01\bin\framework\peripheral\PIC32MX440F256H_peripherals.a(peripheral.o)
 .text.PLIB_PCACHE_ExistsPrefetchAbort
                0x00000000        0x8 ..\..\..\..\..\..\..\..\..\..\microchip\harmony\v1_07_01\bin\framework\peripheral\PIC32MX440F256H_peripherals.a(peripheral.o)
 .text.PLIB_PMP_ExistsStartReadControl
                0x00000000        0x8 ..\..\..\..\..\..\..\..\..\..\microchip\harmony\v1_07_01\bin\framework\peripheral\PIC32MX440F256H_peripherals.a(peripheral.o)
 .text.PLIB_PMP_ReadCycleStart
                0x00000000        0x8 ..\..\..\..\..\..\..\..\..\..\microchip\harmony\v1_07_01\bin\framework\peripheral\PIC32MX440F256H_peripherals.a(peripheral.o)
 .text.PLIB_PMP_ReadCycleIsStarted
                0x00000000        0x8 ..\..\..\..\..\..\..\..\..\..\microchip\harmony\v1_07_01\bin\framework\peripheral\PIC32MX440F256H_peripherals.a(peripheral.o)
 .text.PLIB_PMP_ExistsDualBufferControl
                0x00000000        0x8 ..\..\..\..\..\..\..\..\..\..\microchip\harmony\v1_07_01\bin\framework\peripheral\PIC32MX440F256H_peripherals.a(peripheral.o)
 .text.PLIB_PMP_DualBufferDisable
                0x00000000        0x8 ..\..\..\..\..\..\..\..\..\..\microchip\harmony\v1_07_01\bin\framework\peripheral\PIC32MX440F256H_peripherals.a(peripheral.o)
 .text.PLIB_PMP_DualBufferEnable
                0x00000000        0x8 ..\..\..\..\..\..\..\..\..\..\microchip\harmony\v1_07_01\bin\framework\peripheral\PIC32MX440F256H_peripherals.a(peripheral.o)
 .text.PLIB_PMP_DualBufferIsEnabled
                0x00000000        0x8 ..\..\..\..\..\..\..\..\..\..\microchip\harmony\v1_07_01\bin\framework\peripheral\PIC32MX440F256H_peripherals.a(peripheral.o)
 .text.PLIB_PMP_ExistsEnableControl
                0x00000000        0x8 ..\..\..\..\..\..\..\..\..\..\microchip\harmony\v1_07_01\bin\framework\peripheral\PIC32MX440F256H_peripherals.a(peripheral.o)
 .text.PLIB_PMP_Disable
                0x00000000       0x1c ..\..\..\..\..\..\..\..\..\..\microchip\harmony\v1_07_01\bin\framework\peripheral\PIC32MX440F256H_peripherals.a(peripheral.o)
 .text.PLIB_PMP_Enable
                0x00000000       0x1c ..\..\..\..\..\..\..\..\..\..\microchip\harmony\v1_07_01\bin\framework\peripheral\PIC32MX440F256H_peripherals.a(peripheral.o)
 .text.PLIB_PMP_IsEnabled
                0x00000000       0x20 ..\..\..\..\..\..\..\..\..\..\microchip\harmony\v1_07_01\bin\framework\peripheral\PIC32MX440F256H_peripherals.a(peripheral.o)
 .text.PLIB_PMP_ExistsStopInIdleControl
                0x00000000        0x8 ..\..\..\..\..\..\..\..\..\..\microchip\harmony\v1_07_01\bin\framework\peripheral\PIC32MX440F256H_peripherals.a(peripheral.o)
 .text.PLIB_PMP_StopInIdleEnable
                0x00000000       0x1c ..\..\..\..\..\..\..\..\..\..\microchip\harmony\v1_07_01\bin\framework\peripheral\PIC32MX440F256H_peripherals.a(peripheral.o)
 .text.PLIB_PMP_StopInIdleDisable
                0x00000000       0x1c ..\..\..\..\..\..\..\..\..\..\microchip\harmony\v1_07_01\bin\framework\peripheral\PIC32MX440F256H_peripherals.a(peripheral.o)
 .text.PLIB_PMP_ExistsMUXModeSelect
                0x00000000        0x8 ..\..\..\..\..\..\..\..\..\..\microchip\harmony\v1_07_01\bin\framework\peripheral\PIC32MX440F256H_peripherals.a(peripheral.o)
 .text.PLIB_PMP_MultiplexModeSelect
                0x00000000       0x2c ..\..\..\..\..\..\..\..\..\..\microchip\harmony\v1_07_01\bin\framework\peripheral\PIC32MX440F256H_peripherals.a(peripheral.o)
 .text.PLIB_PMP_MultiplexModeGet
                0x00000000       0x20 ..\..\..\..\..\..\..\..\..\..\microchip\harmony\v1_07_01\bin\framework\peripheral\PIC32MX440F256H_peripherals.a(peripheral.o)
 .text.PLIB_PMP_ExistsBufferType
                0x00000000        0x8 ..\..\..\..\..\..\..\..\..\..\microchip\harmony\v1_07_01\bin\framework\peripheral\PIC32MX440F256H_peripherals.a(peripheral.o)
 .text.PLIB_PMP_InputBufferTypeSelect
                0x00000000       0x4c ..\..\..\..\..\..\..\..\..\..\microchip\harmony\v1_07_01\bin\framework\peripheral\PIC32MX440F256H_peripherals.a(peripheral.o)
 .text.PLIB_PMP_ExistsWriteEnablePortControl
                0x00000000        0x8 ..\..\..\..\..\..\..\..\..\..\microchip\harmony\v1_07_01\bin\framework\peripheral\PIC32MX440F256H_peripherals.a(peripheral.o)
 .text.PLIB_PMP_WriteEnableStrobePortEnable
                0x00000000       0x1c ..\..\..\..\..\..\..\..\..\..\microchip\harmony\v1_07_01\bin\framework\peripheral\PIC32MX440F256H_peripherals.a(peripheral.o)
 .text.PLIB_PMP_WriteEnableStrobePortDisable
                0x00000000       0x1c ..\..\..\..\..\..\..\..\..\..\microchip\harmony\v1_07_01\bin\framework\peripheral\PIC32MX440F256H_peripherals.a(peripheral.o)
 .text.PLIB_PMP_ExistsReadWriteStrobePortControl
                0x00000000        0x8 ..\..\..\..\..\..\..\..\..\..\microchip\harmony\v1_07_01\bin\framework\peripheral\PIC32MX440F256H_peripherals.a(peripheral.o)
 .text.PLIB_PMP_ReadWriteStrobePortEnable
                0x00000000       0x1c ..\..\..\..\..\..\..\..\..\..\microchip\harmony\v1_07_01\bin\framework\peripheral\PIC32MX440F256H_peripherals.a(peripheral.o)
 .text.PLIB_PMP_ReadWriteStrobePortDisable
                0x00000000       0x1c ..\..\..\..\..\..\..\..\..\..\microchip\harmony\v1_07_01\bin\framework\peripheral\PIC32MX440F256H_peripherals.a(peripheral.o)
 .text.PLIB_PMP_ExistsChipSelectoperation
                0x00000000        0x8 ..\..\..\..\..\..\..\..\..\..\microchip\harmony\v1_07_01\bin\framework\peripheral\PIC32MX440F256H_peripherals.a(peripheral.o)
 .text.PLIB_PMP_ChipSelectFunctionSelect
                0x00000000       0x2c ..\..\..\..\..\..\..\..\..\..\microchip\harmony\v1_07_01\bin\framework\peripheral\PIC32MX440F256H_peripherals.a(peripheral.o)
 .text.PLIB_PMP_ExistsAddressLatchPolarity
                0x00000000        0x8 ..\..\..\..\..\..\..\..\..\..\microchip\harmony\v1_07_01\bin\framework\peripheral\PIC32MX440F256H_peripherals.a(peripheral.o)
 .text.PLIB_PMP_AddressLatchPolaritySelect
                0x00000000       0x2c ..\..\..\..\..\..\..\..\..\..\microchip\harmony\v1_07_01\bin\framework\peripheral\PIC32MX440F256H_peripherals.a(peripheral.o)
 .text.PLIB_PMP_ExistsChipXPolarity
                0x00000000        0x8 ..\..\..\..\..\..\..\..\..\..\microchip\harmony\v1_07_01\bin\framework\peripheral\PIC32MX440F256H_peripherals.a(peripheral.o)
 .text.PLIB_PMP_ChipSelectXPolaritySelect
                0x00000000       0x38 ..\..\..\..\..\..\..\..\..\..\microchip\harmony\v1_07_01\bin\framework\peripheral\PIC32MX440F256H_peripherals.a(peripheral.o)
 .text.PLIB_PMP_ExistsWriteEnablePolarity
                0x00000000        0x8 ..\..\..\..\..\..\..\..\..\..\microchip\harmony\v1_07_01\bin\framework\peripheral\PIC32MX440F256H_peripherals.a(peripheral.o)
 .text.PLIB_PMP_WriteEnableStrobePolaritySelect
                0x00000000       0x2c ..\..\..\..\..\..\..\..\..\..\microchip\harmony\v1_07_01\bin\framework\peripheral\PIC32MX440F256H_peripherals.a(peripheral.o)
 .text.PLIB_PMP_ExistsReadWritePolarity
                0x00000000        0x8 ..\..\..\..\..\..\..\..\..\..\microchip\harmony\v1_07_01\bin\framework\peripheral\PIC32MX440F256H_peripherals.a(peripheral.o)
 .text.PLIB_PMP_ReadWriteStrobePolaritySelect
                0x00000000       0x28 ..\..\..\..\..\..\..\..\..\..\microchip\harmony\v1_07_01\bin\framework\peripheral\PIC32MX440F256H_peripherals.a(peripheral.o)
 .text.PLIB_PMP_ExistsBusyStatus
                0x00000000        0x8 ..\..\..\..\..\..\..\..\..\..\microchip\harmony\v1_07_01\bin\framework\peripheral\PIC32MX440F256H_peripherals.a(peripheral.o)
 .text.PLIB_PMP_PortIsBusy
                0x00000000       0x20 ..\..\..\..\..\..\..\..\..\..\microchip\harmony\v1_07_01\bin\framework\peripheral\PIC32MX440F256H_peripherals.a(peripheral.o)
 .text.PLIB_PMP_ExistsInterruptMode
                0x00000000        0x8 ..\..\..\..\..\..\..\..\..\..\microchip\harmony\v1_07_01\bin\framework\peripheral\PIC32MX440F256H_peripherals.a(peripheral.o)
 .text.PLIB_PMP_InterruptModeSelect
                0x00000000       0x2c ..\..\..\..\..\..\..\..\..\..\microchip\harmony\v1_07_01\bin\framework\peripheral\PIC32MX440F256H_peripherals.a(peripheral.o)
 .text.PLIB_PMP_InterruptModeGet
                0x00000000       0x20 ..\..\..\..\..\..\..\..\..\..\microchip\harmony\v1_07_01\bin\framework\peripheral\PIC32MX440F256H_peripherals.a(peripheral.o)
 .text.PLIB_PMP_ExistsIncrementMode
                0x00000000        0x8 ..\..\..\..\..\..\..\..\..\..\microchip\harmony\v1_07_01\bin\framework\peripheral\PIC32MX440F256H_peripherals.a(peripheral.o)
 .text.PLIB_PMP_AddressIncrementModeSelect
                0x00000000       0x2c ..\..\..\..\..\..\..\..\..\..\microchip\harmony\v1_07_01\bin\framework\peripheral\PIC32MX440F256H_peripherals.a(peripheral.o)
 .text.PLIB_PMP_AddressIncrementModeGet
                0x00000000       0x20 ..\..\..\..\..\..\..\..\..\..\microchip\harmony\v1_07_01\bin\framework\peripheral\PIC32MX440F256H_peripherals.a(peripheral.o)
 .text.PLIB_PMP_ExistsDataTransferSize
                0x00000000        0x8 ..\..\..\..\..\..\..\..\..\..\microchip\harmony\v1_07_01\bin\framework\peripheral\PIC32MX440F256H_peripherals.a(peripheral.o)
 .text.PLIB_PMP_DataSizeSelect
                0x00000000       0x2c ..\..\..\..\..\..\..\..\..\..\microchip\harmony\v1_07_01\bin\framework\peripheral\PIC32MX440F256H_peripherals.a(peripheral.o)
 .text.PLIB_PMP_ExistsOperationMode
                0x00000000        0x8 ..\..\..\..\..\..\..\..\..\..\microchip\harmony\v1_07_01\bin\framework\peripheral\PIC32MX440F256H_peripherals.a(peripheral.o)
 .text.PLIB_PMP_OperationModeSelect
                0x00000000       0x2c ..\..\..\..\..\..\..\..\..\..\microchip\harmony\v1_07_01\bin\framework\peripheral\PIC32MX440F256H_peripherals.a(peripheral.o)
 .text.PLIB_PMP_OperationModeGet
                0x00000000       0x20 ..\..\..\..\..\..\..\..\..\..\microchip\harmony\v1_07_01\bin\framework\peripheral\PIC32MX440F256H_peripherals.a(peripheral.o)
 .text.PLIB_PMP_ExistsDataSetUpWaitStates
                0x00000000        0x8 ..\..\..\..\..\..\..\..\..\..\microchip\harmony\v1_07_01\bin\framework\peripheral\PIC32MX440F256H_peripherals.a(peripheral.o)
 .text.PLIB_PMP_WaitStatesDataSetUpSelect
                0x00000000       0x2c ..\..\..\..\..\..\..\..\..\..\microchip\harmony\v1_07_01\bin\framework\peripheral\PIC32MX440F256H_peripherals.a(peripheral.o)
 .text.PLIB_PMP_ExistsDataStrobeWaitStates
                0x00000000        0x8 ..\..\..\..\..\..\..\..\..\..\microchip\harmony\v1_07_01\bin\framework\peripheral\PIC32MX440F256H_peripherals.a(peripheral.o)
 .text.PLIB_PMP_WaitStatesStrobeSelect
                0x00000000       0x2c ..\..\..\..\..\..\..\..\..\..\microchip\harmony\v1_07_01\bin\framework\peripheral\PIC32MX440F256H_peripherals.a(peripheral.o)
 .text.PLIB_PMP_ExistsDataHoldWaitStates
                0x00000000        0x8 ..\..\..\..\..\..\..\..\..\..\microchip\harmony\v1_07_01\bin\framework\peripheral\PIC32MX440F256H_peripherals.a(peripheral.o)
 .text.PLIB_PMP_WaitStatesDataHoldSelect
                0x00000000       0x28 ..\..\..\..\..\..\..\..\..\..\microchip\harmony\v1_07_01\bin\framework\peripheral\PIC32MX440F256H_peripherals.a(peripheral.o)
 .text.PLIB_PMP_ExistsChipSelectEnable
                0x00000000        0x8 ..\..\..\..\..\..\..\..\..\..\microchip\harmony\v1_07_01\bin\framework\peripheral\PIC32MX440F256H_peripherals.a(peripheral.o)
 .text.PLIB_PMP_ChipSelectXEnable
                0x00000000       0x38 ..\..\..\..\..\..\..\..\..\..\microchip\harmony\v1_07_01\bin\framework\peripheral\PIC32MX440F256H_peripherals.a(peripheral.o)
 .text.PLIB_PMP_ChipSelectXDisable
                0x00000000       0x28 ..\..\..\..\..\..\..\..\..\..\microchip\harmony\v1_07_01\bin\framework\peripheral\PIC32MX440F256H_peripherals.a(peripheral.o)
 .text.PLIB_PMP_ExistsWriteChipSelectEnable
                0x00000000        0x8 ..\..\..\..\..\..\..\..\..\..\microchip\harmony\v1_07_01\bin\framework\peripheral\PIC32MX440F256H_peripherals.a(peripheral.o)
 .text.PLIB_PMP_WriteChipSelectXEnable
                0x00000000        0x8 ..\..\..\..\..\..\..\..\..\..\microchip\harmony\v1_07_01\bin\framework\peripheral\PIC32MX440F256H_peripherals.a(peripheral.o)
 .text.PLIB_PMP_WriteChipSelectXDisable
                0x00000000        0x8 ..\..\..\..\..\..\..\..\..\..\microchip\harmony\v1_07_01\bin\framework\peripheral\PIC32MX440F256H_peripherals.a(peripheral.o)
 .text.PLIB_PMP_ExistsReadChipSelectEnable
                0x00000000        0x8 ..\..\..\..\..\..\..\..\..\..\microchip\harmony\v1_07_01\bin\framework\peripheral\PIC32MX440F256H_peripherals.a(peripheral.o)
 .text.PLIB_PMP_ReadChipSelectXEnable
                0x00000000        0x8 ..\..\..\..\..\..\..\..\..\..\microchip\harmony\v1_07_01\bin\framework\peripheral\PIC32MX440F256H_peripherals.a(peripheral.o)
 .text.PLIB_PMP_ReadChipSelectXDisable
                0x00000000        0x8 ..\..\..\..\..\..\..\..\..\..\microchip\harmony\v1_07_01\bin\framework\peripheral\PIC32MX440F256H_peripherals.a(peripheral.o)
 .text.PLIB_PMP_ExistsAddressControl
                0x00000000        0x8 ..\..\..\..\..\..\..\..\..\..\microchip\harmony\v1_07_01\bin\framework\peripheral\PIC32MX440F256H_peripherals.a(peripheral.o)
 .text.PLIB_PMP_AddressSet
                0x00000000       0x14 ..\..\..\..\..\..\..\..\..\..\microchip\harmony\v1_07_01\bin\framework\peripheral\PIC32MX440F256H_peripherals.a(peripheral.o)
 .text.PLIB_PMP_AddressGet
                0x00000000       0x20 ..\..\..\..\..\..\..\..\..\..\microchip\harmony\v1_07_01\bin\framework\peripheral\PIC32MX440F256H_peripherals.a(peripheral.o)
 .text.PLIB_PMP_AddressLinesA0A1Set
                0x00000000       0x2c ..\..\..\..\..\..\..\..\..\..\microchip\harmony\v1_07_01\bin\framework\peripheral\PIC32MX440F256H_peripherals.a(peripheral.o)
 .text.PLIB_PMP_AddressLinesA0A1Get
                0x00000000       0x20 ..\..\..\..\..\..\..\..\..\..\microchip\harmony\v1_07_01\bin\framework\peripheral\PIC32MX440F256H_peripherals.a(peripheral.o)
 .text.PLIB_PMP_ExistsDualModeWriteAddressControl
                0x00000000        0x8 ..\..\..\..\..\..\..\..\..\..\microchip\harmony\v1_07_01\bin\framework\peripheral\PIC32MX440F256H_peripherals.a(peripheral.o)
 .text.PLIB_PMP_DualModeWriteAddressSet
                0x00000000        0x8 ..\..\..\..\..\..\..\..\..\..\microchip\harmony\v1_07_01\bin\framework\peripheral\PIC32MX440F256H_peripherals.a(peripheral.o)
 .text.PLIB_PMP_DualModeWriteAddressGet
                0x00000000        0x8 ..\..\..\..\..\..\..\..\..\..\microchip\harmony\v1_07_01\bin\framework\peripheral\PIC32MX440F256H_peripherals.a(peripheral.o)
 .text.PLIB_PMP_ExistsDualModeReadAddressControl
                0x00000000        0x8 ..\..\..\..\..\..\..\..\..\..\microchip\harmony\v1_07_01\bin\framework\peripheral\PIC32MX440F256H_peripherals.a(peripheral.o)
 .text.PLIB_PMP_DualModeReadAddressSet
                0x00000000        0x8 ..\..\..\..\..\..\..\..\..\..\microchip\harmony\v1_07_01\bin\framework\peripheral\PIC32MX440F256H_peripherals.a(peripheral.o)
 .text.PLIB_PMP_DualModeReadAddressGet
                0x00000000        0x8 ..\..\..\..\..\..\..\..\..\..\microchip\harmony\v1_07_01\bin\framework\peripheral\PIC32MX440F256H_peripherals.a(peripheral.o)
 .text.PLIB_PMP_ExistsAddressPortPinControl
                0x00000000        0x8 ..\..\..\..\..\..\..\..\..\..\microchip\harmony\v1_07_01\bin\framework\peripheral\PIC32MX440F256H_peripherals.a(peripheral.o)
 .text.PLIB_PMP_AddressPortEnable
                0x00000000       0x28 ..\..\..\..\..\..\..\..\..\..\microchip\harmony\v1_07_01\bin\framework\peripheral\PIC32MX440F256H_peripherals.a(peripheral.o)
 .text.PLIB_PMP_AddressPortDisable
                0x00000000       0x1c ..\..\..\..\..\..\..\..\..\..\microchip\harmony\v1_07_01\bin\framework\peripheral\PIC32MX440F256H_peripherals.a(peripheral.o)
 .text.PLIB_PMP_ExistsAddressLatchStrobePortControl
                0x00000000        0x8 ..\..\..\..\..\..\..\..\..\..\microchip\harmony\v1_07_01\bin\framework\peripheral\PIC32MX440F256H_peripherals.a(peripheral.o)
 .text.PLIB_PMP_AddressLatchStrobeEnable
                0x00000000       0x28 ..\..\..\..\..\..\..\..\..\..\microchip\harmony\v1_07_01\bin\framework\peripheral\PIC32MX440F256H_peripherals.a(peripheral.o)
 .text.PLIB_PMP_AddressLatchStrobeDisable
                0x00000000       0x1c ..\..\..\..\..\..\..\..\..\..\microchip\harmony\v1_07_01\bin\framework\peripheral\PIC32MX440F256H_peripherals.a(peripheral.o)
 .text.PLIB_PMP_ExistsInputBufferFull
                0x00000000        0x8 ..\..\..\..\..\..\..\..\..\..\microchip\harmony\v1_07_01\bin\framework\peripheral\PIC32MX440F256H_peripherals.a(peripheral.o)
 .text.PLIB_PMP_InputBuffersAreFull
                0x00000000       0x20 ..\..\..\..\..\..\..\..\..\..\microchip\harmony\v1_07_01\bin\framework\peripheral\PIC32MX440F256H_peripherals.a(peripheral.o)
 .text.PLIB_PMP_ExistsBufferOverFlow
                0x00000000        0x8 ..\..\..\..\..\..\..\..\..\..\microchip\harmony\v1_07_01\bin\framework\peripheral\PIC32MX440F256H_peripherals.a(peripheral.o)
 .text.PLIB_PMP_InputOverflowHasOccurred
                0x00000000       0x20 ..\..\..\..\..\..\..\..\..\..\microchip\harmony\v1_07_01\bin\framework\peripheral\PIC32MX440F256H_peripherals.a(peripheral.o)
 .text.PLIB_PMP_InputOverflowClear
                0x00000000       0x1c ..\..\..\..\..\..\..\..\..\..\microchip\harmony\v1_07_01\bin\framework\peripheral\PIC32MX440F256H_peripherals.a(peripheral.o)
 .text.PLIB_PMP_ExistsInputBufferXStatus
                0x00000000        0x8 ..\..\..\..\..\..\..\..\..\..\microchip\harmony\v1_07_01\bin\framework\peripheral\PIC32MX440F256H_peripherals.a(peripheral.o)
 .text.PLIB_PMP_InputBufferXIsFull
                0x00000000       0x30 ..\..\..\..\..\..\..\..\..\..\microchip\harmony\v1_07_01\bin\framework\peripheral\PIC32MX440F256H_peripherals.a(peripheral.o)
 .text.PLIB_PMP_IsDataReceived
                0x00000000       0x30 ..\..\..\..\..\..\..\..\..\..\microchip\harmony\v1_07_01\bin\framework\peripheral\PIC32MX440F256H_peripherals.a(peripheral.o)
 .text.PLIB_PMP_ExistsOutPutBufferEmpty
                0x00000000        0x8 ..\..\..\..\..\..\..\..\..\..\microchip\harmony\v1_07_01\bin\framework\peripheral\PIC32MX440F256H_peripherals.a(peripheral.o)
 .text.PLIB_PMP_OutputBuffersAreEmpty
                0x00000000       0x20 ..\..\..\..\..\..\..\..\..\..\microchip\harmony\v1_07_01\bin\framework\peripheral\PIC32MX440F256H_peripherals.a(peripheral.o)
 .text.PLIB_PMP_ExistsBufferUnderFlow
                0x00000000        0x8 ..\..\..\..\..\..\..\..\..\..\microchip\harmony\v1_07_01\bin\framework\peripheral\PIC32MX440F256H_peripherals.a(peripheral.o)
 .text.PLIB_PMP_OutputUnderflowHasOccurred
                0x00000000       0x20 ..\..\..\..\..\..\..\..\..\..\microchip\harmony\v1_07_01\bin\framework\peripheral\PIC32MX440F256H_peripherals.a(peripheral.o)
 .text.PLIB_PMP_OutputUnderflowClear
                0x00000000       0x1c ..\..\..\..\..\..\..\..\..\..\microchip\harmony\v1_07_01\bin\framework\peripheral\PIC32MX440F256H_peripherals.a(peripheral.o)
 .text.PLIB_PMP_ExistsOutputBufferXStatus
                0x00000000        0x8 ..\..\..\..\..\..\..\..\..\..\microchip\harmony\v1_07_01\bin\framework\peripheral\PIC32MX440F256H_peripherals.a(peripheral.o)
 .text.PLIB_PMP_OutputBufferXIsEmpty
                0x00000000       0x2c ..\..\..\..\..\..\..\..\..\..\microchip\harmony\v1_07_01\bin\framework\peripheral\PIC32MX440F256H_peripherals.a(peripheral.o)
 .text.PLIB_PMP_IsDataTransmitted
                0x00000000       0x2c ..\..\..\..\..\..\..\..\..\..\microchip\harmony\v1_07_01\bin\framework\peripheral\PIC32MX440F256H_peripherals.a(peripheral.o)
 .text.PLIB_PMP_ExistsBufferRead
                0x00000000        0x8 ..\..\..\..\..\..\..\..\..\..\microchip\harmony\v1_07_01\bin\framework\peripheral\PIC32MX440F256H_peripherals.a(peripheral.o)
 .text.PLIB_PMP_InputBufferXByteReceive
                0x00000000       0x34 ..\..\..\..\..\..\..\..\..\..\microchip\harmony\v1_07_01\bin\framework\peripheral\PIC32MX440F256H_peripherals.a(peripheral.o)
 .text.PLIB_PMP_ExistsBufferWrite
                0x00000000        0x8 ..\..\..\..\..\..\..\..\..\..\microchip\harmony\v1_07_01\bin\framework\peripheral\PIC32MX440F256H_peripherals.a(peripheral.o)
 .text.PLIB_PMP_OutputBufferXByteSend
                0x00000000       0x40 ..\..\..\..\..\..\..\..\..\..\microchip\harmony\v1_07_01\bin\framework\peripheral\PIC32MX440F256H_peripherals.a(peripheral.o)
 .text.PLIB_PMP_ExistsMasterRXTX
                0x00000000        0x8 ..\..\..\..\..\..\..\..\..\..\microchip\harmony\v1_07_01\bin\framework\peripheral\PIC32MX440F256H_peripherals.a(peripheral.o)
 .text.PLIB_PMP_MasterSend
                0x00000000       0x18 ..\..\..\..\..\..\..\..\..\..\microchip\harmony\v1_07_01\bin\framework\peripheral\PIC32MX440F256H_peripherals.a(peripheral.o)
 .text.PLIB_PMP_MasterReceive
                0x00000000       0x20 ..\..\..\..\..\..\..\..\..\..\microchip\harmony\v1_07_01\bin\framework\peripheral\PIC32MX440F256H_peripherals.a(peripheral.o)
 .text.PLIB_PMP_ExistsDualModeMasterRXTX
                0x00000000        0x8 ..\..\..\..\..\..\..\..\..\..\microchip\harmony\v1_07_01\bin\framework\peripheral\PIC32MX440F256H_peripherals.a(peripheral.o)
 .text.PLIB_PMP_DualModeMasterSend
                0x00000000        0x8 ..\..\..\..\..\..\..\..\..\..\microchip\harmony\v1_07_01\bin\framework\peripheral\PIC32MX440F256H_peripherals.a(peripheral.o)
 .text.PLIB_PMP_DualModeMasterReceive
                0x00000000        0x8 ..\..\..\..\..\..\..\..\..\..\microchip\harmony\v1_07_01\bin\framework\peripheral\PIC32MX440F256H_peripherals.a(peripheral.o)
 .text.PLIB_PMP_ExistsSlaveTX
                0x00000000        0x8 ..\..\..\..\..\..\..\..\..\..\microchip\harmony\v1_07_01\bin\framework\peripheral\PIC32MX440F256H_peripherals.a(peripheral.o)
 .text.PLIB_PMP_SlaveSend
                0x00000000       0x18 ..\..\..\..\..\..\..\..\..\..\microchip\harmony\v1_07_01\bin\framework\peripheral\PIC32MX440F256H_peripherals.a(peripheral.o)
 .text.PLIB_PMP_ExistsSlaveRX
                0x00000000        0x8 ..\..\..\..\..\..\..\..\..\..\microchip\harmony\v1_07_01\bin\framework\peripheral\PIC32MX440F256H_peripherals.a(peripheral.o)
 .text.PLIB_PMP_SlaveReceive
                0x00000000       0x20 ..\..\..\..\..\..\..\..\..\..\microchip\harmony\v1_07_01\bin\framework\peripheral\PIC32MX440F256H_peripherals.a(peripheral.o)
 .text.PLIB_PMP_ExistsCSXActiveStatus
                0x00000000        0x8 ..\..\..\..\..\..\..\..\..\..\microchip\harmony\v1_07_01\bin\framework\peripheral\PIC32MX440F256H_peripherals.a(peripheral.o)
 .text.PLIB_PMP_ChipSelectXIsActive
                0x00000000       0x34 ..\..\..\..\..\..\..\..\..\..\microchip\harmony\v1_07_01\bin\framework\peripheral\PIC32MX440F256H_peripherals.a(peripheral.o)
 .text.PLIB_PORTS_RemapInput
                0x00000000        0x8 ..\..\..\..\..\..\..\..\..\..\microchip\harmony\v1_07_01\bin\framework\peripheral\PIC32MX440F256H_peripherals.a(peripheral.o)
 .text.PLIB_PORTS_ExistsRemapInput
                0x00000000        0x8 ..\..\..\..\..\..\..\..\..\..\microchip\harmony\v1_07_01\bin\framework\peripheral\PIC32MX440F256H_peripherals.a(peripheral.o)
 .text.PLIB_PORTS_RemapOutput
                0x00000000        0x8 ..\..\..\..\..\..\..\..\..\..\microchip\harmony\v1_07_01\bin\framework\peripheral\PIC32MX440F256H_peripherals.a(peripheral.o)
 .text.PLIB_PORTS_ExistsRemapOutput
                0x00000000        0x8 ..\..\..\..\..\..\..\..\..\..\microchip\harmony\v1_07_01\bin\framework\peripheral\PIC32MX440F256H_peripherals.a(peripheral.o)
 .text.PLIB_PORTS_PinModeSelect
                0x00000000       0x38 ..\..\..\..\..\..\..\..\..\..\microchip\harmony\v1_07_01\bin\framework\peripheral\PIC32MX440F256H_peripherals.a(peripheral.o)
 .text.PLIB_PORTS_ExistsPinMode
                0x00000000        0x8 ..\..\..\..\..\..\..\..\..\..\microchip\harmony\v1_07_01\bin\framework\peripheral\PIC32MX440F256H_peripherals.a(peripheral.o)
 .text.PLIB_PORTS_AnPinsModeSelect
                0x00000000       0x30 ..\..\..\..\..\..\..\..\..\..\microchip\harmony\v1_07_01\bin\framework\peripheral\PIC32MX440F256H_peripherals.a(peripheral.o)
 .text.PLIB_PORTS_ExistsAnPinsMode
                0x00000000        0x8 ..\..\..\..\..\..\..\..\..\..\microchip\harmony\v1_07_01\bin\framework\peripheral\PIC32MX440F256H_peripherals.a(peripheral.o)
 .text.PLIB_PORTS_PinGet
                0x00000000       0x44 ..\..\..\..\..\..\..\..\..\..\microchip\harmony\v1_07_01\bin\framework\peripheral\PIC32MX440F256H_peripherals.a(peripheral.o)
 .text.PLIB_PORTS_Read
                0x00000000       0x38 ..\..\..\..\..\..\..\..\..\..\microchip\harmony\v1_07_01\bin\framework\peripheral\PIC32MX440F256H_peripherals.a(peripheral.o)
 .text.PLIB_PORTS_ExistsPortsRead
                0x00000000        0x8 ..\..\..\..\..\..\..\..\..\..\microchip\harmony\v1_07_01\bin\framework\peripheral\PIC32MX440F256H_peripherals.a(peripheral.o)
 .text.PLIB_PORTS_PinGetLatched
                0x00000000       0x44 ..\..\..\..\..\..\..\..\..\..\microchip\harmony\v1_07_01\bin\framework\peripheral\PIC32MX440F256H_peripherals.a(peripheral.o)
 .text.PLIB_PORTS_ReadLatched
                0x00000000       0x38 ..\..\..\..\..\..\..\..\..\..\microchip\harmony\v1_07_01\bin\framework\peripheral\PIC32MX440F256H_peripherals.a(peripheral.o)
 .text.PLIB_PORTS_ExistsLatchRead
                0x00000000        0x8 ..\..\..\..\..\..\..\..\..\..\microchip\harmony\v1_07_01\bin\framework\peripheral\PIC32MX440F256H_peripherals.a(peripheral.o)
 .text.PLIB_PORTS_PinWrite
                0x00000000       0x70 ..\..\..\..\..\..\..\..\..\..\microchip\harmony\v1_07_01\bin\framework\peripheral\PIC32MX440F256H_peripherals.a(peripheral.o)
 .text.PLIB_PORTS_PinSet
                0x00000000       0x38 ..\..\..\..\..\..\..\..\..\..\microchip\harmony\v1_07_01\bin\framework\peripheral\PIC32MX440F256H_peripherals.a(peripheral.o)
 .text.PLIB_PORTS_PinClear
                0x00000000       0x38 ..\..\..\..\..\..\..\..\..\..\microchip\harmony\v1_07_01\bin\framework\peripheral\PIC32MX440F256H_peripherals.a(peripheral.o)
 .text.PLIB_PORTS_PinToggle
                0x00000000       0x38 ..\..\..\..\..\..\..\..\..\..\microchip\harmony\v1_07_01\bin\framework\peripheral\PIC32MX440F256H_peripherals.a(peripheral.o)
 .text.PLIB_PORTS_Write
                0x00000000       0x2c ..\..\..\..\..\..\..\..\..\..\microchip\harmony\v1_07_01\bin\framework\peripheral\PIC32MX440F256H_peripherals.a(peripheral.o)
 .text.PLIB_PORTS_Set
                0x00000000       0x38 ..\..\..\..\..\..\..\..\..\..\microchip\harmony\v1_07_01\bin\framework\peripheral\PIC32MX440F256H_peripherals.a(peripheral.o)
 .text.PLIB_PORTS_Toggle
                0x00000000       0x34 ..\..\..\..\..\..\..\..\..\..\microchip\harmony\v1_07_01\bin\framework\peripheral\PIC32MX440F256H_peripherals.a(peripheral.o)
 .text.PLIB_PORTS_Clear
                0x00000000       0x34 ..\..\..\..\..\..\..\..\..\..\microchip\harmony\v1_07_01\bin\framework\peripheral\PIC32MX440F256H_peripherals.a(peripheral.o)
 .text.PLIB_PORTS_ExistsPortsWrite
                0x00000000        0x8 ..\..\..\..\..\..\..\..\..\..\microchip\harmony\v1_07_01\bin\framework\peripheral\PIC32MX440F256H_peripherals.a(peripheral.o)
 .text.PLIB_PORTS_PinDirectionInputSet
                0x00000000       0x38 ..\..\..\..\..\..\..\..\..\..\microchip\harmony\v1_07_01\bin\framework\peripheral\PIC32MX440F256H_peripherals.a(peripheral.o)
 .text.PLIB_PORTS_PinDirectionOutputSet
                0x00000000       0x38 ..\..\..\..\..\..\..\..\..\..\microchip\harmony\v1_07_01\bin\framework\peripheral\PIC32MX440F256H_peripherals.a(peripheral.o)
 .text.PLIB_PORTS_DirectionInputSet
                0x00000000       0x34 ..\..\..\..\..\..\..\..\..\..\microchip\harmony\v1_07_01\bin\framework\peripheral\PIC32MX440F256H_peripherals.a(peripheral.o)
 .text.PLIB_PORTS_DirectionOutputSet
                0x00000000       0x34 ..\..\..\..\..\..\..\..\..\..\microchip\harmony\v1_07_01\bin\framework\peripheral\PIC32MX440F256H_peripherals.a(peripheral.o)
 .text.PLIB_PORTS_DirectionGet
                0x00000000       0x38 ..\..\..\..\..\..\..\..\..\..\microchip\harmony\v1_07_01\bin\framework\peripheral\PIC32MX440F256H_peripherals.a(peripheral.o)
 .text.PLIB_PORTS_ExistsPortsDirection
                0x00000000        0x8 ..\..\..\..\..\..\..\..\..\..\microchip\harmony\v1_07_01\bin\framework\peripheral\PIC32MX440F256H_peripherals.a(peripheral.o)
 .text.PLIB_PORTS_PinOpenDrainEnable
                0x00000000       0x38 ..\..\..\..\..\..\..\..\..\..\microchip\harmony\v1_07_01\bin\framework\peripheral\PIC32MX440F256H_peripherals.a(peripheral.o)
 .text.PLIB_PORTS_PinOpenDrainDisable
                0x00000000       0x38 ..\..\..\..\..\..\..\..\..\..\microchip\harmony\v1_07_01\bin\framework\peripheral\PIC32MX440F256H_peripherals.a(peripheral.o)
 .text.PLIB_PORTS_OpenDrainEnable
                0x00000000       0x34 ..\..\..\..\..\..\..\..\..\..\microchip\harmony\v1_07_01\bin\framework\peripheral\PIC32MX440F256H_peripherals.a(peripheral.o)
 .text.PLIB_PORTS_OpenDrainDisable
                0x00000000       0x34 ..\..\..\..\..\..\..\..\..\..\microchip\harmony\v1_07_01\bin\framework\peripheral\PIC32MX440F256H_peripherals.a(peripheral.o)
 .text.PLIB_PORTS_ExistsPortsOpenDrain
                0x00000000        0x8 ..\..\..\..\..\..\..\..\..\..\microchip\harmony\v1_07_01\bin\framework\peripheral\PIC32MX440F256H_peripherals.a(peripheral.o)
 .text.PLIB_PORTS_ChangeNoticeEnable
                0x00000000       0x1c ..\..\..\..\..\..\..\..\..\..\microchip\harmony\v1_07_01\bin\framework\peripheral\PIC32MX440F256H_peripherals.a(peripheral.o)
 .text.PLIB_PORTS_ChangeNoticeDisable
                0x00000000       0x1c ..\..\..\..\..\..\..\..\..\..\microchip\harmony\v1_07_01\bin\framework\peripheral\PIC32MX440F256H_peripherals.a(peripheral.o)
 .text.PLIB_PORTS_ExistsChangeNotice
                0x00000000        0x8 ..\..\..\..\..\..\..\..\..\..\microchip\harmony\v1_07_01\bin\framework\peripheral\PIC32MX440F256H_peripherals.a(peripheral.o)
 .text.PLIB_PORTS_PinChangeNoticeEnable
                0x00000000       0x20 ..\..\..\..\..\..\..\..\..\..\microchip\harmony\v1_07_01\bin\framework\peripheral\PIC32MX440F256H_peripherals.a(peripheral.o)
 .text.PLIB_PORTS_PinChangeNoticeDisable
                0x00000000       0x20 ..\..\..\..\..\..\..\..\..\..\microchip\harmony\v1_07_01\bin\framework\peripheral\PIC32MX440F256H_peripherals.a(peripheral.o)
 .text.PLIB_PORTS_CnPinsEnable
                0x00000000       0x18 ..\..\..\..\..\..\..\..\..\..\microchip\harmony\v1_07_01\bin\framework\peripheral\PIC32MX440F256H_peripherals.a(peripheral.o)
 .text.PLIB_PORTS_CnPinsDisable
                0x00000000       0x18 ..\..\..\..\..\..\..\..\..\..\microchip\harmony\v1_07_01\bin\framework\peripheral\PIC32MX440F256H_peripherals.a(peripheral.o)
 .text.PLIB_PORTS_ExistsPinChangeNotice
                0x00000000        0x8 ..\..\..\..\..\..\..\..\..\..\microchip\harmony\v1_07_01\bin\framework\peripheral\PIC32MX440F256H_peripherals.a(peripheral.o)
 .text.PLIB_PORTS_ChangeNoticeInIdleEnable
                0x00000000       0x1c ..\..\..\..\..\..\..\..\..\..\microchip\harmony\v1_07_01\bin\framework\peripheral\PIC32MX440F256H_peripherals.a(peripheral.o)
 .text.PLIB_PORTS_ChangeNoticeInIdleDisable
                0x00000000       0x1c ..\..\..\..\..\..\..\..\..\..\microchip\harmony\v1_07_01\bin\framework\peripheral\PIC32MX440F256H_peripherals.a(peripheral.o)
 .text.PLIB_PORTS_ExistsChangeNoticeInIdle
                0x00000000        0x8 ..\..\..\..\..\..\..\..\..\..\microchip\harmony\v1_07_01\bin\framework\peripheral\PIC32MX440F256H_peripherals.a(peripheral.o)
 .text.PLIB_PORTS_ChangeNoticePullUpEnable
                0x00000000       0x20 ..\..\..\..\..\..\..\..\..\..\microchip\harmony\v1_07_01\bin\framework\peripheral\PIC32MX440F256H_peripherals.a(peripheral.o)
 .text.PLIB_PORTS_ChangeNoticePullUpDisable
                0x00000000       0x20 ..\..\..\..\..\..\..\..\..\..\microchip\harmony\v1_07_01\bin\framework\peripheral\PIC32MX440F256H_peripherals.a(peripheral.o)
 .text.PLIB_PORTS_CnPinsPullUpEnable
                0x00000000       0x18 ..\..\..\..\..\..\..\..\..\..\microchip\harmony\v1_07_01\bin\framework\peripheral\PIC32MX440F256H_peripherals.a(peripheral.o)
 .text.PLIB_PORTS_CnPinsPullUpDisable
                0x00000000       0x18 ..\..\..\..\..\..\..\..\..\..\microchip\harmony\v1_07_01\bin\framework\peripheral\PIC32MX440F256H_peripherals.a(peripheral.o)
 .text.PLIB_PORTS_ExistsChangeNoticePullUp
                0x00000000        0x8 ..\..\..\..\..\..\..\..\..\..\microchip\harmony\v1_07_01\bin\framework\peripheral\PIC32MX440F256H_peripherals.a(peripheral.o)
 .text.PLIB_PORTS_PinModePerPortSelect
                0x00000000        0x8 ..\..\..\..\..\..\..\..\..\..\microchip\harmony\v1_07_01\bin\framework\peripheral\PIC32MX440F256H_peripherals.a(peripheral.o)
 .text.PLIB_PORTS_ChannelModeSelect
                0x00000000        0x8 ..\..\..\..\..\..\..\..\..\..\microchip\harmony\v1_07_01\bin\framework\peripheral\PIC32MX440F256H_peripherals.a(peripheral.o)
 .text.PLIB_PORTS_ExistsPinModePerPort
                0x00000000        0x8 ..\..\..\..\..\..\..\..\..\..\microchip\harmony\v1_07_01\bin\framework\peripheral\PIC32MX440F256H_peripherals.a(peripheral.o)
 .text.PLIB_PORTS_ChangeNoticePullDownPerPortEnable
                0x00000000        0x8 ..\..\..\..\..\..\..\..\..\..\microchip\harmony\v1_07_01\bin\framework\peripheral\PIC32MX440F256H_peripherals.a(peripheral.o)
 .text.PLIB_PORTS_ChangeNoticePullDownPerPortDisable
                0x00000000        0x8 ..\..\..\..\..\..\..\..\..\..\microchip\harmony\v1_07_01\bin\framework\peripheral\PIC32MX440F256H_peripherals.a(peripheral.o)
 .text.PLIB_PORTS_ChannelChangeNoticePullDownEnable
                0x00000000        0x8 ..\..\..\..\..\..\..\..\..\..\microchip\harmony\v1_07_01\bin\framework\peripheral\PIC32MX440F256H_peripherals.a(peripheral.o)
 .text.PLIB_PORTS_ChannelChangeNoticePullDownDisable
                0x00000000        0x8 ..\..\..\..\..\..\..\..\..\..\microchip\harmony\v1_07_01\bin\framework\peripheral\PIC32MX440F256H_peripherals.a(peripheral.o)
 .text.PLIB_PORTS_ExistsChangeNoticePullDownPerPort
                0x00000000        0x8 ..\..\..\..\..\..\..\..\..\..\microchip\harmony\v1_07_01\bin\framework\peripheral\PIC32MX440F256H_peripherals.a(peripheral.o)
 .text.PLIB_PORTS_ChangeNoticePullUpPerPortEnable
                0x00000000        0x8 ..\..\..\..\..\..\..\..\..\..\microchip\harmony\v1_07_01\bin\framework\peripheral\PIC32MX440F256H_peripherals.a(peripheral.o)
 .text.PLIB_PORTS_ChangeNoticePullUpPerPortDisable
                0x00000000        0x8 ..\..\..\..\..\..\..\..\..\..\microchip\harmony\v1_07_01\bin\framework\peripheral\PIC32MX440F256H_peripherals.a(peripheral.o)
 .text.PLIB_PORTS_ChannelChangeNoticePullUpEnable
                0x00000000        0x8 ..\..\..\..\..\..\..\..\..\..\microchip\harmony\v1_07_01\bin\framework\peripheral\PIC32MX440F256H_peripherals.a(peripheral.o)
 .text.PLIB_PORTS_ChannelChangeNoticePullUpDisable
                0x00000000        0x8 ..\..\..\..\..\..\..\..\..\..\microchip\harmony\v1_07_01\bin\framework\peripheral\PIC32MX440F256H_peripherals.a(peripheral.o)
 .text.PLIB_PORTS_ExistsChangeNoticePullUpPerPort
                0x00000000        0x8 ..\..\..\..\..\..\..\..\..\..\microchip\harmony\v1_07_01\bin\framework\peripheral\PIC32MX440F256H_peripherals.a(peripheral.o)
 .text.PLIB_PORTS_PinChangeNoticePerPortEnable
                0x00000000        0x8 ..\..\..\..\..\..\..\..\..\..\microchip\harmony\v1_07_01\bin\framework\peripheral\PIC32MX440F256H_peripherals.a(peripheral.o)
 .text.PLIB_PORTS_PinChangeNoticePerPortDisable
                0x00000000        0x8 ..\..\..\..\..\..\..\..\..\..\microchip\harmony\v1_07_01\bin\framework\peripheral\PIC32MX440F256H_peripherals.a(peripheral.o)
 .text.PLIB_PORTS_ChannelChangeNoticeEnable
                0x00000000        0x8 ..\..\..\..\..\..\..\..\..\..\microchip\harmony\v1_07_01\bin\framework\peripheral\PIC32MX440F256H_peripherals.a(peripheral.o)
 .text.PLIB_PORTS_ChannelChangeNoticeDisable
                0x00000000        0x8 ..\..\..\..\..\..\..\..\..\..\microchip\harmony\v1_07_01\bin\framework\peripheral\PIC32MX440F256H_peripherals.a(peripheral.o)
 .text.PLIB_PORTS_ExistsPinChangeNoticePerPort
                0x00000000        0x8 ..\..\..\..\..\..\..\..\..\..\microchip\harmony\v1_07_01\bin\framework\peripheral\PIC32MX440F256H_peripherals.a(peripheral.o)
 .text.PLIB_PORTS_ChangeNoticePerPortTurnOn
                0x00000000        0x8 ..\..\..\..\..\..\..\..\..\..\microchip\harmony\v1_07_01\bin\framework\peripheral\PIC32MX440F256H_peripherals.a(peripheral.o)
 .text.PLIB_PORTS_ChangeNoticePerPortTurnOff
                0x00000000        0x8 ..\..\..\..\..\..\..\..\..\..\microchip\harmony\v1_07_01\bin\framework\peripheral\PIC32MX440F256H_peripherals.a(peripheral.o)
 .text.PLIB_PORTS_ExistsChangeNoticePerPortTurnOn
                0x00000000        0x8 ..\..\..\..\..\..\..\..\..\..\microchip\harmony\v1_07_01\bin\framework\peripheral\PIC32MX440F256H_peripherals.a(peripheral.o)
 .text.PLIB_PORTS_ChangeNoticeInIdlePerPortEnable
                0x00000000        0x8 ..\..\..\..\..\..\..\..\..\..\microchip\harmony\v1_07_01\bin\framework\peripheral\PIC32MX440F256H_peripherals.a(peripheral.o)
 .text.PLIB_PORTS_ChangeNoticeInIdlePerPortDisable
                0x00000000        0x8 ..\..\..\..\..\..\..\..\..\..\microchip\harmony\v1_07_01\bin\framework\peripheral\PIC32MX440F256H_peripherals.a(peripheral.o)
 .text.PLIB_PORTS_ExistsChangeNoticePerPortInIdle
                0x00000000        0x8 ..\..\..\..\..\..\..\..\..\..\microchip\harmony\v1_07_01\bin\framework\peripheral\PIC32MX440F256H_peripherals.a(peripheral.o)
 .text.PLIB_PORTS_ChangeNoticePerPortHasOccured
                0x00000000        0x8 ..\..\..\..\..\..\..\..\..\..\microchip\harmony\v1_07_01\bin\framework\peripheral\PIC32MX440F256H_peripherals.a(peripheral.o)
 .text.PLIB_PORTS_ChangeNoticePerPortHasOccurred
                0x00000000        0x8 ..\..\..\..\..\..\..\..\..\..\microchip\harmony\v1_07_01\bin\framework\peripheral\PIC32MX440F256H_peripherals.a(peripheral.o)
 .text.PLIB_PORTS_ExistsChangeNoticePerPortStatus
                0x00000000        0x8 ..\..\..\..\..\..\..\..\..\..\microchip\harmony\v1_07_01\bin\framework\peripheral\PIC32MX440F256H_peripherals.a(peripheral.o)
 .text.PLIB_PORTS_ChannelSlewRateSelect
                0x00000000        0x8 ..\..\..\..\..\..\..\..\..\..\microchip\harmony\v1_07_01\bin\framework\peripheral\PIC32MX440F256H_peripherals.a(peripheral.o)
 .text.PLIB_PORTS_PinSlewRateGet
                0x00000000        0x8 ..\..\..\..\..\..\..\..\..\..\microchip\harmony\v1_07_01\bin\framework\peripheral\PIC32MX440F256H_peripherals.a(peripheral.o)
 .text.PLIB_PORTS_ExistsSlewRateControl
                0x00000000        0x8 ..\..\..\..\..\..\..\..\..\..\microchip\harmony\v1_07_01\bin\framework\peripheral\PIC32MX440F256H_peripherals.a(peripheral.o)
 .text.PLIB_PORTS_ChannelChangeNoticeMethodSelect
                0x00000000        0x8 ..\..\..\..\..\..\..\..\..\..\microchip\harmony\v1_07_01\bin\framework\peripheral\PIC32MX440F256H_peripherals.a(peripheral.o)
 .text.PLIB_PORTS_ChannelChangeNoticeMethodGet
                0x00000000        0x8 ..\..\..\..\..\..\..\..\..\..\microchip\harmony\v1_07_01\bin\framework\peripheral\PIC32MX440F256H_peripherals.a(peripheral.o)
 .text.PLIB_PORTS_ExistsChannelChangeNoticeMethod
                0x00000000        0x8 ..\..\..\..\..\..\..\..\..\..\microchip\harmony\v1_07_01\bin\framework\peripheral\PIC32MX440F256H_peripherals.a(peripheral.o)
 .text.PLIB_PORTS_ChannelChangeNoticeEdgeEnable
                0x00000000        0x8 ..\..\..\..\..\..\..\..\..\..\microchip\harmony\v1_07_01\bin\framework\peripheral\PIC32MX440F256H_peripherals.a(peripheral.o)
 .text.PLIB_PORTS_ChannelChangeNoticeEdgeDisable
                0x00000000        0x8 ..\..\..\..\..\..\..\..\..\..\microchip\harmony\v1_07_01\bin\framework\peripheral\PIC32MX440F256H_peripherals.a(peripheral.o)
 .text.PLIB_PORTS_PinChangeNoticeEdgeIsEnabled
                0x00000000        0x8 ..\..\..\..\..\..\..\..\..\..\microchip\harmony\v1_07_01\bin\framework\peripheral\PIC32MX440F256H_peripherals.a(peripheral.o)
 .text.PLIB_PORTS_ExistsChangeNoticeEdgeControl
                0x00000000        0x8 ..\..\..\..\..\..\..\..\..\..\microchip\harmony\v1_07_01\bin\framework\peripheral\PIC32MX440F256H_peripherals.a(peripheral.o)
 .text.PLIB_PORTS_PinChangeNoticeEdgeHasOccurred
                0x00000000        0x8 ..\..\..\..\..\..\..\..\..\..\microchip\harmony\v1_07_01\bin\framework\peripheral\PIC32MX440F256H_peripherals.a(peripheral.o)
 .text.PLIB_PORTS_ExistsChangeNoticeEdgeStatus
                0x00000000        0x8 ..\..\..\..\..\..\..\..\..\..\microchip\harmony\v1_07_01\bin\framework\peripheral\PIC32MX440F256H_peripherals.a(peripheral.o)
 .text.PLIB_POWER_ExistsPeripheralModuleControl
                0x00000000        0x8 ..\..\..\..\..\..\..\..\..\..\microchip\harmony\v1_07_01\bin\framework\peripheral\PIC32MX440F256H_peripherals.a(peripheral.o)
 .text.PLIB_POWER_PeripheralModuleDisable
                0x00000000        0x8 ..\..\..\..\..\..\..\..\..\..\microchip\harmony\v1_07_01\bin\framework\peripheral\PIC32MX440F256H_peripherals.a(peripheral.o)
 .text.PLIB_POWER_PeripheralModuleEnable
                0x00000000        0x8 ..\..\..\..\..\..\..\..\..\..\microchip\harmony\v1_07_01\bin\framework\peripheral\PIC32MX440F256H_peripherals.a(peripheral.o)
 .text.PLIB_POWER_PeripheralModuleIsEnabled
                0x00000000        0x8 ..\..\..\..\..\..\..\..\..\..\microchip\harmony\v1_07_01\bin\framework\peripheral\PIC32MX440F256H_peripherals.a(peripheral.o)
 .text.PLIB_POWER_ExistsVoltageRegulatorControl
                0x00000000        0x8 ..\..\..\..\..\..\..\..\..\..\microchip\harmony\v1_07_01\bin\framework\peripheral\PIC32MX440F256H_peripherals.a(peripheral.o)
 .text.PLIB_POWER_VoltageRegulatorEnable
                0x00000000       0x1c ..\..\..\..\..\..\..\..\..\..\microchip\harmony\v1_07_01\bin\framework\peripheral\PIC32MX440F256H_peripherals.a(peripheral.o)
 .text.PLIB_POWER_VoltageRegulatorDisable
                0x00000000       0x1c ..\..\..\..\..\..\..\..\..\..\microchip\harmony\v1_07_01\bin\framework\peripheral\PIC32MX440F256H_peripherals.a(peripheral.o)
 .text.PLIB_POWER_VoltageRegulatorIsEnabled
                0x00000000       0x20 ..\..\..\..\..\..\..\..\..\..\microchip\harmony\v1_07_01\bin\framework\peripheral\PIC32MX440F256H_peripherals.a(peripheral.o)
 .text.PLIB_POWER_ExistsSleepStatus
                0x00000000        0x8 ..\..\..\..\..\..\..\..\..\..\microchip\harmony\v1_07_01\bin\framework\peripheral\PIC32MX440F256H_peripherals.a(peripheral.o)
 .text.PLIB_POWER_DeviceWasInSleepMode
                0x00000000       0x20 ..\..\..\..\..\..\..\..\..\..\microchip\harmony\v1_07_01\bin\framework\peripheral\PIC32MX440F256H_peripherals.a(peripheral.o)
 .text.PLIB_POWER_ClearSleepStatus
                0x00000000       0x1c ..\..\..\..\..\..\..\..\..\..\microchip\harmony\v1_07_01\bin\framework\peripheral\PIC32MX440F256H_peripherals.a(peripheral.o)
 .text.PLIB_POWER_ExistsIdleStatus
                0x00000000        0x8 ..\..\..\..\..\..\..\..\..\..\microchip\harmony\v1_07_01\bin\framework\peripheral\PIC32MX440F256H_peripherals.a(peripheral.o)
 .text.PLIB_POWER_DeviceWasInIdleMode
                0x00000000       0x20 ..\..\..\..\..\..\..\..\..\..\microchip\harmony\v1_07_01\bin\framework\peripheral\PIC32MX440F256H_peripherals.a(peripheral.o)
 .text.PLIB_POWER_ClearIdleStatus
                0x00000000       0x1c ..\..\..\..\..\..\..\..\..\..\microchip\harmony\v1_07_01\bin\framework\peripheral\PIC32MX440F256H_peripherals.a(peripheral.o)
 .text.PLIB_POWER_ExistsHighVoltageOnVDD1V8
                0x00000000        0x8 ..\..\..\..\..\..\..\..\..\..\microchip\harmony\v1_07_01\bin\framework\peripheral\PIC32MX440F256H_peripherals.a(peripheral.o)
 .text.PLIB_POWER_HighVoltageOnVDD1V8HasOccurred
                0x00000000        0x8 ..\..\..\..\..\..\..\..\..\..\microchip\harmony\v1_07_01\bin\framework\peripheral\PIC32MX440F256H_peripherals.a(peripheral.o)
 .text.PLIB_POWER_ExistsDeepSleepModeOccurrence
                0x00000000        0x8 ..\..\..\..\..\..\..\..\..\..\microchip\harmony\v1_07_01\bin\framework\peripheral\PIC32MX440F256H_peripherals.a(peripheral.o)
 .text.PLIB_POWER_DeepSleepModeHasOccurred
                0x00000000        0x8 ..\..\..\..\..\..\..\..\..\..\microchip\harmony\v1_07_01\bin\framework\peripheral\PIC32MX440F256H_peripherals.a(peripheral.o)
 .text.PLIB_POWER_DeepSleepStatusClear
                0x00000000        0x8 ..\..\..\..\..\..\..\..\..\..\microchip\harmony\v1_07_01\bin\framework\peripheral\PIC32MX440F256H_peripherals.a(peripheral.o)
 .text.PLIB_POWER_ExistsHLVDEnableControl
                0x00000000        0x8 ..\..\..\..\..\..\..\..\..\..\microchip\harmony\v1_07_01\bin\framework\peripheral\PIC32MX440F256H_peripherals.a(peripheral.o)
 .text.PLIB_POWER_HLVDEnable
                0x00000000        0x8 ..\..\..\..\..\..\..\..\..\..\microchip\harmony\v1_07_01\bin\framework\peripheral\PIC32MX440F256H_peripherals.a(peripheral.o)
 .text.PLIB_POWER_HLVDDisable
                0x00000000        0x8 ..\..\..\..\..\..\..\..\..\..\microchip\harmony\v1_07_01\bin\framework\peripheral\PIC32MX440F256H_peripherals.a(peripheral.o)
 .text.PLIB_POWER_HLVDIsEnabled
                0x00000000        0x8 ..\..\..\..\..\..\..\..\..\..\microchip\harmony\v1_07_01\bin\framework\peripheral\PIC32MX440F256H_peripherals.a(peripheral.o)
 .text.PLIB_POWER_ExistsHLVDStopInIdleControl
                0x00000000        0x8 ..\..\..\..\..\..\..\..\..\..\microchip\harmony\v1_07_01\bin\framework\peripheral\PIC32MX440F256H_peripherals.a(peripheral.o)
 .text.PLIB_POWER_HLVDStopInIdleEnable
                0x00000000        0x8 ..\..\..\..\..\..\..\..\..\..\microchip\harmony\v1_07_01\bin\framework\peripheral\PIC32MX440F256H_peripherals.a(peripheral.o)
 .text.PLIB_POWER_HLVDStopInIdleDisable
                0x00000000        0x8 ..\..\..\..\..\..\..\..\..\..\microchip\harmony\v1_07_01\bin\framework\peripheral\PIC32MX440F256H_peripherals.a(peripheral.o)
 .text.PLIB_POWER_HLVDStopInIdleIsEnabled
                0x00000000        0x8 ..\..\..\..\..\..\..\..\..\..\microchip\harmony\v1_07_01\bin\framework\peripheral\PIC32MX440F256H_peripherals.a(peripheral.o)
 .text.PLIB_POWER_ExistsHLVDStatus
                0x00000000        0x8 ..\..\..\..\..\..\..\..\..\..\microchip\harmony\v1_07_01\bin\framework\peripheral\PIC32MX440F256H_peripherals.a(peripheral.o)
 .text.PLIB_POWER_HLVDStatusGet
                0x00000000        0x8 ..\..\..\..\..\..\..\..\..\..\microchip\harmony\v1_07_01\bin\framework\peripheral\PIC32MX440F256H_peripherals.a(peripheral.o)
 .text.PLIB_POWER_ExistsHLVDModeControl
                0x00000000        0x8 ..\..\..\..\..\..\..\..\..\..\microchip\harmony\v1_07_01\bin\framework\peripheral\PIC32MX440F256H_peripherals.a(peripheral.o)
 .text.PLIB_POWER_HLVDModeSelect
                0x00000000        0x8 ..\..\..\..\..\..\..\..\..\..\microchip\harmony\v1_07_01\bin\framework\peripheral\PIC32MX440F256H_peripherals.a(peripheral.o)
 .text.PLIB_POWER_ExistsHLVDBandGapVoltageStability
                0x00000000        0x8 ..\..\..\..\..\..\..\..\..\..\microchip\harmony\v1_07_01\bin\framework\peripheral\PIC32MX440F256H_peripherals.a(peripheral.o)
 .text.PLIB_POWER_HLVDBandGapVoltageIsStable
                0x00000000        0x8 ..\..\..\..\..\..\..\..\..\..\microchip\harmony\v1_07_01\bin\framework\peripheral\PIC32MX440F256H_peripherals.a(peripheral.o)
 .text.PLIB_POWER_ExistsHLVDLimitSelection
                0x00000000        0x8 ..\..\..\..\..\..\..\..\..\..\microchip\harmony\v1_07_01\bin\framework\peripheral\PIC32MX440F256H_peripherals.a(peripheral.o)
 .text.PLIB_POWER_HLVDLimitSelect
                0x00000000        0x8 ..\..\..\..\..\..\..\..\..\..\microchip\harmony\v1_07_01\bin\framework\peripheral\PIC32MX440F256H_peripherals.a(peripheral.o)
 .text.PLIB_POWER_ExistsDeepSleepMode
                0x00000000        0x8 ..\..\..\..\..\..\..\..\..\..\microchip\harmony\v1_07_01\bin\framework\peripheral\PIC32MX440F256H_peripherals.a(peripheral.o)
 .text.PLIB_POWER_DeepSleepModeEnable
                0x00000000        0x8 ..\..\..\..\..\..\..\..\..\..\microchip\harmony\v1_07_01\bin\framework\peripheral\PIC32MX440F256H_peripherals.a(peripheral.o)
 .text.PLIB_POWER_DeepSleepModeDisable
                0x00000000        0x8 ..\..\..\..\..\..\..\..\..\..\microchip\harmony\v1_07_01\bin\framework\peripheral\PIC32MX440F256H_peripherals.a(peripheral.o)
 .text.PLIB_POWER_DeepSleepModeIsEnabled
                0x00000000        0x8 ..\..\..\..\..\..\..\..\..\..\microchip\harmony\v1_07_01\bin\framework\peripheral\PIC32MX440F256H_peripherals.a(peripheral.o)
 .text.PLIB_POWER_ExistsDeepSleepGPRsRetentionControl
                0x00000000        0x8 ..\..\..\..\..\..\..\..\..\..\microchip\harmony\v1_07_01\bin\framework\peripheral\PIC32MX440F256H_peripherals.a(peripheral.o)
 .text.PLIB_POWER_DeepSleepGPRsRetentionEnable
                0x00000000        0x8 ..\..\..\..\..\..\..\..\..\..\microchip\harmony\v1_07_01\bin\framework\peripheral\PIC32MX440F256H_peripherals.a(peripheral.o)
 .text.PLIB_POWER_DeepSleepGPRsRetentionDisable
                0x00000000        0x8 ..\..\..\..\..\..\..\..\..\..\microchip\harmony\v1_07_01\bin\framework\peripheral\PIC32MX440F256H_peripherals.a(peripheral.o)
 .text.PLIB_POWER_ExistsDeepSleepModuleControl
                0x00000000        0x8 ..\..\..\..\..\..\..\..\..\..\microchip\harmony\v1_07_01\bin\framework\peripheral\PIC32MX440F256H_peripherals.a(peripheral.o)
 .text.PLIB_POWER_DeepSleepModuleEnable
                0x00000000        0x8 ..\..\..\..\..\..\..\..\..\..\microchip\harmony\v1_07_01\bin\framework\peripheral\PIC32MX440F256H_peripherals.a(peripheral.o)
 .text.PLIB_POWER_DeepSleepModuleDisable
                0x00000000        0x8 ..\..\..\..\..\..\..\..\..\..\microchip\harmony\v1_07_01\bin\framework\peripheral\PIC32MX440F256H_peripherals.a(peripheral.o)
 .text.PLIB_POWER_ExistsDeepSleepWakeupEventControl
                0x00000000        0x8 ..\..\..\..\..\..\..\..\..\..\microchip\harmony\v1_07_01\bin\framework\peripheral\PIC32MX440F256H_peripherals.a(peripheral.o)
 .text.PLIB_POWER_DeepSleepWakeupEventEnable
                0x00000000        0x8 ..\..\..\..\..\..\..\..\..\..\microchip\harmony\v1_07_01\bin\framework\peripheral\PIC32MX440F256H_peripherals.a(peripheral.o)
 .text.PLIB_POWER_DeepSleepWakeupEventDisable
                0x00000000        0x8 ..\..\..\..\..\..\..\..\..\..\microchip\harmony\v1_07_01\bin\framework\peripheral\PIC32MX440F256H_peripherals.a(peripheral.o)
 .text.PLIB_POWER_ExistsDeepSleepPortPinsStateControl
                0x00000000        0x8 ..\..\..\..\..\..\..\..\..\..\microchip\harmony\v1_07_01\bin\framework\peripheral\PIC32MX440F256H_peripherals.a(peripheral.o)
 .text.PLIB_POWER_DeepSleepPortPinsStateRetain
                0x00000000        0x8 ..\..\..\..\..\..\..\..\..\..\microchip\harmony\v1_07_01\bin\framework\peripheral\PIC32MX440F256H_peripherals.a(peripheral.o)
 .text.PLIB_POWER_DeepSleepPortPinsStateRelease
                0x00000000        0x8 ..\..\..\..\..\..\..\..\..\..\microchip\harmony\v1_07_01\bin\framework\peripheral\PIC32MX440F256H_peripherals.a(peripheral.o)
 .text.PLIB_POWER_ExistsDeepSleepEventStatus
                0x00000000        0x8 ..\..\..\..\..\..\..\..\..\..\microchip\harmony\v1_07_01\bin\framework\peripheral\PIC32MX440F256H_peripherals.a(peripheral.o)
 .text.PLIB_POWER_DeepSleepEventStatusGet
                0x00000000        0x8 ..\..\..\..\..\..\..\..\..\..\microchip\harmony\v1_07_01\bin\framework\peripheral\PIC32MX440F256H_peripherals.a(peripheral.o)
 .text.PLIB_POWER_DeepSleepEventStatusClear
                0x00000000        0x8 ..\..\..\..\..\..\..\..\..\..\microchip\harmony\v1_07_01\bin\framework\peripheral\PIC32MX440F256H_peripherals.a(peripheral.o)
 .text.PLIB_POWER_ExistsDeepSleepGPROperation
                0x00000000        0x8 ..\..\..\..\..\..\..\..\..\..\microchip\harmony\v1_07_01\bin\framework\peripheral\PIC32MX440F256H_peripherals.a(peripheral.o)
 .text.PLIB_POWER_DeepSleepGPRWrite
                0x00000000        0x8 ..\..\..\..\..\..\..\..\..\..\microchip\harmony\v1_07_01\bin\framework\peripheral\PIC32MX440F256H_peripherals.a(peripheral.o)
 .text.PLIB_POWER_DeepSleepGPRRead
                0x00000000        0x8 ..\..\..\..\..\..\..\..\..\..\microchip\harmony\v1_07_01\bin\framework\peripheral\PIC32MX440F256H_peripherals.a(peripheral.o)
 .text.PLIB_RESET_ExistsResetReasonStatus
                0x00000000        0x8 ..\..\..\..\..\..\..\..\..\..\microchip\harmony\v1_07_01\bin\framework\peripheral\PIC32MX440F256H_peripherals.a(peripheral.o)
 .text.PLIB_RESET_ReasonGet
                0x00000000       0x20 ..\..\..\..\..\..\..\..\..\..\microchip\harmony\v1_07_01\bin\framework\peripheral\PIC32MX440F256H_peripherals.a(peripheral.o)
 .text.PLIB_RESET_ReasonClear
                0x00000000       0x20 ..\..\..\..\..\..\..\..\..\..\microchip\harmony\v1_07_01\bin\framework\peripheral\PIC32MX440F256H_peripherals.a(peripheral.o)
 .text.PLIB_RESET_ExistsSoftwareResetTrigger
                0x00000000        0x8 ..\..\..\..\..\..\..\..\..\..\microchip\harmony\v1_07_01\bin\framework\peripheral\PIC32MX440F256H_peripherals.a(peripheral.o)
 .text.PLIB_RESET_SoftwareResetEnable
                0x00000000       0x2c ..\..\..\..\..\..\..\..\..\..\microchip\harmony\v1_07_01\bin\framework\peripheral\PIC32MX440F256H_peripherals.a(peripheral.o)
 .text.PLIB_RESET_ExistsConfigRegReadError
                0x00000000        0x8 ..\..\..\..\..\..\..\..\..\..\microchip\harmony\v1_07_01\bin\framework\peripheral\PIC32MX440F256H_peripherals.a(peripheral.o)
 .text.PLIB_RESET_ConfigRegReadErrorGet
                0x00000000        0x8 ..\..\..\..\..\..\..\..\..\..\microchip\harmony\v1_07_01\bin\framework\peripheral\PIC32MX440F256H_peripherals.a(peripheral.o)
 .text.PLIB_RESET_ExistsNmiControl
                0x00000000        0x8 ..\..\..\..\..\..\..\..\..\..\microchip\harmony\v1_07_01\bin\framework\peripheral\PIC32MX440F256H_peripherals.a(peripheral.o)
 .text.PLIB_RESET_NmiReasonGet
                0x00000000        0x8 ..\..\..\..\..\..\..\..\..\..\microchip\harmony\v1_07_01\bin\framework\peripheral\PIC32MX440F256H_peripherals.a(peripheral.o)
 .text.PLIB_RESET_NmiEventTrigger
                0x00000000        0x8 ..\..\..\..\..\..\..\..\..\..\microchip\harmony\v1_07_01\bin\framework\peripheral\PIC32MX440F256H_peripherals.a(peripheral.o)
 .text.PLIB_RESET_NmiEventClear
                0x00000000        0x8 ..\..\..\..\..\..\..\..\..\..\microchip\harmony\v1_07_01\bin\framework\peripheral\PIC32MX440F256H_peripherals.a(peripheral.o)
 .text.PLIB_RESET_ExistsWdtoInSleep
                0x00000000        0x8 ..\..\..\..\..\..\..\..\..\..\microchip\harmony\v1_07_01\bin\framework\peripheral\PIC32MX440F256H_peripherals.a(peripheral.o)
 .text.PLIB_RESET_WdtTimeOutHasOccurredInSleep
                0x00000000        0x8 ..\..\..\..\..\..\..\..\..\..\microchip\harmony\v1_07_01\bin\framework\peripheral\PIC32MX440F256H_peripherals.a(peripheral.o)
 .text.PLIB_RESET_ExistsNmiCounter
                0x00000000        0x8 ..\..\..\..\..\..\..\..\..\..\microchip\harmony\v1_07_01\bin\framework\peripheral\PIC32MX440F256H_peripherals.a(peripheral.o)
 .text.PLIB_RESET_NmiCounterValueSet
                0x00000000        0x8 ..\..\..\..\..\..\..\..\..\..\microchip\harmony\v1_07_01\bin\framework\peripheral\PIC32MX440F256H_peripherals.a(peripheral.o)
 .text.PLIB_RESET_NmiCounterValueGet
                0x00000000        0x8 ..\..\..\..\..\..\..\..\..\..\microchip\harmony\v1_07_01\bin\framework\peripheral\PIC32MX440F256H_peripherals.a(peripheral.o)
 .text.PLIB_RTCC_Enable
                0x00000000       0x1c ..\..\..\..\..\..\..\..\..\..\microchip\harmony\v1_07_01\bin\framework\peripheral\PIC32MX440F256H_peripherals.a(peripheral.o)
 .text.PLIB_RTCC_Disable
                0x00000000       0x1c ..\..\..\..\..\..\..\..\..\..\microchip\harmony\v1_07_01\bin\framework\peripheral\PIC32MX440F256H_peripherals.a(peripheral.o)
 .text.PLIB_RTCC_ExistsEnableControl
                0x00000000        0x8 ..\..\..\..\..\..\..\..\..\..\microchip\harmony\v1_07_01\bin\framework\peripheral\PIC32MX440F256H_peripherals.a(peripheral.o)
 .text.PLIB_RTCC_WriteEnable
                0x00000000       0x1c ..\..\..\..\..\..\..\..\..\..\microchip\harmony\v1_07_01\bin\framework\peripheral\PIC32MX440F256H_peripherals.a(peripheral.o)
 .text.PLIB_RTCC_WriteDisable
                0x00000000       0x1c ..\..\..\..\..\..\..\..\..\..\microchip\harmony\v1_07_01\bin\framework\peripheral\PIC32MX440F256H_peripherals.a(peripheral.o)
 .text.PLIB_RTCC_ExistsWriteEnable
                0x00000000        0x8 ..\..\..\..\..\..\..\..\..\..\microchip\harmony\v1_07_01\bin\framework\peripheral\PIC32MX440F256H_peripherals.a(peripheral.o)
 .text.PLIB_RTCC_StopInIdleEnable
                0x00000000       0x1c ..\..\..\..\..\..\..\..\..\..\microchip\harmony\v1_07_01\bin\framework\peripheral\PIC32MX440F256H_peripherals.a(peripheral.o)
 .text.PLIB_RTCC_StopInIdleDisable
                0x00000000       0x1c ..\..\..\..\..\..\..\..\..\..\microchip\harmony\v1_07_01\bin\framework\peripheral\PIC32MX440F256H_peripherals.a(peripheral.o)
 .text.PLIB_RTCC_ExistsStopInIdleControl
                0x00000000        0x8 ..\..\..\..\..\..\..\..\..\..\microchip\harmony\v1_07_01\bin\framework\peripheral\PIC32MX440F256H_peripherals.a(peripheral.o)
 .text.PLIB_RTCC_OutputSelect
                0x00000000       0x2c ..\..\..\..\..\..\..\..\..\..\microchip\harmony\v1_07_01\bin\framework\peripheral\PIC32MX440F256H_peripherals.a(peripheral.o)
 .text.PLIB_RTCC_ExistsOutputSelect
                0x00000000        0x8 ..\..\..\..\..\..\..\..\..\..\microchip\harmony\v1_07_01\bin\framework\peripheral\PIC32MX440F256H_peripherals.a(peripheral.o)
 .text.PLIB_RTCC_ClockSourceSelect
                0x00000000        0x8 ..\..\..\..\..\..\..\..\..\..\microchip\harmony\v1_07_01\bin\framework\peripheral\PIC32MX440F256H_peripherals.a(peripheral.o)
 .text.PLIB_RTCC_ExistsClockSelect
                0x00000000        0x8 ..\..\..\..\..\..\..\..\..\..\microchip\harmony\v1_07_01\bin\framework\peripheral\PIC32MX440F256H_peripherals.a(peripheral.o)
 .text.PLIB_RTCC_ClockRunningStatus
                0x00000000       0x20 ..\..\..\..\..\..\..\..\..\..\microchip\harmony\v1_07_01\bin\framework\peripheral\PIC32MX440F256H_peripherals.a(peripheral.o)
 .text.PLIB_RTCC_ExistsClockRunning
                0x00000000        0x8 ..\..\..\..\..\..\..\..\..\..\microchip\harmony\v1_07_01\bin\framework\peripheral\PIC32MX440F256H_peripherals.a(peripheral.o)
 .text.PLIB_RTCC_DriftCalibrateGet
                0x00000000       0x20 ..\..\..\..\..\..\..\..\..\..\microchip\harmony\v1_07_01\bin\framework\peripheral\PIC32MX440F256H_peripherals.a(peripheral.o)
 .text.PLIB_RTCC_DriftCalibrateSet
                0x00000000       0x38 ..\..\..\..\..\..\..\..\..\..\microchip\harmony\v1_07_01\bin\framework\peripheral\PIC32MX440F256H_peripherals.a(peripheral.o)
 .text.PLIB_RTCC_ExistsCalibration
                0x00000000        0x8 ..\..\..\..\..\..\..\..\..\..\microchip\harmony\v1_07_01\bin\framework\peripheral\PIC32MX440F256H_peripherals.a(peripheral.o)
 .text.PLIB_RTCC_RTCSyncStatusGet
                0x00000000       0x20 ..\..\..\..\..\..\..\..\..\..\microchip\harmony\v1_07_01\bin\framework\peripheral\PIC32MX440F256H_peripherals.a(peripheral.o)
 .text.PLIB_RTCC_ExistsSynchronization
                0x00000000        0x8 ..\..\..\..\..\..\..\..\..\..\microchip\harmony\v1_07_01\bin\framework\peripheral\PIC32MX440F256H_peripherals.a(peripheral.o)
 .text.PLIB_RTCC_HalfSecondStatusGet
                0x00000000       0x20 ..\..\..\..\..\..\..\..\..\..\microchip\harmony\v1_07_01\bin\framework\peripheral\PIC32MX440F256H_peripherals.a(peripheral.o)
 .text.PLIB_RTCC_ExistsHalfSecond
                0x00000000        0x8 ..\..\..\..\..\..\..\..\..\..\microchip\harmony\v1_07_01\bin\framework\peripheral\PIC32MX440F256H_peripherals.a(peripheral.o)
 .text.PLIB_RTCC_ClockOutputEnable
                0x00000000       0x1c ..\..\..\..\..\..\..\..\..\..\microchip\harmony\v1_07_01\bin\framework\peripheral\PIC32MX440F256H_peripherals.a(peripheral.o)
 .text.PLIB_RTCC_ClockOutputDisable
                0x00000000       0x1c ..\..\..\..\..\..\..\..\..\..\microchip\harmony\v1_07_01\bin\framework\peripheral\PIC32MX440F256H_peripherals.a(peripheral.o)
 .text.PLIB_RTCC_ExistsOutputControl
                0x00000000        0x8 ..\..\..\..\..\..\..\..\..\..\microchip\harmony\v1_07_01\bin\framework\peripheral\PIC32MX440F256H_peripherals.a(peripheral.o)
 .text.PLIB_RTCC_AlarmEnable
                0x00000000       0x1c ..\..\..\..\..\..\..\..\..\..\microchip\harmony\v1_07_01\bin\framework\peripheral\PIC32MX440F256H_peripherals.a(peripheral.o)
 .text.PLIB_RTCC_AlarmDisable
                0x00000000       0x1c ..\..\..\..\..\..\..\..\..\..\microchip\harmony\v1_07_01\bin\framework\peripheral\PIC32MX440F256H_peripherals.a(peripheral.o)
 .text.PLIB_RTCC_ExistsAlarmControl
                0x00000000        0x8 ..\..\..\..\..\..\..\..\..\..\microchip\harmony\v1_07_01\bin\framework\peripheral\PIC32MX440F256H_peripherals.a(peripheral.o)
 .text.PLIB_RTCC_AlarmChimeEnable
                0x00000000       0x1c ..\..\..\..\..\..\..\..\..\..\microchip\harmony\v1_07_01\bin\framework\peripheral\PIC32MX440F256H_peripherals.a(peripheral.o)
 .text.PLIB_RTCC_AlarmChimeDisable
                0x00000000       0x1c ..\..\..\..\..\..\..\..\..\..\microchip\harmony\v1_07_01\bin\framework\peripheral\PIC32MX440F256H_peripherals.a(peripheral.o)
 .text.PLIB_RTCC_ExistsAlarmChimeControl
                0x00000000        0x8 ..\..\..\..\..\..\..\..\..\..\microchip\harmony\v1_07_01\bin\framework\peripheral\PIC32MX440F256H_peripherals.a(peripheral.o)
 .text.PLIB_RTCC_AlarmPulseInitialSet
                0x00000000       0x2c ..\..\..\..\..\..\..\..\..\..\microchip\harmony\v1_07_01\bin\framework\peripheral\PIC32MX440F256H_peripherals.a(peripheral.o)
 .text.PLIB_RTCC_AlarmPulseInitialGet
                0x00000000       0x20 ..\..\..\..\..\..\..\..\..\..\microchip\harmony\v1_07_01\bin\framework\peripheral\PIC32MX440F256H_peripherals.a(peripheral.o)
 .text.PLIB_RTCC_ExistsAlarmPulseInitial
                0x00000000        0x8 ..\..\..\..\..\..\..\..\..\..\microchip\harmony\v1_07_01\bin\framework\peripheral\PIC32MX440F256H_peripherals.a(peripheral.o)
 .text.PLIB_RTCC_AlarmSyncStatusGet
                0x00000000       0x20 ..\..\..\..\..\..\..\..\..\..\microchip\harmony\v1_07_01\bin\framework\peripheral\PIC32MX440F256H_peripherals.a(peripheral.o)
 .text.PLIB_RTCC_ExistsAlarmSynchronization
                0x00000000        0x8 ..\..\..\..\..\..\..\..\..\..\microchip\harmony\v1_07_01\bin\framework\peripheral\PIC32MX440F256H_peripherals.a(peripheral.o)
 .text.PLIB_RTCC_AlarmMaskModeSelect
                0x00000000       0x2c ..\..\..\..\..\..\..\..\..\..\microchip\harmony\v1_07_01\bin\framework\peripheral\PIC32MX440F256H_peripherals.a(peripheral.o)
 .text.PLIB_RTCC_ExistsAlarmMaskControl
                0x00000000        0x8 ..\..\..\..\..\..\..\..\..\..\microchip\harmony\v1_07_01\bin\framework\peripheral\PIC32MX440F256H_peripherals.a(peripheral.o)
 .text.PLIB_RTCC_AlarmRepeatCountSet
                0x00000000       0x28 ..\..\..\..\..\..\..\..\..\..\microchip\harmony\v1_07_01\bin\framework\peripheral\PIC32MX440F256H_peripherals.a(peripheral.o)
 .text.PLIB_RTCC_AlarmRepeatCountGet
                0x00000000       0x20 ..\..\..\..\..\..\..\..\..\..\microchip\harmony\v1_07_01\bin\framework\peripheral\PIC32MX440F256H_peripherals.a(peripheral.o)
 .text.PLIB_RTCC_ExistsAlarmRepeatControl
                0x00000000        0x8 ..\..\..\..\..\..\..\..\..\..\microchip\harmony\v1_07_01\bin\framework\peripheral\PIC32MX440F256H_peripherals.a(peripheral.o)
 .text.PLIB_RTCC_RTCTimeGet
                0x00000000       0x20 ..\..\..\..\..\..\..\..\..\..\microchip\harmony\v1_07_01\bin\framework\peripheral\PIC32MX440F256H_peripherals.a(peripheral.o)
 .text.PLIB_RTCC_RTCTimeSet
                0x00000000       0x14 ..\..\..\..\..\..\..\..\..\..\microchip\harmony\v1_07_01\bin\framework\peripheral\PIC32MX440F256H_peripherals.a(peripheral.o)
 .text.PLIB_RTCC_RTCHourGet
                0x00000000       0x20 ..\..\..\..\..\..\..\..\..\..\microchip\harmony\v1_07_01\bin\framework\peripheral\PIC32MX440F256H_peripherals.a(peripheral.o)
 .text.PLIB_RTCC_RTCHourSet
                0x00000000       0x24 ..\..\..\..\..\..\..\..\..\..\microchip\harmony\v1_07_01\bin\framework\peripheral\PIC32MX440F256H_peripherals.a(peripheral.o)
 .text.PLIB_RTCC_RTCMinuteGet
                0x00000000       0x20 ..\..\..\..\..\..\..\..\..\..\microchip\harmony\v1_07_01\bin\framework\peripheral\PIC32MX440F256H_peripherals.a(peripheral.o)
 .text.PLIB_RTCC_RTCMinuteSet
                0x00000000       0x34 ..\..\..\..\..\..\..\..\..\..\microchip\harmony\v1_07_01\bin\framework\peripheral\PIC32MX440F256H_peripherals.a(peripheral.o)
 .text.PLIB_RTCC_RTCSecondGet
                0x00000000       0x20 ..\..\..\..\..\..\..\..\..\..\microchip\harmony\v1_07_01\bin\framework\peripheral\PIC32MX440F256H_peripherals.a(peripheral.o)
 .text.PLIB_RTCC_RTCSecondSet
                0x00000000       0x30 ..\..\..\..\..\..\..\..\..\..\microchip\harmony\v1_07_01\bin\framework\peripheral\PIC32MX440F256H_peripherals.a(peripheral.o)
 .text.PLIB_RTCC_ExistsRTCTime
                0x00000000        0x8 ..\..\..\..\..\..\..\..\..\..\microchip\harmony\v1_07_01\bin\framework\peripheral\PIC32MX440F256H_peripherals.a(peripheral.o)
 .text.PLIB_RTCC_RTCDateGet
                0x00000000       0x20 ..\..\..\..\..\..\..\..\..\..\microchip\harmony\v1_07_01\bin\framework\peripheral\PIC32MX440F256H_peripherals.a(peripheral.o)
 .text.PLIB_RTCC_RTCDateSet
                0x00000000       0x14 ..\..\..\..\..\..\..\..\..\..\microchip\harmony\v1_07_01\bin\framework\peripheral\PIC32MX440F256H_peripherals.a(peripheral.o)
 .text.PLIB_RTCC_RTCYearGet
                0x00000000       0x20 ..\..\..\..\..\..\..\..\..\..\microchip\harmony\v1_07_01\bin\framework\peripheral\PIC32MX440F256H_peripherals.a(peripheral.o)
 .text.PLIB_RTCC_RTCYearSet
                0x00000000       0x24 ..\..\..\..\..\..\..\..\..\..\microchip\harmony\v1_07_01\bin\framework\peripheral\PIC32MX440F256H_peripherals.a(peripheral.o)
 .text.PLIB_RTCC_RTCMonthGet
                0x00000000       0x20 ..\..\..\..\..\..\..\..\..\..\microchip\harmony\v1_07_01\bin\framework\peripheral\PIC32MX440F256H_peripherals.a(peripheral.o)
 .text.PLIB_RTCC_RTCMonthSet
                0x00000000       0x34 ..\..\..\..\..\..\..\..\..\..\microchip\harmony\v1_07_01\bin\framework\peripheral\PIC32MX440F256H_peripherals.a(peripheral.o)
 .text.PLIB_RTCC_RTCDayGet
                0x00000000       0x20 ..\..\..\..\..\..\..\..\..\..\microchip\harmony\v1_07_01\bin\framework\peripheral\PIC32MX440F256H_peripherals.a(peripheral.o)
 .text.PLIB_RTCC_RTCDaySet
                0x00000000       0x30 ..\..\..\..\..\..\..\..\..\..\microchip\harmony\v1_07_01\bin\framework\peripheral\PIC32MX440F256H_peripherals.a(peripheral.o)
 .text.PLIB_RTCC_RTCWeekDayGet
                0x00000000       0x20 ..\..\..\..\..\..\..\..\..\..\microchip\harmony\v1_07_01\bin\framework\peripheral\PIC32MX440F256H_peripherals.a(peripheral.o)
 .text.PLIB_RTCC_RTCWeekDaySet
                0x00000000       0x28 ..\..\..\..\..\..\..\..\..\..\microchip\harmony\v1_07_01\bin\framework\peripheral\PIC32MX440F256H_peripherals.a(peripheral.o)
 .text.PLIB_RTCC_ExistsRTCDate
                0x00000000        0x8 ..\..\..\..\..\..\..\..\..\..\microchip\harmony\v1_07_01\bin\framework\peripheral\PIC32MX440F256H_peripherals.a(peripheral.o)
 .text.PLIB_RTCC_AlarmTimeGet
                0x00000000       0x20 ..\..\..\..\..\..\..\..\..\..\microchip\harmony\v1_07_01\bin\framework\peripheral\PIC32MX440F256H_peripherals.a(peripheral.o)
 .text.PLIB_RTCC_AlarmTimeSet
                0x00000000       0x14 ..\..\..\..\..\..\..\..\..\..\microchip\harmony\v1_07_01\bin\framework\peripheral\PIC32MX440F256H_peripherals.a(peripheral.o)
 .text.PLIB_RTCC_AlarmHourGet
                0x00000000       0x20 ..\..\..\..\..\..\..\..\..\..\microchip\harmony\v1_07_01\bin\framework\peripheral\PIC32MX440F256H_peripherals.a(peripheral.o)
 .text.PLIB_RTCC_AlarmHourSet
                0x00000000       0x24 ..\..\..\..\..\..\..\..\..\..\microchip\harmony\v1_07_01\bin\framework\peripheral\PIC32MX440F256H_peripherals.a(peripheral.o)
 .text.PLIB_RTCC_AlarmMinuteGet
                0x00000000       0x20 ..\..\..\..\..\..\..\..\..\..\microchip\harmony\v1_07_01\bin\framework\peripheral\PIC32MX440F256H_peripherals.a(peripheral.o)
 .text.PLIB_RTCC_AlarmMinuteSet
                0x00000000       0x34 ..\..\..\..\..\..\..\..\..\..\microchip\harmony\v1_07_01\bin\framework\peripheral\PIC32MX440F256H_peripherals.a(peripheral.o)
 .text.PLIB_RTCC_AlarmSecondGet
                0x00000000       0x20 ..\..\..\..\..\..\..\..\..\..\microchip\harmony\v1_07_01\bin\framework\peripheral\PIC32MX440F256H_peripherals.a(peripheral.o)
 .text.PLIB_RTCC_AlarmSecondSet
                0x00000000       0x30 ..\..\..\..\..\..\..\..\..\..\microchip\harmony\v1_07_01\bin\framework\peripheral\PIC32MX440F256H_peripherals.a(peripheral.o)
 .text.PLIB_RTCC_ExistsAlarmTime
                0x00000000        0x8 ..\..\..\..\..\..\..\..\..\..\microchip\harmony\v1_07_01\bin\framework\peripheral\PIC32MX440F256H_peripherals.a(peripheral.o)
 .text.PLIB_RTCC_AlarmDateGet
                0x00000000       0x20 ..\..\..\..\..\..\..\..\..\..\microchip\harmony\v1_07_01\bin\framework\peripheral\PIC32MX440F256H_peripherals.a(peripheral.o)
 .text.PLIB_RTCC_AlarmDateSet
                0x00000000       0x14 ..\..\..\..\..\..\..\..\..\..\microchip\harmony\v1_07_01\bin\framework\peripheral\PIC32MX440F256H_peripherals.a(peripheral.o)
 .text.PLIB_RTCC_AlarmMonthGet
                0x00000000       0x20 ..\..\..\..\..\..\..\..\..\..\microchip\harmony\v1_07_01\bin\framework\peripheral\PIC32MX440F256H_peripherals.a(peripheral.o)
 .text.PLIB_RTCC_AlarmMonthSet
                0x00000000       0x34 ..\..\..\..\..\..\..\..\..\..\microchip\harmony\v1_07_01\bin\framework\peripheral\PIC32MX440F256H_peripherals.a(peripheral.o)
 .text.PLIB_RTCC_AlarmDayGet
                0x00000000       0x20 ..\..\..\..\..\..\..\..\..\..\microchip\harmony\v1_07_01\bin\framework\peripheral\PIC32MX440F256H_peripherals.a(peripheral.o)
 .text.PLIB_RTCC_AlarmDaySet
                0x00000000       0x30 ..\..\..\..\..\..\..\..\..\..\microchip\harmony\v1_07_01\bin\framework\peripheral\PIC32MX440F256H_peripherals.a(peripheral.o)
 .text.PLIB_RTCC_AlarmWeekDayGet
                0x00000000       0x20 ..\..\..\..\..\..\..\..\..\..\microchip\harmony\v1_07_01\bin\framework\peripheral\PIC32MX440F256H_peripherals.a(peripheral.o)
 .text.PLIB_RTCC_AlarmWeekDaySet
                0x00000000       0x28 ..\..\..\..\..\..\..\..\..\..\microchip\harmony\v1_07_01\bin\framework\peripheral\PIC32MX440F256H_peripherals.a(peripheral.o)
 .text.PLIB_RTCC_ExistsAlarmDate
                0x00000000        0x8 ..\..\..\..\..\..\..\..\..\..\microchip\harmony\v1_07_01\bin\framework\peripheral\PIC32MX440F256H_peripherals.a(peripheral.o)
 .text.PLIB_SB_ExistsPGVErrGroupStatus
                0x00000000        0x8 ..\..\..\..\..\..\..\..\..\..\microchip\harmony\v1_07_01\bin\framework\peripheral\PIC32MX440F256H_peripherals.a(peripheral.o)
 .text.PLIB_SB_PGVErrGroupStatus
                0x00000000        0x8 ..\..\..\..\..\..\..\..\..\..\microchip\harmony\v1_07_01\bin\framework\peripheral\PIC32MX440F256H_peripherals.a(peripheral.o)
 .text.PLIB_SB_ExistsPGVErrGroup0Status
                0x00000000        0x8 ..\..\..\..\..\..\..\..\..\..\microchip\harmony\v1_07_01\bin\framework\peripheral\PIC32MX440F256H_peripherals.a(peripheral.o)
 .text.PLIB_SB_PGVErrGroup0Status
                0x00000000        0x8 ..\..\..\..\..\..\..\..\..\..\microchip\harmony\v1_07_01\bin\framework\peripheral\PIC32MX440F256H_peripherals.a(peripheral.o)
 .text.PLIB_SB_ExistsPGVErrGroup1Status
                0x00000000        0x8 ..\..\..\..\..\..\..\..\..\..\microchip\harmony\v1_07_01\bin\framework\peripheral\PIC32MX440F256H_peripherals.a(peripheral.o)
 .text.PLIB_SB_PGVErrGroup1Status
                0x00000000        0x8 ..\..\..\..\..\..\..\..\..\..\microchip\harmony\v1_07_01\bin\framework\peripheral\PIC32MX440F256H_peripherals.a(peripheral.o)
 .text.PLIB_SB_ExistsPGVErrGroup2Status
                0x00000000        0x8 ..\..\..\..\..\..\..\..\..\..\microchip\harmony\v1_07_01\bin\framework\peripheral\PIC32MX440F256H_peripherals.a(peripheral.o)
 .text.PLIB_SB_PGVErrGroup2Status
                0x00000000        0x8 ..\..\..\..\..\..\..\..\..\..\microchip\harmony\v1_07_01\bin\framework\peripheral\PIC32MX440F256H_peripherals.a(peripheral.o)
 .text.PLIB_SB_ExistsPGVErrGroup3Status
                0x00000000        0x8 ..\..\..\..\..\..\..\..\..\..\microchip\harmony\v1_07_01\bin\framework\peripheral\PIC32MX440F256H_peripherals.a(peripheral.o)
 .text.PLIB_SB_PGVErrGroup3Status
                0x00000000        0x8 ..\..\..\..\..\..\..\..\..\..\microchip\harmony\v1_07_01\bin\framework\peripheral\PIC32MX440F256H_peripherals.a(peripheral.o)
 .text.PLIB_SB_ExistsPGVErrStatus
                0x00000000        0x8 ..\..\..\..\..\..\..\..\..\..\microchip\harmony\v1_07_01\bin\framework\peripheral\PIC32MX440F256H_peripherals.a(peripheral.o)
 .text.PLIB_SB_PGVErrorStatus
                0x00000000        0x8 ..\..\..\..\..\..\..\..\..\..\microchip\harmony\v1_07_01\bin\framework\peripheral\PIC32MX440F256H_peripherals.a(peripheral.o)
 .text.PLIB_SB_ExistsPGVErrClear
                0x00000000        0x8 ..\..\..\..\..\..\..\..\..\..\microchip\harmony\v1_07_01\bin\framework\peripheral\PIC32MX440F256H_peripherals.a(peripheral.o)
 .text.PLIB_SB_PGVErrorMulti
                0x00000000        0x8 ..\..\..\..\..\..\..\..\..\..\microchip\harmony\v1_07_01\bin\framework\peripheral\PIC32MX440F256H_peripherals.a(peripheral.o)
 .text.PLIB_SB_PGVErrorCode
                0x00000000        0x8 ..\..\..\..\..\..\..\..\..\..\microchip\harmony\v1_07_01\bin\framework\peripheral\PIC32MX440F256H_peripherals.a(peripheral.o)
 .text.PLIB_SB_PGVErrorLogClearSingle
                0x00000000        0x8 ..\..\..\..\..\..\..\..\..\..\microchip\harmony\v1_07_01\bin\framework\peripheral\PIC32MX440F256H_peripherals.a(peripheral.o)
 .text.PLIB_SB_PGVErrorLogClearMulti
                0x00000000        0x8 ..\..\..\..\..\..\..\..\..\..\microchip\harmony\v1_07_01\bin\framework\peripheral\PIC32MX440F256H_peripherals.a(peripheral.o)
 .text.PLIB_SB_ExistsPGVErrInitID
                0x00000000        0x8 ..\..\..\..\..\..\..\..\..\..\microchip\harmony\v1_07_01\bin\framework\peripheral\PIC32MX440F256H_peripherals.a(peripheral.o)
 .text.PLIB_SB_PGVErrorInitiatorID
                0x00000000        0x8 ..\..\..\..\..\..\..\..\..\..\microchip\harmony\v1_07_01\bin\framework\peripheral\PIC32MX440F256H_peripherals.a(peripheral.o)
 .text.PLIB_SB_ExistsPGVErrRegion
                0x00000000        0x8 ..\..\..\..\..\..\..\..\..\..\microchip\harmony\v1_07_01\bin\framework\peripheral\PIC32MX440F256H_peripherals.a(peripheral.o)
 .text.PLIB_SB_PGVErrorRegion
                0x00000000        0x8 ..\..\..\..\..\..\..\..\..\..\microchip\harmony\v1_07_01\bin\framework\peripheral\PIC32MX440F256H_peripherals.a(peripheral.o)
 .text.PLIB_SB_ExistsPGVErrCmdCode
                0x00000000        0x8 ..\..\..\..\..\..\..\..\..\..\microchip\harmony\v1_07_01\bin\framework\peripheral\PIC32MX440F256H_peripherals.a(peripheral.o)
 .text.PLIB_SB_PGVErrorCommandCode
                0x00000000        0x8 ..\..\..\..\..\..\..\..\..\..\microchip\harmony\v1_07_01\bin\framework\peripheral\PIC32MX440F256H_peripherals.a(peripheral.o)
 .text.PLIB_SB_ExistsPGVErrPG
                0x00000000        0x8 ..\..\..\..\..\..\..\..\..\..\microchip\harmony\v1_07_01\bin\framework\peripheral\PIC32MX440F256H_peripherals.a(peripheral.o)
 .text.PLIB_SB_PGVErrorPermissionGroup
                0x00000000        0x8 ..\..\..\..\..\..\..\..\..\..\microchip\harmony\v1_07_01\bin\framework\peripheral\PIC32MX440F256H_peripherals.a(peripheral.o)
 .text.PLIB_SB_ExistsPGVErrRptPri
                0x00000000        0x8 ..\..\..\..\..\..\..\..\..\..\microchip\harmony\v1_07_01\bin\framework\peripheral\PIC32MX440F256H_peripherals.a(peripheral.o)
 .text.PLIB_SB_PGVErrorReportPrimaryEnable
                0x00000000        0x8 ..\..\..\..\..\..\..\..\..\..\microchip\harmony\v1_07_01\bin\framework\peripheral\PIC32MX440F256H_peripherals.a(peripheral.o)
 .text.PLIB_SB_PGVErrorReportPrimaryDisable
                0x00000000        0x8 ..\..\..\..\..\..\..\..\..\..\microchip\harmony\v1_07_01\bin\framework\peripheral\PIC32MX440F256H_peripherals.a(peripheral.o)
 .text.PLIB_SB_ExistsPGVErrClrSingle
                0x00000000        0x8 ..\..\..\..\..\..\..\..\..\..\microchip\harmony\v1_07_01\bin\framework\peripheral\PIC32MX440F256H_peripherals.a(peripheral.o)
 .text.PLIB_SB_PGVErrorClearSingle
                0x00000000        0x8 ..\..\..\..\..\..\..\..\..\..\microchip\harmony\v1_07_01\bin\framework\peripheral\PIC32MX440F256H_peripherals.a(peripheral.o)
 .text.PLIB_SB_ExistsPGVErrClrMulti
                0x00000000        0x8 ..\..\..\..\..\..\..\..\..\..\microchip\harmony\v1_07_01\bin\framework\peripheral\PIC32MX440F256H_peripherals.a(peripheral.o)
 .text.PLIB_SB_PGVErrorClearMulti
                0x00000000        0x8 ..\..\..\..\..\..\..\..\..\..\microchip\harmony\v1_07_01\bin\framework\peripheral\PIC32MX440F256H_peripherals.a(peripheral.o)
 .text.PLIB_SB_PGRegionAddrSet
                0x00000000        0x8 ..\..\..\..\..\..\..\..\..\..\microchip\harmony\v1_07_01\bin\framework\peripheral\PIC32MX440F256H_peripherals.a(peripheral.o)
 .text.PLIB_SB_PGRegionAddrGet
                0x00000000        0x8 ..\..\..\..\..\..\..\..\..\..\microchip\harmony\v1_07_01\bin\framework\peripheral\PIC32MX440F256H_peripherals.a(peripheral.o)
 .text.PLIB_SB_ExistsPGRegAddr
                0x00000000        0x8 ..\..\..\..\..\..\..\..\..\..\microchip\harmony\v1_07_01\bin\framework\peripheral\PIC32MX440F256H_peripherals.a(peripheral.o)
 .text.PLIB_SB_PGRegionSizeSet
                0x00000000        0x8 ..\..\..\..\..\..\..\..\..\..\microchip\harmony\v1_07_01\bin\framework\peripheral\PIC32MX440F256H_peripherals.a(peripheral.o)
 .text.PLIB_SB_PGRegionSizeGet
                0x00000000        0x8 ..\..\..\..\..\..\..\..\..\..\microchip\harmony\v1_07_01\bin\framework\peripheral\PIC32MX440F256H_peripherals.a(peripheral.o)
 .text.PLIB_SB_ExistsPGRegSize
                0x00000000        0x8 ..\..\..\..\..\..\..\..\..\..\microchip\harmony\v1_07_01\bin\framework\peripheral\PIC32MX440F256H_peripherals.a(peripheral.o)
 .text.PLIB_SB_PGRegionReadPermSet
                0x00000000        0x8 ..\..\..\..\..\..\..\..\..\..\microchip\harmony\v1_07_01\bin\framework\peripheral\PIC32MX440F256H_peripherals.a(peripheral.o)
 .text.PLIB_SB_PGRegionReadPermClear
                0x00000000        0x8 ..\..\..\..\..\..\..\..\..\..\microchip\harmony\v1_07_01\bin\framework\peripheral\PIC32MX440F256H_peripherals.a(peripheral.o)
 .text.PLIB_SB_ExistsPGRegRdPerm
                0x00000000        0x8 ..\..\..\..\..\..\..\..\..\..\microchip\harmony\v1_07_01\bin\framework\peripheral\PIC32MX440F256H_peripherals.a(peripheral.o)
 .text.PLIB_SB_PGRegionWritePermSet
                0x00000000        0x8 ..\..\..\..\..\..\..\..\..\..\microchip\harmony\v1_07_01\bin\framework\peripheral\PIC32MX440F256H_peripherals.a(peripheral.o)
 .text.PLIB_SB_PGRegionWritePermClear
                0x00000000        0x8 ..\..\..\..\..\..\..\..\..\..\microchip\harmony\v1_07_01\bin\framework\peripheral\PIC32MX440F256H_peripherals.a(peripheral.o)
 .text.PLIB_SB_ExistsPGRegWrPerm
                0x00000000        0x8 ..\..\..\..\..\..\..\..\..\..\microchip\harmony\v1_07_01\bin\framework\peripheral\PIC32MX440F256H_peripherals.a(peripheral.o)
 .text.PLIB_SB_ExistsInitPermGrp
                0x00000000        0x8 ..\..\..\..\..\..\..\..\..\..\microchip\harmony\v1_07_01\bin\framework\peripheral\PIC32MX440F256H_peripherals.a(peripheral.o)
 .text.PLIB_SB_InitPermGrpSet
                0x00000000        0x8 ..\..\..\..\..\..\..\..\..\..\microchip\harmony\v1_07_01\bin\framework\peripheral\PIC32MX440F256H_peripherals.a(peripheral.o)
 .text.PLIB_SB_ExistsCPUPriority
                0x00000000        0x8 ..\..\..\..\..\..\..\..\..\..\microchip\harmony\v1_07_01\bin\framework\peripheral\PIC32MX440F256H_peripherals.a(peripheral.o)
 .text.PLIB_SB_CPUPrioritySet
                0x00000000        0x8 ..\..\..\..\..\..\..\..\..\..\microchip\harmony\v1_07_01\bin\framework\peripheral\PIC32MX440F256H_peripherals.a(peripheral.o)
 .text.PLIB_SB_ExistsDMAPriority
                0x00000000        0x8 ..\..\..\..\..\..\..\..\..\..\microchip\harmony\v1_07_01\bin\framework\peripheral\PIC32MX440F256H_peripherals.a(peripheral.o)
 .text.PLIB_SB_DMAPrioritySet
                0x00000000        0x8 ..\..\..\..\..\..\..\..\..\..\microchip\harmony\v1_07_01\bin\framework\peripheral\PIC32MX440F256H_peripherals.a(peripheral.o)
 .text.PLIB_SPI_Enable
                0x00000000       0x1c ..\..\..\..\..\..\..\..\..\..\microchip\harmony\v1_07_01\bin\framework\peripheral\PIC32MX440F256H_peripherals.a(peripheral.o)
 .text.PLIB_SPI_Disable
                0x00000000       0x1c ..\..\..\..\..\..\..\..\..\..\microchip\harmony\v1_07_01\bin\framework\peripheral\PIC32MX440F256H_peripherals.a(peripheral.o)
 .text.PLIB_SPI_ExistsEnableControl
                0x00000000        0x8 ..\..\..\..\..\..\..\..\..\..\microchip\harmony\v1_07_01\bin\framework\peripheral\PIC32MX440F256H_peripherals.a(peripheral.o)
 .text.PLIB_SPI_StopInIdleEnable
                0x00000000       0x1c ..\..\..\..\..\..\..\..\..\..\microchip\harmony\v1_07_01\bin\framework\peripheral\PIC32MX440F256H_peripherals.a(peripheral.o)
 .text.PLIB_SPI_StopInIdleDisable
                0x00000000       0x1c ..\..\..\..\..\..\..\..\..\..\microchip\harmony\v1_07_01\bin\framework\peripheral\PIC32MX440F256H_peripherals.a(peripheral.o)
 .text.PLIB_SPI_ExistsStopInIdleControl
                0x00000000        0x8 ..\..\..\..\..\..\..\..\..\..\microchip\harmony\v1_07_01\bin\framework\peripheral\PIC32MX440F256H_peripherals.a(peripheral.o)
 .text.PLIB_SPI_ReceiverHasOverflowed
                0x00000000       0x20 ..\..\..\..\..\..\..\..\..\..\microchip\harmony\v1_07_01\bin\framework\peripheral\PIC32MX440F256H_peripherals.a(peripheral.o)
 .text.PLIB_SPI_ReceiverOverflowClear
                0x00000000       0x1c ..\..\..\..\..\..\..\..\..\..\microchip\harmony\v1_07_01\bin\framework\peripheral\PIC32MX440F256H_peripherals.a(peripheral.o)
 .text.PLIB_SPI_ExistsReceiverOverflow
                0x00000000        0x8 ..\..\..\..\..\..\..\..\..\..\microchip\harmony\v1_07_01\bin\framework\peripheral\PIC32MX440F256H_peripherals.a(peripheral.o)
 .text.PLIB_SPI_TransmitBufferIsFull
                0x00000000        0x8 ..\..\..\..\..\..\..\..\..\..\microchip\harmony\v1_07_01\bin\framework\peripheral\PIC32MX440F256H_peripherals.a(peripheral.o)
 .text.PLIB_SPI_ExistsTransmitBufferFullStatus
                0x00000000        0x8 ..\..\..\..\..\..\..\..\..\..\microchip\harmony\v1_07_01\bin\framework\peripheral\PIC32MX440F256H_peripherals.a(peripheral.o)
 .text.PLIB_SPI_TransmitBufferIsEmpty
                0x00000000       0x20 ..\..\..\..\..\..\..\..\..\..\microchip\harmony\v1_07_01\bin\framework\peripheral\PIC32MX440F256H_peripherals.a(peripheral.o)
 .text.PLIB_SPI_ExistsTransmitBufferEmptyStatus
                0x00000000        0x8 ..\..\..\..\..\..\..\..\..\..\microchip\harmony\v1_07_01\bin\framework\peripheral\PIC32MX440F256H_peripherals.a(peripheral.o)
 .text.PLIB_SPI_ReceiverBufferIsFull
                0x00000000       0x20 ..\..\..\..\..\..\..\..\..\..\microchip\harmony\v1_07_01\bin\framework\peripheral\PIC32MX440F256H_peripherals.a(peripheral.o)
 .text.PLIB_SPI_ExistsReceiveBufferStatus
                0x00000000        0x8 ..\..\..\..\..\..\..\..\..\..\microchip\harmony\v1_07_01\bin\framework\peripheral\PIC32MX440F256H_peripherals.a(peripheral.o)
 .text.PLIB_SPI_PinEnable
                0x00000000       0x4c ..\..\..\..\..\..\..\..\..\..\microchip\harmony\v1_07_01\bin\framework\peripheral\PIC32MX440F256H_peripherals.a(peripheral.o)
 .text.PLIB_SPI_PinDisable
                0x00000000       0x4c ..\..\..\..\..\..\..\..\..\..\microchip\harmony\v1_07_01\bin\framework\peripheral\PIC32MX440F256H_peripherals.a(peripheral.o)
 .text.PLIB_SPI_ExistsPinControl
                0x00000000        0x8 ..\..\..\..\..\..\..\..\..\..\microchip\harmony\v1_07_01\bin\framework\peripheral\PIC32MX440F256H_peripherals.a(peripheral.o)
 .text.PLIB_SPI_CommunicationWidthSelect
                0x00000000       0x70 ..\..\..\..\..\..\..\..\..\..\microchip\harmony\v1_07_01\bin\framework\peripheral\PIC32MX440F256H_peripherals.a(peripheral.o)
 .text.PLIB_SPI_ExistsCommunicationWidth
                0x00000000        0x8 ..\..\..\..\..\..\..\..\..\..\microchip\harmony\v1_07_01\bin\framework\peripheral\PIC32MX440F256H_peripherals.a(peripheral.o)
 .text.PLIB_SPI_AudioCommunicationWidthSelect
                0x00000000        0x8 ..\..\..\..\..\..\..\..\..\..\microchip\harmony\v1_07_01\bin\framework\peripheral\PIC32MX440F256H_peripherals.a(peripheral.o)
 .text.PLIB_SPI_ExistsAudioCommunicationWidth
                0x00000000        0x8 ..\..\..\..\..\..\..\..\..\..\microchip\harmony\v1_07_01\bin\framework\peripheral\PIC32MX440F256H_peripherals.a(peripheral.o)
 .text.PLIB_SPI_InputSamplePhaseSelect
                0x00000000       0x44 ..\..\..\..\..\..\..\..\..\..\microchip\harmony\v1_07_01\bin\framework\peripheral\PIC32MX440F256H_peripherals.a(peripheral.o)
 .text.PLIB_SPI_ExistsInputSamplePhase
                0x00000000        0x8 ..\..\..\..\..\..\..\..\..\..\microchip\harmony\v1_07_01\bin\framework\peripheral\PIC32MX440F256H_peripherals.a(peripheral.o)
 .text.PLIB_SPI_OutputDataPhaseSelect
                0x00000000       0x44 ..\..\..\..\..\..\..\..\..\..\microchip\harmony\v1_07_01\bin\framework\peripheral\PIC32MX440F256H_peripherals.a(peripheral.o)
 .text.PLIB_SPI_ExistsOutputDataPhase
                0x00000000        0x8 ..\..\..\..\..\..\..\..\..\..\microchip\harmony\v1_07_01\bin\framework\peripheral\PIC32MX440F256H_peripherals.a(peripheral.o)
 .text.PLIB_SPI_ClockPolaritySelect
                0x00000000       0x44 ..\..\..\..\..\..\..\..\..\..\microchip\harmony\v1_07_01\bin\framework\peripheral\PIC32MX440F256H_peripherals.a(peripheral.o)
 .text.PLIB_SPI_ExistsClockPolarity
                0x00000000        0x8 ..\..\..\..\..\..\..\..\..\..\microchip\harmony\v1_07_01\bin\framework\peripheral\PIC32MX440F256H_peripherals.a(peripheral.o)
 .text.PLIB_SPI_MasterEnable
                0x00000000       0x1c ..\..\..\..\..\..\..\..\..\..\microchip\harmony\v1_07_01\bin\framework\peripheral\PIC32MX440F256H_peripherals.a(peripheral.o)
 .text.PLIB_SPI_SlaveEnable
                0x00000000       0x1c ..\..\..\..\..\..\..\..\..\..\microchip\harmony\v1_07_01\bin\framework\peripheral\PIC32MX440F256H_peripherals.a(peripheral.o)
 .text.PLIB_SPI_ExistsMasterControl
                0x00000000        0x8 ..\..\..\..\..\..\..\..\..\..\microchip\harmony\v1_07_01\bin\framework\peripheral\PIC32MX440F256H_peripherals.a(peripheral.o)
 .text.PLIB_SPI_BaudRateSet
                0x00000000       0x5c ..\..\..\..\..\..\..\..\..\..\microchip\harmony\v1_07_01\bin\framework\peripheral\PIC32MX440F256H_peripherals.a(peripheral.o)
 .text.PLIB_SPI_ExistsBaudRate
                0x00000000        0x8 ..\..\..\..\..\..\..\..\..\..\microchip\harmony\v1_07_01\bin\framework\peripheral\PIC32MX440F256H_peripherals.a(peripheral.o)
 .text.PLIB_SPI_IsBusy
                0x00000000       0x20 ..\..\..\..\..\..\..\..\..\..\microchip\harmony\v1_07_01\bin\framework\peripheral\PIC32MX440F256H_peripherals.a(peripheral.o)
 .text.PLIB_SPI_ExistsBusStatus
                0x00000000        0x8 ..\..\..\..\..\..\..\..\..\..\microchip\harmony\v1_07_01\bin\framework\peripheral\PIC32MX440F256H_peripherals.a(peripheral.o)
 .text.PLIB_SPI_ReadDataIsSignExtended
                0x00000000        0x8 ..\..\..\..\..\..\..\..\..\..\microchip\harmony\v1_07_01\bin\framework\peripheral\PIC32MX440F256H_peripherals.a(peripheral.o)
 .text.PLIB_SPI_ExistsReadDataSignStatus
                0x00000000        0x8 ..\..\..\..\..\..\..\..\..\..\microchip\harmony\v1_07_01\bin\framework\peripheral\PIC32MX440F256H_peripherals.a(peripheral.o)
 .text.PLIB_SPI_SlaveSelectEnable
                0x00000000        0x8 ..\..\..\..\..\..\..\..\..\..\microchip\harmony\v1_07_01\bin\framework\peripheral\PIC32MX440F256H_peripherals.a(peripheral.o)
 .text.PLIB_SPI_SlaveSelectDisable
                0x00000000        0x8 ..\..\..\..\..\..\..\..\..\..\microchip\harmony\v1_07_01\bin\framework\peripheral\PIC32MX440F256H_peripherals.a(peripheral.o)
 .text.PLIB_SPI_ExistsSlaveSelectControl
                0x00000000        0x8 ..\..\..\..\..\..\..\..\..\..\microchip\harmony\v1_07_01\bin\framework\peripheral\PIC32MX440F256H_peripherals.a(peripheral.o)
 .text.PLIB_SPI_TransmitUnderRunStatusGet
                0x00000000        0x8 ..\..\..\..\..\..\..\..\..\..\microchip\harmony\v1_07_01\bin\framework\peripheral\PIC32MX440F256H_peripherals.a(peripheral.o)
 .text.PLIB_SPI_TransmitUnderRunStatusClear
                0x00000000        0x8 ..\..\..\..\..\..\..\..\..\..\microchip\harmony\v1_07_01\bin\framework\peripheral\PIC32MX440F256H_peripherals.a(peripheral.o)
 .text.PLIB_SPI_ExistsTransmitUnderRunStatus
                0x00000000        0x8 ..\..\..\..\..\..\..\..\..\..\microchip\harmony\v1_07_01\bin\framework\peripheral\PIC32MX440F256H_peripherals.a(peripheral.o)
 .text.PLIB_SPI_FIFOEnable
                0x00000000        0x8 ..\..\..\..\..\..\..\..\..\..\microchip\harmony\v1_07_01\bin\framework\peripheral\PIC32MX440F256H_peripherals.a(peripheral.o)
 .text.PLIB_SPI_FIFODisable
                0x00000000        0x8 ..\..\..\..\..\..\..\..\..\..\microchip\harmony\v1_07_01\bin\framework\peripheral\PIC32MX440F256H_peripherals.a(peripheral.o)
 .text.PLIB_SPI_ExistsFIFOControl
                0x00000000        0x8 ..\..\..\..\..\..\..\..\..\..\microchip\harmony\v1_07_01\bin\framework\peripheral\PIC32MX440F256H_peripherals.a(peripheral.o)
 .text.PLIB_SPI_FIFOCountGet
                0x00000000        0x8 ..\..\..\..\..\..\..\..\..\..\microchip\harmony\v1_07_01\bin\framework\peripheral\PIC32MX440F256H_peripherals.a(peripheral.o)
 .text.PLIB_SPI_ExistsFIFOCount
                0x00000000        0x8 ..\..\..\..\..\..\..\..\..\..\microchip\harmony\v1_07_01\bin\framework\peripheral\PIC32MX440F256H_peripherals.a(peripheral.o)
 .text.PLIB_SPI_ReceiverFIFOIsEmpty
                0x00000000        0x8 ..\..\..\..\..\..\..\..\..\..\microchip\harmony\v1_07_01\bin\framework\peripheral\PIC32MX440F256H_peripherals.a(peripheral.o)
 .text.PLIB_SPI_ExistsReceiveFIFOStatus
                0x00000000        0x8 ..\..\..\..\..\..\..\..\..\..\microchip\harmony\v1_07_01\bin\framework\peripheral\PIC32MX440F256H_peripherals.a(peripheral.o)
 .text.PLIB_SPI_FIFOShiftRegisterIsEmpty
                0x00000000        0x8 ..\..\..\..\..\..\..\..\..\..\microchip\harmony\v1_07_01\bin\framework\peripheral\PIC32MX440F256H_peripherals.a(peripheral.o)
 .text.PLIB_SPI_ExistsFIFOShiftRegisterEmptyStatus
                0x00000000        0x8 ..\..\..\..\..\..\..\..\..\..\microchip\harmony\v1_07_01\bin\framework\peripheral\PIC32MX440F256H_peripherals.a(peripheral.o)
 .text.PLIB_SPI_FIFOInterruptModeSelect
                0x00000000        0x8 ..\..\..\..\..\..\..\..\..\..\microchip\harmony\v1_07_01\bin\framework\peripheral\PIC32MX440F256H_peripherals.a(peripheral.o)
 .text.PLIB_SPI_ExistsFIFOInterruptMode
                0x00000000        0x8 ..\..\..\..\..\..\..\..\..\..\microchip\harmony\v1_07_01\bin\framework\peripheral\PIC32MX440F256H_peripherals.a(peripheral.o)
 .text.PLIB_SPI_FramedCommunicationEnable
                0x00000000       0x1c ..\..\..\..\..\..\..\..\..\..\microchip\harmony\v1_07_01\bin\framework\peripheral\PIC32MX440F256H_peripherals.a(peripheral.o)
 .text.PLIB_SPI_FramedCommunicationDisable
                0x00000000       0x1c ..\..\..\..\..\..\..\..\..\..\microchip\harmony\v1_07_01\bin\framework\peripheral\PIC32MX440F256H_peripherals.a(peripheral.o)
 .text.PLIB_SPI_ExistsFramedCommunication
                0x00000000        0x8 ..\..\..\..\..\..\..\..\..\..\microchip\harmony\v1_07_01\bin\framework\peripheral\PIC32MX440F256H_peripherals.a(peripheral.o)
 .text.PLIB_SPI_FrameSyncPulseDirectionSelect
                0x00000000       0x44 ..\..\..\..\..\..\..\..\..\..\microchip\harmony\v1_07_01\bin\framework\peripheral\PIC32MX440F256H_peripherals.a(peripheral.o)
 .text.PLIB_SPI_ExistsFrameSyncPulseDirection
                0x00000000        0x8 ..\..\..\..\..\..\..\..\..\..\microchip\harmony\v1_07_01\bin\framework\peripheral\PIC32MX440F256H_peripherals.a(peripheral.o)
 .text.PLIB_SPI_FrameSyncPulsePolaritySelect
                0x00000000       0x44 ..\..\..\..\..\..\..\..\..\..\microchip\harmony\v1_07_01\bin\framework\peripheral\PIC32MX440F256H_peripherals.a(peripheral.o)
 .text.PLIB_SPI_ExistsFrameSyncPulsePolarity
                0x00000000        0x8 ..\..\..\..\..\..\..\..\..\..\microchip\harmony\v1_07_01\bin\framework\peripheral\PIC32MX440F256H_peripherals.a(peripheral.o)
 .text.PLIB_SPI_FrameSyncPulseEdgeSelect
                0x00000000       0x44 ..\..\..\..\..\..\..\..\..\..\microchip\harmony\v1_07_01\bin\framework\peripheral\PIC32MX440F256H_peripherals.a(peripheral.o)
 .text.PLIB_SPI_ExistsFrameSyncPulseEdge
                0x00000000        0x8 ..\..\..\..\..\..\..\..\..\..\microchip\harmony\v1_07_01\bin\framework\peripheral\PIC32MX440F256H_peripherals.a(peripheral.o)
 .text.PLIB_SPI_FrameSyncPulseWidthSelect
                0x00000000        0x8 ..\..\..\..\..\..\..\..\..\..\microchip\harmony\v1_07_01\bin\framework\peripheral\PIC32MX440F256H_peripherals.a(peripheral.o)
 .text.PLIB_SPI_ExistsFrameSyncPulseWidth
                0x00000000        0x8 ..\..\..\..\..\..\..\..\..\..\microchip\harmony\v1_07_01\bin\framework\peripheral\PIC32MX440F256H_peripherals.a(peripheral.o)
 .text.PLIB_SPI_FrameSyncPulseCounterSelect
                0x00000000        0x8 ..\..\..\..\..\..\..\..\..\..\microchip\harmony\v1_07_01\bin\framework\peripheral\PIC32MX440F256H_peripherals.a(peripheral.o)
 .text.PLIB_SPI_ExistsFrameSyncPulseCounter
                0x00000000        0x8 ..\..\..\..\..\..\..\..\..\..\microchip\harmony\v1_07_01\bin\framework\peripheral\PIC32MX440F256H_peripherals.a(peripheral.o)
 .text.PLIB_SPI_FrameErrorStatusGet
                0x00000000        0x8 ..\..\..\..\..\..\..\..\..\..\microchip\harmony\v1_07_01\bin\framework\peripheral\PIC32MX440F256H_peripherals.a(peripheral.o)
 .text.PLIB_SPI_FrameErrorStatusClear
                0x00000000        0x8 ..\..\..\..\..\..\..\..\..\..\microchip\harmony\v1_07_01\bin\framework\peripheral\PIC32MX440F256H_peripherals.a(peripheral.o)
 .text.PLIB_SPI_ExistsFrameErrorStatus
                0x00000000        0x8 ..\..\..\..\..\..\..\..\..\..\microchip\harmony\v1_07_01\bin\framework\peripheral\PIC32MX440F256H_peripherals.a(peripheral.o)
 .text.PLIB_SPI_BufferClear
                0x00000000       0x1c ..\..\..\..\..\..\..\..\..\..\microchip\harmony\v1_07_01\bin\framework\peripheral\PIC32MX440F256H_peripherals.a(peripheral.o)
 .text.PLIB_SPI_BufferRead
                0x00000000       0x20 ..\..\..\..\..\..\..\..\..\..\microchip\harmony\v1_07_01\bin\framework\peripheral\PIC32MX440F256H_peripherals.a(peripheral.o)
 .text.PLIB_SPI_BufferWrite
                0x00000000       0x18 ..\..\..\..\..\..\..\..\..\..\microchip\harmony\v1_07_01\bin\framework\peripheral\PIC32MX440F256H_peripherals.a(peripheral.o)
 .text.PLIB_SPI_ExistsBuffer
                0x00000000        0x8 ..\..\..\..\..\..\..\..\..\..\microchip\harmony\v1_07_01\bin\framework\peripheral\PIC32MX440F256H_peripherals.a(peripheral.o)
 .text.PLIB_SPI_BufferAddressGet
                0x00000000       0x18 ..\..\..\..\..\..\..\..\..\..\microchip\harmony\v1_07_01\bin\framework\peripheral\PIC32MX440F256H_peripherals.a(peripheral.o)
 .text.PLIB_SPI_BaudRateClockSelect
                0x00000000        0x8 ..\..\..\..\..\..\..\..\..\..\microchip\harmony\v1_07_01\bin\framework\peripheral\PIC32MX440F256H_peripherals.a(peripheral.o)
 .text.PLIB_SPI_ExistsBaudRateClock
                0x00000000        0x8 ..\..\..\..\..\..\..\..\..\..\microchip\harmony\v1_07_01\bin\framework\peripheral\PIC32MX440F256H_peripherals.a(peripheral.o)
 .text.PLIB_SPI_ErrorInterruptEnable
                0x00000000        0x8 ..\..\..\..\..\..\..\..\..\..\microchip\harmony\v1_07_01\bin\framework\peripheral\PIC32MX440F256H_peripherals.a(peripheral.o)
 .text.PLIB_SPI_ErrorInterruptDisable
                0x00000000        0x8 ..\..\..\..\..\..\..\..\..\..\microchip\harmony\v1_07_01\bin\framework\peripheral\PIC32MX440F256H_peripherals.a(peripheral.o)
 .text.PLIB_SPI_ExistsErrorInterruptControl
                0x00000000        0x8 ..\..\..\..\..\..\..\..\..\..\microchip\harmony\v1_07_01\bin\framework\peripheral\PIC32MX440F256H_peripherals.a(peripheral.o)
 .text.PLIB_SPI_AudioErrorEnable
                0x00000000        0x8 ..\..\..\..\..\..\..\..\..\..\microchip\harmony\v1_07_01\bin\framework\peripheral\PIC32MX440F256H_peripherals.a(peripheral.o)
 .text.PLIB_SPI_AudioErrorDisable
                0x00000000        0x8 ..\..\..\..\..\..\..\..\..\..\microchip\harmony\v1_07_01\bin\framework\peripheral\PIC32MX440F256H_peripherals.a(peripheral.o)
 .text.PLIB_SPI_ExistsAudioErrorControl
                0x00000000        0x8 ..\..\..\..\..\..\..\..\..\..\microchip\harmony\v1_07_01\bin\framework\peripheral\PIC32MX440F256H_peripherals.a(peripheral.o)
 .text.PLIB_SPI_AudioProtocolEnable
                0x00000000        0x8 ..\..\..\..\..\..\..\..\..\..\microchip\harmony\v1_07_01\bin\framework\peripheral\PIC32MX440F256H_peripherals.a(peripheral.o)
 .text.PLIB_SPI_AudioProtocolDisable
                0x00000000        0x8 ..\..\..\..\..\..\..\..\..\..\microchip\harmony\v1_07_01\bin\framework\peripheral\PIC32MX440F256H_peripherals.a(peripheral.o)
 .text.PLIB_SPI_ExistsAudioProtocolControl
                0x00000000        0x8 ..\..\..\..\..\..\..\..\..\..\microchip\harmony\v1_07_01\bin\framework\peripheral\PIC32MX440F256H_peripherals.a(peripheral.o)
 .text.PLIB_SPI_AudioTransmitModeSelect
                0x00000000        0x8 ..\..\..\..\..\..\..\..\..\..\microchip\harmony\v1_07_01\bin\framework\peripheral\PIC32MX440F256H_peripherals.a(peripheral.o)
 .text.PLIB_SPI_ExistsAudioTransmitMode
                0x00000000        0x8 ..\..\..\..\..\..\..\..\..\..\microchip\harmony\v1_07_01\bin\framework\peripheral\PIC32MX440F256H_peripherals.a(peripheral.o)
 .text.PLIB_SPI_AudioProtocolModeSelect
                0x00000000        0x8 ..\..\..\..\..\..\..\..\..\..\microchip\harmony\v1_07_01\bin\framework\peripheral\PIC32MX440F256H_peripherals.a(peripheral.o)
 .text.PLIB_SPI_ExistsAudioProtocolMode
                0x00000000        0x8 ..\..\..\..\..\..\..\..\..\..\microchip\harmony\v1_07_01\bin\framework\peripheral\PIC32MX440F256H_peripherals.a(peripheral.o)
 .text.PLIB_SPI_BufferRead32bit
                0x00000000       0x20 ..\..\..\..\..\..\..\..\..\..\microchip\harmony\v1_07_01\bin\framework\peripheral\PIC32MX440F256H_peripherals.a(peripheral.o)
 .text.PLIB_SPI_BufferWrite32bit
                0x00000000       0x14 ..\..\..\..\..\..\..\..\..\..\microchip\harmony\v1_07_01\bin\framework\peripheral\PIC32MX440F256H_peripherals.a(peripheral.o)
 .text.PLIB_SPI_Exists32bitBuffer
                0x00000000        0x8 ..\..\..\..\..\..\..\..\..\..\microchip\harmony\v1_07_01\bin\framework\peripheral\PIC32MX440F256H_peripherals.a(peripheral.o)
 .text.PLIB_SPI_BufferRead16bit
                0x00000000       0x20 ..\..\..\..\..\..\..\..\..\..\microchip\harmony\v1_07_01\bin\framework\peripheral\PIC32MX440F256H_peripherals.a(peripheral.o)
 .text.PLIB_SPI_BufferWrite16bit
                0x00000000       0x18 ..\..\..\..\..\..\..\..\..\..\microchip\harmony\v1_07_01\bin\framework\peripheral\PIC32MX440F256H_peripherals.a(peripheral.o)
 .text.PLIB_SPI_Exists16bitBuffer
                0x00000000        0x8 ..\..\..\..\..\..\..\..\..\..\microchip\harmony\v1_07_01\bin\framework\peripheral\PIC32MX440F256H_peripherals.a(peripheral.o)
 .text.PLIB_SQI_XIPSDRCommandDDRDataSet
                0x00000000        0x8 ..\..\..\..\..\..\..\..\..\..\microchip\harmony\v1_07_01\bin\framework\peripheral\PIC32MX440F256H_peripherals.a(peripheral.o)
 .text.PLIB_SQI_XIPSDRCommandDDRDataGet
                0x00000000        0x8 ..\..\..\..\..\..\..\..\..\..\microchip\harmony\v1_07_01\bin\framework\peripheral\PIC32MX440F256H_peripherals.a(peripheral.o)
 .text.PLIB_SQI_ExistsXIPSDRCommandDDRData
                0x00000000        0x8 ..\..\..\..\..\..\..\..\..\..\microchip\harmony\v1_07_01\bin\framework\peripheral\PIC32MX440F256H_peripherals.a(peripheral.o)
 .text.PLIB_SQI_XIPDDRModeSet
                0x00000000        0x8 ..\..\..\..\..\..\..\..\..\..\microchip\harmony\v1_07_01\bin\framework\peripheral\PIC32MX440F256H_peripherals.a(peripheral.o)
 .text.PLIB_SQI_ExistsXIPDDRMode
                0x00000000        0x8 ..\..\..\..\..\..\..\..\..\..\microchip\harmony\v1_07_01\bin\framework\peripheral\PIC32MX440F256H_peripherals.a(peripheral.o)
 .text.PLIB_SQI_XIPDummyBytesSet
                0x00000000        0x8 ..\..\..\..\..\..\..\..\..\..\microchip\harmony\v1_07_01\bin\framework\peripheral\PIC32MX440F256H_peripherals.a(peripheral.o)
 .text.PLIB_SQI_XIPDummyBytesGet
                0x00000000        0x8 ..\..\..\..\..\..\..\..\..\..\microchip\harmony\v1_07_01\bin\framework\peripheral\PIC32MX440F256H_peripherals.a(peripheral.o)
 .text.PLIB_SQI_ExistsXIPNumberOfDummyBytes
                0x00000000        0x8 ..\..\..\..\..\..\..\..\..\..\microchip\harmony\v1_07_01\bin\framework\peripheral\PIC32MX440F256H_peripherals.a(peripheral.o)
 .text.PLIB_SQI_XIPAddressBytesSet
                0x00000000        0x8 ..\..\..\..\..\..\..\..\..\..\microchip\harmony\v1_07_01\bin\framework\peripheral\PIC32MX440F256H_peripherals.a(peripheral.o)
 .text.PLIB_SQI_XIPAddressBytesGet
                0x00000000        0x8 ..\..\..\..\..\..\..\..\..\..\microchip\harmony\v1_07_01\bin\framework\peripheral\PIC32MX440F256H_peripherals.a(peripheral.o)
 .text.PLIB_SQI_ExistsXIPNumberOfAddressBytes
                0x00000000        0x8 ..\..\..\..\..\..\..\..\..\..\microchip\harmony\v1_07_01\bin\framework\peripheral\PIC32MX440F256H_peripherals.a(peripheral.o)
 .text.PLIB_SQI_XIPReadOpcodeSet
                0x00000000        0x8 ..\..\..\..\..\..\..\..\..\..\microchip\harmony\v1_07_01\bin\framework\peripheral\PIC32MX440F256H_peripherals.a(peripheral.o)
 .text.PLIB_SQI_XIPReadOpcodeGet
                0x00000000        0x8 ..\..\..\..\..\..\..\..\..\..\microchip\harmony\v1_07_01\bin\framework\peripheral\PIC32MX440F256H_peripherals.a(peripheral.o)
 .text.PLIB_SQI_ExistsXIPReadOpCode
                0x00000000        0x8 ..\..\..\..\..\..\..\..\..\..\microchip\harmony\v1_07_01\bin\framework\peripheral\PIC32MX440F256H_peripherals.a(peripheral.o)
 .text.PLIB_SQI_XIPLaneModeSet
                0x00000000        0x8 ..\..\..\..\..\..\..\..\..\..\microchip\harmony\v1_07_01\bin\framework\peripheral\PIC32MX440F256H_peripherals.a(peripheral.o)
 .text.PLIB_SQI_ExistsXIPLaneMode
                0x00000000        0x8 ..\..\..\..\..\..\..\..\..\..\microchip\harmony\v1_07_01\bin\framework\peripheral\PIC32MX440F256H_peripherals.a(peripheral.o)
 .text.PLIB_SQI_XIPControlWord1Set
                0x00000000        0x8 ..\..\..\..\..\..\..\..\..\..\microchip\harmony\v1_07_01\bin\framework\peripheral\PIC32MX440F256H_peripherals.a(peripheral.o)
 .text.PLIB_SQI_XIPControlWord1Get
                0x00000000        0x8 ..\..\..\..\..\..\..\..\..\..\microchip\harmony\v1_07_01\bin\framework\peripheral\PIC32MX440F256H_peripherals.a(peripheral.o)
 .text.PLIB_SQI_ExistsXIPControlWord1
                0x00000000        0x8 ..\..\..\..\..\..\..\..\..\..\microchip\harmony\v1_07_01\bin\framework\peripheral\PIC32MX440F256H_peripherals.a(peripheral.o)
 .text.PLIB_SQI_XIPChipSelectSet
                0x00000000        0x8 ..\..\..\..\..\..\..\..\..\..\microchip\harmony\v1_07_01\bin\framework\peripheral\PIC32MX440F256H_peripherals.a(peripheral.o)
 .text.PLIB_SQI_XIPChipSelectGet
                0x00000000        0x8 ..\..\..\..\..\..\..\..\..\..\microchip\harmony\v1_07_01\bin\framework\peripheral\PIC32MX440F256H_peripherals.a(peripheral.o)
 .text.PLIB_SQI_ExistsXIPChipSelect
                0x00000000        0x8 ..\..\..\..\..\..\..\..\..\..\microchip\harmony\v1_07_01\bin\framework\peripheral\PIC32MX440F256H_peripherals.a(peripheral.o)
 .text.PLIB_SQI_XIPModeBytesSet
                0x00000000        0x8 ..\..\..\..\..\..\..\..\..\..\microchip\harmony\v1_07_01\bin\framework\peripheral\PIC32MX440F256H_peripherals.a(peripheral.o)
 .text.PLIB_SQI_XIPModeBytesGet
                0x00000000        0x8 ..\..\..\..\..\..\..\..\..\..\microchip\harmony\v1_07_01\bin\framework\peripheral\PIC32MX440F256H_peripherals.a(peripheral.o)
 .text.PLIB_SQI_ExistsXIPModeBytes
                0x00000000        0x8 ..\..\..\..\..\..\..\..\..\..\microchip\harmony\v1_07_01\bin\framework\peripheral\PIC32MX440F256H_peripherals.a(peripheral.o)
 .text.PLIB_SQI_XIPModeCodeSet
                0x00000000        0x8 ..\..\..\..\..\..\..\..\..\..\microchip\harmony\v1_07_01\bin\framework\peripheral\PIC32MX440F256H_peripherals.a(peripheral.o)
 .text.PLIB_SQI_XIPModeCodeGet
                0x00000000        0x8 ..\..\..\..\..\..\..\..\..\..\microchip\harmony\v1_07_01\bin\framework\peripheral\PIC32MX440F256H_peripherals.a(peripheral.o)
 .text.PLIB_SQI_ExistsXIPModeCode
                0x00000000        0x8 ..\..\..\..\..\..\..\..\..\..\microchip\harmony\v1_07_01\bin\framework\peripheral\PIC32MX440F256H_peripherals.a(peripheral.o)
 .text.PLIB_SQI_XIPControlWord2Set
                0x00000000        0x8 ..\..\..\..\..\..\..\..\..\..\microchip\harmony\v1_07_01\bin\framework\peripheral\PIC32MX440F256H_peripherals.a(peripheral.o)
 .text.PLIB_SQI_XIPControlWord2Get
                0x00000000        0x8 ..\..\..\..\..\..\..\..\..\..\microchip\harmony\v1_07_01\bin\framework\peripheral\PIC32MX440F256H_peripherals.a(peripheral.o)
 .text.PLIB_SQI_ExistsXIPControlWord2
                0x00000000        0x8 ..\..\..\..\..\..\..\..\..\..\microchip\harmony\v1_07_01\bin\framework\peripheral\PIC32MX440F256H_peripherals.a(peripheral.o)
 .text.PLIB_SQI_Enable
                0x00000000        0x8 ..\..\..\..\..\..\..\..\..\..\microchip\harmony\v1_07_01\bin\framework\peripheral\PIC32MX440F256H_peripherals.a(peripheral.o)
 .text.PLIB_SQI_Disable
                0x00000000        0x8 ..\..\..\..\..\..\..\..\..\..\microchip\harmony\v1_07_01\bin\framework\peripheral\PIC32MX440F256H_peripherals.a(peripheral.o)
 .text.PLIB_SQI_ExistsEnableControl
                0x00000000        0x8 ..\..\..\..\..\..\..\..\..\..\microchip\harmony\v1_07_01\bin\framework\peripheral\PIC32MX440F256H_peripherals.a(peripheral.o)
 .text.PLIB_SQI_CSOutputEnableSelect
                0x00000000        0x8 ..\..\..\..\..\..\..\..\..\..\microchip\harmony\v1_07_01\bin\framework\peripheral\PIC32MX440F256H_peripherals.a(peripheral.o)
 .text.PLIB_SQI_ExistsCSOutputEnable
                0x00000000        0x8 ..\..\..\..\..\..\..\..\..\..\microchip\harmony\v1_07_01\bin\framework\peripheral\PIC32MX440F256H_peripherals.a(peripheral.o)
 .text.PLIB_SQI_DataOutputEnableSelect
                0x00000000        0x8 ..\..\..\..\..\..\..\..\..\..\microchip\harmony\v1_07_01\bin\framework\peripheral\PIC32MX440F256H_peripherals.a(peripheral.o)
 .text.PLIB_SQI_ExistsDataOutputEnable
                0x00000000        0x8 ..\..\..\..\..\..\..\..\..\..\microchip\harmony\v1_07_01\bin\framework\peripheral\PIC32MX440F256H_peripherals.a(peripheral.o)
 .text.PLIB_SQI_ConBufferSoftReset
                0x00000000        0x8 ..\..\..\..\..\..\..\..\..\..\microchip\harmony\v1_07_01\bin\framework\peripheral\PIC32MX440F256H_peripherals.a(peripheral.o)
 .text.PLIB_SQI_ExistsConBufferSoftReset
                0x00000000        0x8 ..\..\..\..\..\..\..\..\..\..\microchip\harmony\v1_07_01\bin\framework\peripheral\PIC32MX440F256H_peripherals.a(peripheral.o)
 .text.PLIB_SQI_RxBufferSoftReset
                0x00000000        0x8 ..\..\..\..\..\..\..\..\..\..\microchip\harmony\v1_07_01\bin\framework\peripheral\PIC32MX440F256H_peripherals.a(peripheral.o)
 .text.PLIB_SQI_ExistsRxBufferSoftReset
                0x00000000        0x8 ..\..\..\..\..\..\..\..\..\..\microchip\harmony\v1_07_01\bin\framework\peripheral\PIC32MX440F256H_peripherals.a(peripheral.o)
 .text.PLIB_SQI_TxBufferSoftReset
                0x00000000        0x8 ..\..\..\..\..\..\..\..\..\..\microchip\harmony\v1_07_01\bin\framework\peripheral\PIC32MX440F256H_peripherals.a(peripheral.o)
 .text.PLIB_SQI_ExistsTxBufferSoftReset
                0x00000000        0x8 ..\..\..\..\..\..\..\..\..\..\microchip\harmony\v1_07_01\bin\framework\peripheral\PIC32MX440F256H_peripherals.a(peripheral.o)
 .text.PLIB_SQI_SoftReset
                0x00000000        0x8 ..\..\..\..\..\..\..\..\..\..\microchip\harmony\v1_07_01\bin\framework\peripheral\PIC32MX440F256H_peripherals.a(peripheral.o)
 .text.PLIB_SQI_ExistsSoftReset
                0x00000000        0x8 ..\..\..\..\..\..\..\..\..\..\microchip\harmony\v1_07_01\bin\framework\peripheral\PIC32MX440F256H_peripherals.a(peripheral.o)
 .text.PLIB_SQI_BurstEnable
                0x00000000        0x8 ..\..\..\..\..\..\..\..\..\..\microchip\harmony\v1_07_01\bin\framework\peripheral\PIC32MX440F256H_peripherals.a(peripheral.o)
 .text.PLIB_SQI_ExistsBurstControl
                0x00000000        0x8 ..\..\..\..\..\..\..\..\..\..\microchip\harmony\v1_07_01\bin\framework\peripheral\PIC32MX440F256H_peripherals.a(peripheral.o)
 .text.PLIB_SQI_HoldSet
                0x00000000        0x8 ..\..\..\..\..\..\..\..\..\..\microchip\harmony\v1_07_01\bin\framework\peripheral\PIC32MX440F256H_peripherals.a(peripheral.o)
 .text.PLIB_SQI_HoldClear
                0x00000000        0x8 ..\..\..\..\..\..\..\..\..\..\microchip\harmony\v1_07_01\bin\framework\peripheral\PIC32MX440F256H_peripherals.a(peripheral.o)
 .text.PLIB_SQI_HoldGet
                0x00000000        0x8 ..\..\..\..\..\..\..\..\..\..\microchip\harmony\v1_07_01\bin\framework\peripheral\PIC32MX440F256H_peripherals.a(peripheral.o)
 .text.PLIB_SQI_ExistsHoldPinControl
                0x00000000        0x8 ..\..\..\..\..\..\..\..\..\..\microchip\harmony\v1_07_01\bin\framework\peripheral\PIC32MX440F256H_peripherals.a(peripheral.o)
 .text.PLIB_SQI_WriteProtectSet
                0x00000000        0x8 ..\..\..\..\..\..\..\..\..\..\microchip\harmony\v1_07_01\bin\framework\peripheral\PIC32MX440F256H_peripherals.a(peripheral.o)
 .text.PLIB_SQI_WriteProtectClear
                0x00000000        0x8 ..\..\..\..\..\..\..\..\..\..\microchip\harmony\v1_07_01\bin\framework\peripheral\PIC32MX440F256H_peripherals.a(peripheral.o)
 .text.PLIB_SQI_WriteProtectGet
                0x00000000        0x8 ..\..\..\..\..\..\..\..\..\..\microchip\harmony\v1_07_01\bin\framework\peripheral\PIC32MX440F256H_peripherals.a(peripheral.o)
 .text.PLIB_SQI_ExistsWPPinControl
                0x00000000        0x8 ..\..\..\..\..\..\..\..\..\..\microchip\harmony\v1_07_01\bin\framework\peripheral\PIC32MX440F256H_peripherals.a(peripheral.o)
 .text.PLIB_SQI_ReceiveLatchEnable
                0x00000000        0x8 ..\..\..\..\..\..\..\..\..\..\microchip\harmony\v1_07_01\bin\framework\peripheral\PIC32MX440F256H_peripherals.a(peripheral.o)
 .text.PLIB_SQI_ReceiveLatchDisable
                0x00000000        0x8 ..\..\..\..\..\..\..\..\..\..\microchip\harmony\v1_07_01\bin\framework\peripheral\PIC32MX440F256H_peripherals.a(peripheral.o)
 .text.PLIB_SQI_ReceiveLatchGet
                0x00000000        0x8 ..\..\..\..\..\..\..\..\..\..\microchip\harmony\v1_07_01\bin\framework\peripheral\PIC32MX440F256H_peripherals.a(peripheral.o)
 .text.PLIB_SQI_ExistsReceiveLatch
                0x00000000        0x8 ..\..\..\..\..\..\..\..\..\..\microchip\harmony\v1_07_01\bin\framework\peripheral\PIC32MX440F256H_peripherals.a(peripheral.o)
 .text.PLIB_SQI_DataFormatSet
                0x00000000        0x8 ..\..\..\..\..\..\..\..\..\..\microchip\harmony\v1_07_01\bin\framework\peripheral\PIC32MX440F256H_peripherals.a(peripheral.o)
 .text.PLIB_SQI_DataFormatGet
                0x00000000        0x8 ..\..\..\..\..\..\..\..\..\..\microchip\harmony\v1_07_01\bin\framework\peripheral\PIC32MX440F256H_peripherals.a(peripheral.o)
 .text.PLIB_SQI_ExistsDataFormat
                0x00000000        0x8 ..\..\..\..\..\..\..\..\..\..\microchip\harmony\v1_07_01\bin\framework\peripheral\PIC32MX440F256H_peripherals.a(peripheral.o)
 .text.PLIB_SQI_DataModeSet
                0x00000000        0x8 ..\..\..\..\..\..\..\..\..\..\microchip\harmony\v1_07_01\bin\framework\peripheral\PIC32MX440F256H_peripherals.a(peripheral.o)
 .text.PLIB_SQI_ExistsDataModeControl
                0x00000000        0x8 ..\..\..\..\..\..\..\..\..\..\microchip\harmony\v1_07_01\bin\framework\peripheral\PIC32MX440F256H_peripherals.a(peripheral.o)
 .text.PLIB_SQI_TransferModeSet
                0x00000000        0x8 ..\..\..\..\..\..\..\..\..\..\microchip\harmony\v1_07_01\bin\framework\peripheral\PIC32MX440F256H_peripherals.a(peripheral.o)
 .text.PLIB_SQI_TransferModeGet
                0x00000000        0x8 ..\..\..\..\..\..\..\..\..\..\microchip\harmony\v1_07_01\bin\framework\peripheral\PIC32MX440F256H_peripherals.a(peripheral.o)
 .text.PLIB_SQI_ExistsTransferModeControl
                0x00000000        0x8 ..\..\..\..\..\..\..\..\..\..\microchip\harmony\v1_07_01\bin\framework\peripheral\PIC32MX440F256H_peripherals.a(peripheral.o)
 .text.PLIB_SQI_ConfigWordSet
                0x00000000        0x8 ..\..\..\..\..\..\..\..\..\..\microchip\harmony\v1_07_01\bin\framework\peripheral\PIC32MX440F256H_peripherals.a(peripheral.o)
 .text.PLIB_SQI_ConfigWordGet
                0x00000000        0x8 ..\..\..\..\..\..\..\..\..\..\microchip\harmony\v1_07_01\bin\framework\peripheral\PIC32MX440F256H_peripherals.a(peripheral.o)
 .text.PLIB_SQI_ExistsConfigWord
                0x00000000        0x8 ..\..\..\..\..\..\..\..\..\..\microchip\harmony\v1_07_01\bin\framework\peripheral\PIC32MX440F256H_peripherals.a(peripheral.o)
 .text.PLIB_SQI_StatusCheckSet
                0x00000000        0x8 ..\..\..\..\..\..\..\..\..\..\microchip\harmony\v1_07_01\bin\framework\peripheral\PIC32MX440F256H_peripherals.a(peripheral.o)
 .text.PLIB_SQI_ExistsStatusCheck
                0x00000000        0x8 ..\..\..\..\..\..\..\..\..\..\microchip\harmony\v1_07_01\bin\framework\peripheral\PIC32MX440F256H_peripherals.a(peripheral.o)
 .text.PLIB_SQI_DDRModeSet
                0x00000000        0x8 ..\..\..\..\..\..\..\..\..\..\microchip\harmony\v1_07_01\bin\framework\peripheral\PIC32MX440F256H_peripherals.a(peripheral.o)
 .text.PLIB_SQI_DDRModeGet
                0x00000000        0x8 ..\..\..\..\..\..\..\..\..\..\microchip\harmony\v1_07_01\bin\framework\peripheral\PIC32MX440F256H_peripherals.a(peripheral.o)
 .text.PLIB_SQI_ExistsDDRMode
                0x00000000        0x8 ..\..\..\..\..\..\..\..\..\..\microchip\harmony\v1_07_01\bin\framework\peripheral\PIC32MX440F256H_peripherals.a(peripheral.o)
 .text.PLIB_SQI_ChipSelectDeassertEnable
                0x00000000        0x8 ..\..\..\..\..\..\..\..\..\..\microchip\harmony\v1_07_01\bin\framework\peripheral\PIC32MX440F256H_peripherals.a(peripheral.o)
 .text.PLIB_SQI_ChipSelectDeassertDisable
                0x00000000        0x8 ..\..\..\..\..\..\..\..\..\..\microchip\harmony\v1_07_01\bin\framework\peripheral\PIC32MX440F256H_peripherals.a(peripheral.o)
 .text.PLIB_SQI_ExistsCSDeassert
                0x00000000        0x8 ..\..\..\..\..\..\..\..\..\..\microchip\harmony\v1_07_01\bin\framework\peripheral\PIC32MX440F256H_peripherals.a(peripheral.o)
 .text.PLIB_SQI_ChipSelectSet
                0x00000000        0x8 ..\..\..\..\..\..\..\..\..\..\microchip\harmony\v1_07_01\bin\framework\peripheral\PIC32MX440F256H_peripherals.a(peripheral.o)
 .text.PLIB_SQI_ChipSelectGet
                0x00000000        0x8 ..\..\..\..\..\..\..\..\..\..\microchip\harmony\v1_07_01\bin\framework\peripheral\PIC32MX440F256H_peripherals.a(peripheral.o)
 .text.PLIB_SQI_ExistsChipSelect
                0x00000000        0x8 ..\..\..\..\..\..\..\..\..\..\microchip\harmony\v1_07_01\bin\framework\peripheral\PIC32MX440F256H_peripherals.a(peripheral.o)
 .text.PLIB_SQI_LaneModeSet
                0x00000000        0x8 ..\..\..\..\..\..\..\..\..\..\microchip\harmony\v1_07_01\bin\framework\peripheral\PIC32MX440F256H_peripherals.a(peripheral.o)
 .text.PLIB_SQI_LaneModeGet
                0x00000000        0x8 ..\..\..\..\..\..\..\..\..\..\microchip\harmony\v1_07_01\bin\framework\peripheral\PIC32MX440F256H_peripherals.a(peripheral.o)
 .text.PLIB_SQI_ExistsLaneMode
                0x00000000        0x8 ..\..\..\..\..\..\..\..\..\..\microchip\harmony\v1_07_01\bin\framework\peripheral\PIC32MX440F256H_peripherals.a(peripheral.o)
 .text.PLIB_SQI_TransferDirectionSet
                0x00000000        0x8 ..\..\..\..\..\..\..\..\..\..\microchip\harmony\v1_07_01\bin\framework\peripheral\PIC32MX440F256H_peripherals.a(peripheral.o)
 .text.PLIB_SQI_TransferDirectionGet
                0x00000000        0x8 ..\..\..\..\..\..\..\..\..\..\microchip\harmony\v1_07_01\bin\framework\peripheral\PIC32MX440F256H_peripherals.a(peripheral.o)
 .text.PLIB_SQI_ExistsTransferCommand
                0x00000000        0x8 ..\..\..\..\..\..\..\..\..\..\microchip\harmony\v1_07_01\bin\framework\peripheral\PIC32MX440F256H_peripherals.a(peripheral.o)
 .text.PLIB_SQI_ByteCountSet
                0x00000000        0x8 ..\..\..\..\..\..\..\..\..\..\microchip\harmony\v1_07_01\bin\framework\peripheral\PIC32MX440F256H_peripherals.a(peripheral.o)
 .text.PLIB_SQI_ByteCountGet
                0x00000000        0x8 ..\..\..\..\..\..\..\..\..\..\microchip\harmony\v1_07_01\bin\framework\peripheral\PIC32MX440F256H_peripherals.a(peripheral.o)
 .text.PLIB_SQI_ExistsTransferCount
                0x00000000        0x8 ..\..\..\..\..\..\..\..\..\..\microchip\harmony\v1_07_01\bin\framework\peripheral\PIC32MX440F256H_peripherals.a(peripheral.o)
 .text.PLIB_SQI_ControlWordSet
                0x00000000        0x8 ..\..\..\..\..\..\..\..\..\..\microchip\harmony\v1_07_01\bin\framework\peripheral\PIC32MX440F256H_peripherals.a(peripheral.o)
 .text.PLIB_SQI_ControlWordGet
                0x00000000        0x8 ..\..\..\..\..\..\..\..\..\..\microchip\harmony\v1_07_01\bin\framework\peripheral\PIC32MX440F256H_peripherals.a(peripheral.o)
 .text.PLIB_SQI_ExistsControlWord
                0x00000000        0x8 ..\..\..\..\..\..\..\..\..\..\microchip\harmony\v1_07_01\bin\framework\peripheral\PIC32MX440F256H_peripherals.a(peripheral.o)
 .text.PLIB_SQI_ClockDividerSet
                0x00000000        0x8 ..\..\..\..\..\..\..\..\..\..\microchip\harmony\v1_07_01\bin\framework\peripheral\PIC32MX440F256H_peripherals.a(peripheral.o)
 .text.PLIB_SQI_ExistsClockDivider
                0x00000000        0x8 ..\..\..\..\..\..\..\..\..\..\microchip\harmony\v1_07_01\bin\framework\peripheral\PIC32MX440F256H_peripherals.a(peripheral.o)
 .text.PLIB_SQI_ClockIsStable
                0x00000000        0x8 ..\..\..\..\..\..\..\..\..\..\microchip\harmony\v1_07_01\bin\framework\peripheral\PIC32MX440F256H_peripherals.a(peripheral.o)
 .text.PLIB_SQI_ExistsClockReady
                0x00000000        0x8 ..\..\..\..\..\..\..\..\..\..\microchip\harmony\v1_07_01\bin\framework\peripheral\PIC32MX440F256H_peripherals.a(peripheral.o)
 .text.PLIB_SQI_ClockEnable
                0x00000000        0x8 ..\..\..\..\..\..\..\..\..\..\microchip\harmony\v1_07_01\bin\framework\peripheral\PIC32MX440F256H_peripherals.a(peripheral.o)
 .text.PLIB_SQI_ClockDisable
                0x00000000        0x8 ..\..\..\..\..\..\..\..\..\..\microchip\harmony\v1_07_01\bin\framework\peripheral\PIC32MX440F256H_peripherals.a(peripheral.o)
 .text.PLIB_SQI_ExistsClockControl
                0x00000000        0x8 ..\..\..\..\..\..\..\..\..\..\microchip\harmony\v1_07_01\bin\framework\peripheral\PIC32MX440F256H_peripherals.a(peripheral.o)
 .text.PLIB_SQI_RxBufferThresholdSet
                0x00000000        0x8 ..\..\..\..\..\..\..\..\..\..\microchip\harmony\v1_07_01\bin\framework\peripheral\PIC32MX440F256H_peripherals.a(peripheral.o)
 .text.PLIB_SQI_RxBufferThresholdGet
                0x00000000        0x8 ..\..\..\..\..\..\..\..\..\..\microchip\harmony\v1_07_01\bin\framework\peripheral\PIC32MX440F256H_peripherals.a(peripheral.o)
 .text.PLIB_SQI_ExistsRxBufThreshold
                0x00000000        0x8 ..\..\..\..\..\..\..\..\..\..\microchip\harmony\v1_07_01\bin\framework\peripheral\PIC32MX440F256H_peripherals.a(peripheral.o)
 .text.PLIB_SQI_TxBufferThresholdSet
                0x00000000        0x8 ..\..\..\..\..\..\..\..\..\..\microchip\harmony\v1_07_01\bin\framework\peripheral\PIC32MX440F256H_peripherals.a(peripheral.o)
 .text.PLIB_SQI_TxBufferThresholdGet
                0x00000000        0x8 ..\..\..\..\..\..\..\..\..\..\microchip\harmony\v1_07_01\bin\framework\peripheral\PIC32MX440F256H_peripherals.a(peripheral.o)
 .text.PLIB_SQI_ExistsTxBufThreshold
                0x00000000        0x8 ..\..\..\..\..\..\..\..\..\..\microchip\harmony\v1_07_01\bin\framework\peripheral\PIC32MX440F256H_peripherals.a(peripheral.o)
 .text.PLIB_SQI_RxBufferThresholdIntSet
                0x00000000        0x8 ..\..\..\..\..\..\..\..\..\..\microchip\harmony\v1_07_01\bin\framework\peripheral\PIC32MX440F256H_peripherals.a(peripheral.o)
 .text.PLIB_SQI_RxBufferThresholdIntGet
                0x00000000        0x8 ..\..\..\..\..\..\..\..\..\..\microchip\harmony\v1_07_01\bin\framework\peripheral\PIC32MX440F256H_peripherals.a(peripheral.o)
 .text.PLIB_SQI_ExistsRxBufIntThreshold
                0x00000000        0x8 ..\..\..\..\..\..\..\..\..\..\microchip\harmony\v1_07_01\bin\framework\peripheral\PIC32MX440F256H_peripherals.a(peripheral.o)
 .text.PLIB_SQI_TxBufferThresholdIntSet
                0x00000000        0x8 ..\..\..\..\..\..\..\..\..\..\microchip\harmony\v1_07_01\bin\framework\peripheral\PIC32MX440F256H_peripherals.a(peripheral.o)
 .text.PLIB_SQI_TxBufferThresholdIntGet
                0x00000000        0x8 ..\..\..\..\..\..\..\..\..\..\microchip\harmony\v1_07_01\bin\framework\peripheral\PIC32MX440F256H_peripherals.a(peripheral.o)
 .text.PLIB_SQI_ExistsTxBufIntThreshold
                0x00000000        0x8 ..\..\..\..\..\..\..\..\..\..\microchip\harmony\v1_07_01\bin\framework\peripheral\PIC32MX440F256H_peripherals.a(peripheral.o)
 .text.PLIB_SQI_InterruptEnable
                0x00000000        0x8 ..\..\..\..\..\..\..\..\..\..\microchip\harmony\v1_07_01\bin\framework\peripheral\PIC32MX440F256H_peripherals.a(peripheral.o)
 .text.PLIB_SQI_InterruptDisable
                0x00000000        0x8 ..\..\..\..\..\..\..\..\..\..\microchip\harmony\v1_07_01\bin\framework\peripheral\PIC32MX440F256H_peripherals.a(peripheral.o)
 .text.PLIB_SQI_InterruptIsEnabled
                0x00000000        0x8 ..\..\..\..\..\..\..\..\..\..\microchip\harmony\v1_07_01\bin\framework\peripheral\PIC32MX440F256H_peripherals.a(peripheral.o)
 .text.PLIB_SQI_ExistsInterruptControl
                0x00000000        0x8 ..\..\..\..\..\..\..\..\..\..\microchip\harmony\v1_07_01\bin\framework\peripheral\PIC32MX440F256H_peripherals.a(peripheral.o)
 .text.PLIB_SQI_InterruptFlagGet
                0x00000000        0x8 ..\..\..\..\..\..\..\..\..\..\microchip\harmony\v1_07_01\bin\framework\peripheral\PIC32MX440F256H_peripherals.a(peripheral.o)
 .text.PLIB_SQI_ExistsInterruptStatus
                0x00000000        0x8 ..\..\..\..\..\..\..\..\..\..\microchip\harmony\v1_07_01\bin\framework\peripheral\PIC32MX440F256H_peripherals.a(peripheral.o)
 .text.PLIB_SQI_TransmitData
                0x00000000        0x8 ..\..\..\..\..\..\..\..\..\..\microchip\harmony\v1_07_01\bin\framework\peripheral\PIC32MX440F256H_peripherals.a(peripheral.o)
 .text.PLIB_SQI_ExistsTxData
                0x00000000        0x8 ..\..\..\..\..\..\..\..\..\..\microchip\harmony\v1_07_01\bin\framework\peripheral\PIC32MX440F256H_peripherals.a(peripheral.o)
 .text.PLIB_SQI_ReceiveData
                0x00000000        0x8 ..\..\..\..\..\..\..\..\..\..\microchip\harmony\v1_07_01\bin\framework\peripheral\PIC32MX440F256H_peripherals.a(peripheral.o)
 .text.PLIB_SQI_ExistsRxData
                0x00000000        0x8 ..\..\..\..\..\..\..\..\..\..\microchip\harmony\v1_07_01\bin\framework\peripheral\PIC32MX440F256H_peripherals.a(peripheral.o)
 .text.PLIB_SQI_TransmitBufferFreeSpaceGet
                0x00000000        0x8 ..\..\..\..\..\..\..\..\..\..\microchip\harmony\v1_07_01\bin\framework\peripheral\PIC32MX440F256H_peripherals.a(peripheral.o)
 .text.PLIB_SQI_ExistsTxBufferFree
                0x00000000        0x8 ..\..\..\..\..\..\..\..\..\..\microchip\harmony\v1_07_01\bin\framework\peripheral\PIC32MX440F256H_peripherals.a(peripheral.o)
 .text.PLIB_SQI_NumberOfReceiveBufferReads
                0x00000000        0x8 ..\..\..\..\..\..\..\..\..\..\microchip\harmony\v1_07_01\bin\framework\peripheral\PIC32MX440F256H_peripherals.a(peripheral.o)
 .text.PLIB_SQI_ExistsRxBufferCount
                0x00000000        0x8 ..\..\..\..\..\..\..\..\..\..\microchip\harmony\v1_07_01\bin\framework\peripheral\PIC32MX440F256H_peripherals.a(peripheral.o)
 .text.PLIB_SQI_ConBufWordsAvailable
                0x00000000        0x8 ..\..\..\..\..\..\..\..\..\..\microchip\harmony\v1_07_01\bin\framework\peripheral\PIC32MX440F256H_peripherals.a(peripheral.o)
 .text.PLIB_SQI_ExistsConBufAvailable
                0x00000000        0x8 ..\..\..\..\..\..\..\..\..\..\microchip\harmony\v1_07_01\bin\framework\peripheral\PIC32MX440F256H_peripherals.a(peripheral.o)
 .text.PLIB_SQI_CommandStatusGet
                0x00000000        0x8 ..\..\..\..\..\..\..\..\..\..\microchip\harmony\v1_07_01\bin\framework\peripheral\PIC32MX440F256H_peripherals.a(peripheral.o)
 .text.PLIB_SQI_ExistsCommandStatus
                0x00000000        0x8 ..\..\..\..\..\..\..\..\..\..\microchip\harmony\v1_07_01\bin\framework\peripheral\PIC32MX440F256H_peripherals.a(peripheral.o)
 .text.PLIB_SQI_DataLineStatus
                0x00000000        0x8 ..\..\..\..\..\..\..\..\..\..\microchip\harmony\v1_07_01\bin\framework\peripheral\PIC32MX440F256H_peripherals.a(peripheral.o)
 .text.PLIB_SQI_ExistsDataPinStatus
                0x00000000        0x8 ..\..\..\..\..\..\..\..\..\..\microchip\harmony\v1_07_01\bin\framework\peripheral\PIC32MX440F256H_peripherals.a(peripheral.o)
 .text.PLIB_SQI_ReceiveBufferIsUnderrun
                0x00000000        0x8 ..\..\..\..\..\..\..\..\..\..\microchip\harmony\v1_07_01\bin\framework\peripheral\PIC32MX440F256H_peripherals.a(peripheral.o)
 .text.PLIB_SQI_ExistsRxUnderRun
                0x00000000        0x8 ..\..\..\..\..\..\..\..\..\..\microchip\harmony\v1_07_01\bin\framework\peripheral\PIC32MX440F256H_peripherals.a(peripheral.o)
 .text.PLIB_SQI_TransmitBufferHasOverflowed
                0x00000000        0x8 ..\..\..\..\..\..\..\..\..\..\microchip\harmony\v1_07_01\bin\framework\peripheral\PIC32MX440F256H_peripherals.a(peripheral.o)
 .text.PLIB_SQI_ExistsTxOverFlow
                0x00000000        0x8 ..\..\..\..\..\..\..\..\..\..\microchip\harmony\v1_07_01\bin\framework\peripheral\PIC32MX440F256H_peripherals.a(peripheral.o)
 .text.PLIB_SQI_DMAEnable
                0x00000000        0x8 ..\..\..\..\..\..\..\..\..\..\microchip\harmony\v1_07_01\bin\framework\peripheral\PIC32MX440F256H_peripherals.a(peripheral.o)
 .text.PLIB_SQI_DMADisable
                0x00000000        0x8 ..\..\..\..\..\..\..\..\..\..\microchip\harmony\v1_07_01\bin\framework\peripheral\PIC32MX440F256H_peripherals.a(peripheral.o)
 .text.PLIB_SQI_DMAIsEnabled
                0x00000000        0x8 ..\..\..\..\..\..\..\..\..\..\microchip\harmony\v1_07_01\bin\framework\peripheral\PIC32MX440F256H_peripherals.a(peripheral.o)
 .text.PLIB_SQI_ExistsDmaEnable
                0x00000000        0x8 ..\..\..\..\..\..\..\..\..\..\microchip\harmony\v1_07_01\bin\framework\peripheral\PIC32MX440F256H_peripherals.a(peripheral.o)
 .text.PLIB_SQI_DMABDPollEnable
                0x00000000        0x8 ..\..\..\..\..\..\..\..\..\..\microchip\harmony\v1_07_01\bin\framework\peripheral\PIC32MX440F256H_peripherals.a(peripheral.o)
 .text.PLIB_SQI_DMABDPollDisable
                0x00000000        0x8 ..\..\..\..\..\..\..\..\..\..\microchip\harmony\v1_07_01\bin\framework\peripheral\PIC32MX440F256H_peripherals.a(peripheral.o)
 .text.PLIB_SQI_DMABDPollIsEnabled
                0x00000000        0x8 ..\..\..\..\..\..\..\..\..\..\microchip\harmony\v1_07_01\bin\framework\peripheral\PIC32MX440F256H_peripherals.a(peripheral.o)
 .text.PLIB_SQI_ExistsBDPollingEnable
                0x00000000        0x8 ..\..\..\..\..\..\..\..\..\..\microchip\harmony\v1_07_01\bin\framework\peripheral\PIC32MX440F256H_peripherals.a(peripheral.o)
 .text.PLIB_SQI_DMABDFetchStart
                0x00000000        0x8 ..\..\..\..\..\..\..\..\..\..\microchip\harmony\v1_07_01\bin\framework\peripheral\PIC32MX440F256H_peripherals.a(peripheral.o)
 .text.PLIB_SQI_DMABDFetchStop
                0x00000000        0x8 ..\..\..\..\..\..\..\..\..\..\microchip\harmony\v1_07_01\bin\framework\peripheral\PIC32MX440F256H_peripherals.a(peripheral.o)
 .text.PLIB_SQI_ExistsDMABDFetch
                0x00000000        0x8 ..\..\..\..\..\..\..\..\..\..\microchip\harmony\v1_07_01\bin\framework\peripheral\PIC32MX440F256H_peripherals.a(peripheral.o)
 .text.PLIB_SQI_DMABDCurrentAddressGet
                0x00000000        0x8 ..\..\..\..\..\..\..\..\..\..\microchip\harmony\v1_07_01\bin\framework\peripheral\PIC32MX440F256H_peripherals.a(peripheral.o)
 .text.PLIB_SQI_ExistsBDCurrentAddress
                0x00000000        0x8 ..\..\..\..\..\..\..\..\..\..\microchip\harmony\v1_07_01\bin\framework\peripheral\PIC32MX440F256H_peripherals.a(peripheral.o)
 .text.PLIB_SQI_DMABDBaseAddressSet
                0x00000000        0x8 ..\..\..\..\..\..\..\..\..\..\microchip\harmony\v1_07_01\bin\framework\peripheral\PIC32MX440F256H_peripherals.a(peripheral.o)
 .text.PLIB_SQI_DMABDBaseAddressGet
                0x00000000        0x8 ..\..\..\..\..\..\..\..\..\..\microchip\harmony\v1_07_01\bin\framework\peripheral\PIC32MX440F256H_peripherals.a(peripheral.o)
 .text.PLIB_SQI_ExistsBDBaseAddress
                0x00000000        0x8 ..\..\..\..\..\..\..\..\..\..\microchip\harmony\v1_07_01\bin\framework\peripheral\PIC32MX440F256H_peripherals.a(peripheral.o)
 .text.PLIB_SQI_DMABDStateGet
                0x00000000        0x8 ..\..\..\..\..\..\..\..\..\..\microchip\harmony\v1_07_01\bin\framework\peripheral\PIC32MX440F256H_peripherals.a(peripheral.o)
 .text.PLIB_SQI_ExistsBDProcessState
                0x00000000        0x8 ..\..\..\..\..\..\..\..\..\..\microchip\harmony\v1_07_01\bin\framework\peripheral\PIC32MX440F256H_peripherals.a(peripheral.o)
 .text.PLIB_SQI_DMAHasStarted
                0x00000000        0x8 ..\..\..\..\..\..\..\..\..\..\microchip\harmony\v1_07_01\bin\framework\peripheral\PIC32MX440F256H_peripherals.a(peripheral.o)
 .text.PLIB_SQI_ExistsDMAProcessInProgress
                0x00000000        0x8 ..\..\..\..\..\..\..\..\..\..\microchip\harmony\v1_07_01\bin\framework\peripheral\PIC32MX440F256H_peripherals.a(peripheral.o)
 .text.PLIB_SQI_DMABDIsBusy
                0x00000000        0x8 ..\..\..\..\..\..\..\..\..\..\microchip\harmony\v1_07_01\bin\framework\peripheral\PIC32MX440F256H_peripherals.a(peripheral.o)
 .text.PLIB_SQI_ExistsDMAEngineBusy
                0x00000000        0x8 ..\..\..\..\..\..\..\..\..\..\microchip\harmony\v1_07_01\bin\framework\peripheral\PIC32MX440F256H_peripherals.a(peripheral.o)
 .text.PLIB_SQI_DMABDControlWordGet
                0x00000000        0x8 ..\..\..\..\..\..\..\..\..\..\microchip\harmony\v1_07_01\bin\framework\peripheral\PIC32MX440F256H_peripherals.a(peripheral.o)
 .text.PLIB_SQI_ExistsBDControlWord
                0x00000000        0x8 ..\..\..\..\..\..\..\..\..\..\microchip\harmony\v1_07_01\bin\framework\peripheral\PIC32MX440F256H_peripherals.a(peripheral.o)
 .text.PLIB_SQI_DMABDPollCounterSet
                0x00000000        0x8 ..\..\..\..\..\..\..\..\..\..\microchip\harmony\v1_07_01\bin\framework\peripheral\PIC32MX440F256H_peripherals.a(peripheral.o)
 .text.PLIB_SQI_ExistsBDPollCount
                0x00000000        0x8 ..\..\..\..\..\..\..\..\..\..\microchip\harmony\v1_07_01\bin\framework\peripheral\PIC32MX440F256H_peripherals.a(peripheral.o)
 .text.PLIB_SQI_DMABDTransmitStateGet
                0x00000000        0x8 ..\..\..\..\..\..\..\..\..\..\microchip\harmony\v1_07_01\bin\framework\peripheral\PIC32MX440F256H_peripherals.a(peripheral.o)
 .text.PLIB_SQI_ExistsBDTxState
                0x00000000        0x8 ..\..\..\..\..\..\..\..\..\..\microchip\harmony\v1_07_01\bin\framework\peripheral\PIC32MX440F256H_peripherals.a(peripheral.o)
 .text.PLIB_SQI_DMABDTransmitBufferCountGet
                0x00000000        0x8 ..\..\..\..\..\..\..\..\..\..\microchip\harmony\v1_07_01\bin\framework\peripheral\PIC32MX440F256H_peripherals.a(peripheral.o)
 .text.PLIB_SQI_ExistsBDTxBufCount
                0x00000000        0x8 ..\..\..\..\..\..\..\..\..\..\microchip\harmony\v1_07_01\bin\framework\peripheral\PIC32MX440F256H_peripherals.a(peripheral.o)
 .text.PLIB_SQI_DMABDTransmitBufferLengthGet
                0x00000000        0x8 ..\..\..\..\..\..\..\..\..\..\microchip\harmony\v1_07_01\bin\framework\peripheral\PIC32MX440F256H_peripherals.a(peripheral.o)
 .text.PLIB_SQI_ExistsBDTxLength
                0x00000000        0x8 ..\..\..\..\..\..\..\..\..\..\microchip\harmony\v1_07_01\bin\framework\peripheral\PIC32MX440F256H_peripherals.a(peripheral.o)
 .text.PLIB_SQI_DMABDReceiveStateGet
                0x00000000        0x8 ..\..\..\..\..\..\..\..\..\..\microchip\harmony\v1_07_01\bin\framework\peripheral\PIC32MX440F256H_peripherals.a(peripheral.o)
 .text.PLIB_SQI_ExistsBDRxState
                0x00000000        0x8 ..\..\..\..\..\..\..\..\..\..\microchip\harmony\v1_07_01\bin\framework\peripheral\PIC32MX440F256H_peripherals.a(peripheral.o)
 .text.PLIB_SQI_DMABDReceiveBufferCountGet
                0x00000000        0x8 ..\..\..\..\..\..\..\..\..\..\microchip\harmony\v1_07_01\bin\framework\peripheral\PIC32MX440F256H_peripherals.a(peripheral.o)
 .text.PLIB_SQI_ExistsBDRxBufCount
                0x00000000        0x8 ..\..\..\..\..\..\..\..\..\..\microchip\harmony\v1_07_01\bin\framework\peripheral\PIC32MX440F256H_peripherals.a(peripheral.o)
 .text.PLIB_SQI_DMABDReceiveBufferLengthGet
                0x00000000        0x8 ..\..\..\..\..\..\..\..\..\..\microchip\harmony\v1_07_01\bin\framework\peripheral\PIC32MX440F256H_peripherals.a(peripheral.o)
 .text.PLIB_SQI_ExistsBDRxLength
                0x00000000        0x8 ..\..\..\..\..\..\..\..\..\..\microchip\harmony\v1_07_01\bin\framework\peripheral\PIC32MX440F256H_peripherals.a(peripheral.o)
 .text.PLIB_SQI_ControlBufferThresholdSet
                0x00000000        0x8 ..\..\..\..\..\..\..\..\..\..\microchip\harmony\v1_07_01\bin\framework\peripheral\PIC32MX440F256H_peripherals.a(peripheral.o)
 .text.PLIB_SQI_ControlBufferThresholdGet
                0x00000000        0x8 ..\..\..\..\..\..\..\..\..\..\microchip\harmony\v1_07_01\bin\framework\peripheral\PIC32MX440F256H_peripherals.a(peripheral.o)
 .text.PLIB_SQI_ExistsConBufThreshold
                0x00000000        0x8 ..\..\..\..\..\..\..\..\..\..\microchip\harmony\v1_07_01\bin\framework\peripheral\PIC32MX440F256H_peripherals.a(peripheral.o)
 .text.PLIB_SQI_InterruptSignalEnable
                0x00000000        0x8 ..\..\..\..\..\..\..\..\..\..\microchip\harmony\v1_07_01\bin\framework\peripheral\PIC32MX440F256H_peripherals.a(peripheral.o)
 .text.PLIB_SQI_InterruptSignalDisable
                0x00000000        0x8 ..\..\..\..\..\..\..\..\..\..\microchip\harmony\v1_07_01\bin\framework\peripheral\PIC32MX440F256H_peripherals.a(peripheral.o)
 .text.PLIB_SQI_InterruptSignalIsEnabled
                0x00000000        0x8 ..\..\..\..\..\..\..\..\..\..\microchip\harmony\v1_07_01\bin\framework\peripheral\PIC32MX440F256H_peripherals.a(peripheral.o)
 .text.PLIB_SQI_ExistsInterruptSignalControl
                0x00000000        0x8 ..\..\..\..\..\..\..\..\..\..\microchip\harmony\v1_07_01\bin\framework\peripheral\PIC32MX440F256H_peripherals.a(peripheral.o)
 .text.PLIB_SQI_TapDelaySet
                0x00000000        0x8 ..\..\..\..\..\..\..\..\..\..\microchip\harmony\v1_07_01\bin\framework\peripheral\PIC32MX440F256H_peripherals.a(peripheral.o)
 .text.PLIB_SQI_ExistsTapDelay
                0x00000000        0x8 ..\..\..\..\..\..\..\..\..\..\microchip\harmony\v1_07_01\bin\framework\peripheral\PIC32MX440F256H_peripherals.a(peripheral.o)
 .text.PLIB_SQI_XIPControlWord3Set
                0x00000000        0x8 ..\..\..\..\..\..\..\..\..\..\microchip\harmony\v1_07_01\bin\framework\peripheral\PIC32MX440F256H_peripherals.a(peripheral.o)
 .text.PLIB_SQI_XIPControlWord3Get
                0x00000000        0x8 ..\..\..\..\..\..\..\..\..\..\microchip\harmony\v1_07_01\bin\framework\peripheral\PIC32MX440F256H_peripherals.a(peripheral.o)
 .text.PLIB_SQI_ExistsXIPControlWord3
                0x00000000        0x8 ..\..\..\..\..\..\..\..\..\..\microchip\harmony\v1_07_01\bin\framework\peripheral\PIC32MX440F256H_peripherals.a(peripheral.o)
 .text.PLIB_SQI_XIPControlWord4Set
                0x00000000        0x8 ..\..\..\..\..\..\..\..\..\..\microchip\harmony\v1_07_01\bin\framework\peripheral\PIC32MX440F256H_peripherals.a(peripheral.o)
 .text.PLIB_SQI_XIPControlWord4Get
                0x00000000        0x8 ..\..\..\..\..\..\..\..\..\..\microchip\harmony\v1_07_01\bin\framework\peripheral\PIC32MX440F256H_peripherals.a(peripheral.o)
 .text.PLIB_SQI_ExistsXIPControlWord4
                0x00000000        0x8 ..\..\..\..\..\..\..\..\..\..\microchip\harmony\v1_07_01\bin\framework\peripheral\PIC32MX440F256H_peripherals.a(peripheral.o)
 .text.PLIB_TMR_GateEnable
                0x00000000       0xb0 ..\..\..\..\..\..\..\..\..\..\microchip\harmony\v1_07_01\bin\framework\peripheral\PIC32MX440F256H_peripherals.a(peripheral.o)
 .text.PLIB_TMR_GateDisable
                0x00000000       0xb0 ..\..\..\..\..\..\..\..\..\..\microchip\harmony\v1_07_01\bin\framework\peripheral\PIC32MX440F256H_peripherals.a(peripheral.o)
 .text.PLIB_TMR_ExistsGatedTimeAccumulation
                0x00000000        0x8 ..\..\..\..\..\..\..\..\..\..\microchip\harmony\v1_07_01\bin\framework\peripheral\PIC32MX440F256H_peripherals.a(peripheral.o)
 .text.PLIB_TMR_ClockSourceSelect
                0x00000000       0x44 ..\..\..\..\..\..\..\..\..\..\microchip\harmony\v1_07_01\bin\framework\peripheral\PIC32MX440F256H_peripherals.a(peripheral.o)
 .text.PLIB_TMR_ExistsClockSource
                0x00000000        0x8 ..\..\..\..\..\..\..\..\..\..\microchip\harmony\v1_07_01\bin\framework\peripheral\PIC32MX440F256H_peripherals.a(peripheral.o)
 .text.PLIB_TMR_PrescaleSelect
                0x00000000      0x180 ..\..\..\..\..\..\..\..\..\..\microchip\harmony\v1_07_01\bin\framework\peripheral\PIC32MX440F256H_peripherals.a(peripheral.o)
 .text.PLIB_TMR_PrescaleGet
                0x00000000      0x13c ..\..\..\..\..\..\..\..\..\..\microchip\harmony\v1_07_01\bin\framework\peripheral\PIC32MX440F256H_peripherals.a(peripheral.o)
 .text.PLIB_TMR_ExistsPrescale
                0x00000000        0x8 ..\..\..\..\..\..\..\..\..\..\microchip\harmony\v1_07_01\bin\framework\peripheral\PIC32MX440F256H_peripherals.a(peripheral.o)
 .text.PLIB_TMR_ClockSourceExternalSyncEnable
                0x00000000       0x1c ..\..\..\..\..\..\..\..\..\..\microchip\harmony\v1_07_01\bin\framework\peripheral\PIC32MX440F256H_peripherals.a(peripheral.o)
 .text.PLIB_TMR_ClockSourceExternalSyncDisable
                0x00000000       0x1c ..\..\..\..\..\..\..\..\..\..\microchip\harmony\v1_07_01\bin\framework\peripheral\PIC32MX440F256H_peripherals.a(peripheral.o)
 .text.PLIB_TMR_ExistsClockSourceSync
                0x00000000        0x8 ..\..\..\..\..\..\..\..\..\..\microchip\harmony\v1_07_01\bin\framework\peripheral\PIC32MX440F256H_peripherals.a(peripheral.o)
 .text.PLIB_TMR_Mode16BitEnable
                0x00000000       0x48 ..\..\..\..\..\..\..\..\..\..\microchip\harmony\v1_07_01\bin\framework\peripheral\PIC32MX440F256H_peripherals.a(peripheral.o)
 .text.PLIB_TMR_ExistsMode16Bit
                0x00000000        0x8 ..\..\..\..\..\..\..\..\..\..\microchip\harmony\v1_07_01\bin\framework\peripheral\PIC32MX440F256H_peripherals.a(peripheral.o)
 .text.PLIB_TMR_Mode32BitEnable
                0x00000000       0x48 ..\..\..\..\..\..\..\..\..\..\microchip\harmony\v1_07_01\bin\framework\peripheral\PIC32MX440F256H_peripherals.a(peripheral.o)
 .text.PLIB_TMR_ExistsMode32Bit
                0x00000000        0xc ..\..\..\..\..\..\..\..\..\..\microchip\harmony\v1_07_01\bin\framework\peripheral\PIC32MX440F256H_peripherals.a(peripheral.o)
 .text.PLIB_TMR_Start
                0x00000000       0xb0 ..\..\..\..\..\..\..\..\..\..\microchip\harmony\v1_07_01\bin\framework\peripheral\PIC32MX440F256H_peripherals.a(peripheral.o)
 .text.PLIB_TMR_Stop
                0x00000000       0xb0 ..\..\..\..\..\..\..\..\..\..\microchip\harmony\v1_07_01\bin\framework\peripheral\PIC32MX440F256H_peripherals.a(peripheral.o)
 .text.PLIB_TMR_ExistsEnableControl
                0x00000000        0x8 ..\..\..\..\..\..\..\..\..\..\microchip\harmony\v1_07_01\bin\framework\peripheral\PIC32MX440F256H_peripherals.a(peripheral.o)
 .text.PLIB_TMR_StopInIdleEnable
                0x00000000       0xb0 ..\..\..\..\..\..\..\..\..\..\microchip\harmony\v1_07_01\bin\framework\peripheral\PIC32MX440F256H_peripherals.a(peripheral.o)
 .text.PLIB_TMR_StopInIdleDisable
                0x00000000       0xb0 ..\..\..\..\..\..\..\..\..\..\microchip\harmony\v1_07_01\bin\framework\peripheral\PIC32MX440F256H_peripherals.a(peripheral.o)
 .text.PLIB_TMR_ExistsStopInIdleControl
                0x00000000        0x8 ..\..\..\..\..\..\..\..\..\..\microchip\harmony\v1_07_01\bin\framework\peripheral\PIC32MX440F256H_peripherals.a(peripheral.o)
 .text.PLIB_TMR_Counter16BitSet
                0x00000000       0x8c ..\..\..\..\..\..\..\..\..\..\microchip\harmony\v1_07_01\bin\framework\peripheral\PIC32MX440F256H_peripherals.a(peripheral.o)
 .text.PLIB_TMR_Counter16BitGet
                0x00000000       0x90 ..\..\..\..\..\..\..\..\..\..\microchip\harmony\v1_07_01\bin\framework\peripheral\PIC32MX440F256H_peripherals.a(peripheral.o)
 .text.PLIB_TMR_Counter16BitClear
                0x00000000       0x88 ..\..\..\..\..\..\..\..\..\..\microchip\harmony\v1_07_01\bin\framework\peripheral\PIC32MX440F256H_peripherals.a(peripheral.o)
 .text.PLIB_TMR_ExistsCounter16Bit
                0x00000000        0x8 ..\..\..\..\..\..\..\..\..\..\microchip\harmony\v1_07_01\bin\framework\peripheral\PIC32MX440F256H_peripherals.a(peripheral.o)
 .text.PLIB_TMR_Counter32BitSet
                0x00000000       0x58 ..\..\..\..\..\..\..\..\..\..\microchip\harmony\v1_07_01\bin\framework\peripheral\PIC32MX440F256H_peripherals.a(peripheral.o)
 .text.PLIB_TMR_Counter32BitGet
                0x00000000       0x50 ..\..\..\..\..\..\..\..\..\..\microchip\harmony\v1_07_01\bin\framework\peripheral\PIC32MX440F256H_peripherals.a(peripheral.o)
 .text.PLIB_TMR_Counter32BitClear
                0x00000000       0x50 ..\..\..\..\..\..\..\..\..\..\microchip\harmony\v1_07_01\bin\framework\peripheral\PIC32MX440F256H_peripherals.a(peripheral.o)
 .text.PLIB_TMR_ExistsCounter32Bit
                0x00000000        0xc ..\..\..\..\..\..\..\..\..\..\microchip\harmony\v1_07_01\bin\framework\peripheral\PIC32MX440F256H_peripherals.a(peripheral.o)
 .text.PLIB_TMR_Period16BitSet
                0x00000000       0x8c ..\..\..\..\..\..\..\..\..\..\microchip\harmony\v1_07_01\bin\framework\peripheral\PIC32MX440F256H_peripherals.a(peripheral.o)
 .text.PLIB_TMR_Period16BitGet
                0x00000000       0x90 ..\..\..\..\..\..\..\..\..\..\microchip\harmony\v1_07_01\bin\framework\peripheral\PIC32MX440F256H_peripherals.a(peripheral.o)
 .text.PLIB_TMR_ExistsPeriod16Bit
                0x00000000        0x8 ..\..\..\..\..\..\..\..\..\..\microchip\harmony\v1_07_01\bin\framework\peripheral\PIC32MX440F256H_peripherals.a(peripheral.o)
 .text.PLIB_TMR_Period32BitSet
                0x00000000       0x58 ..\..\..\..\..\..\..\..\..\..\microchip\harmony\v1_07_01\bin\framework\peripheral\PIC32MX440F256H_peripherals.a(peripheral.o)
 .text.PLIB_TMR_Period32BitGet
                0x00000000       0x50 ..\..\..\..\..\..\..\..\..\..\microchip\harmony\v1_07_01\bin\framework\peripheral\PIC32MX440F256H_peripherals.a(peripheral.o)
 .text.PLIB_TMR_ExistsPeriod32Bit
                0x00000000        0xc ..\..\..\..\..\..\..\..\..\..\microchip\harmony\v1_07_01\bin\framework\peripheral\PIC32MX440F256H_peripherals.a(peripheral.o)
 .text.PLIB_TMR_CounterAsyncWriteEnable
                0x00000000       0x1c ..\..\..\..\..\..\..\..\..\..\microchip\harmony\v1_07_01\bin\framework\peripheral\PIC32MX440F256H_peripherals.a(peripheral.o)
 .text.PLIB_TMR_CounterAsyncWriteDisable
                0x00000000       0x1c ..\..\..\..\..\..\..\..\..\..\microchip\harmony\v1_07_01\bin\framework\peripheral\PIC32MX440F256H_peripherals.a(peripheral.o)
 .text.PLIB_TMR_ExistsCounterAsyncWriteControl
                0x00000000        0x8 ..\..\..\..\..\..\..\..\..\..\microchip\harmony\v1_07_01\bin\framework\peripheral\PIC32MX440F256H_peripherals.a(peripheral.o)
 .text.PLIB_TMR_CounterAsyncWriteInProgress
                0x00000000       0x20 ..\..\..\..\..\..\..\..\..\..\microchip\harmony\v1_07_01\bin\framework\peripheral\PIC32MX440F256H_peripherals.a(peripheral.o)
 .text.PLIB_TMR_ExistsCounterAsyncWriteInProgress
                0x00000000        0x8 ..\..\..\..\..\..\..\..\..\..\microchip\harmony\v1_07_01\bin\framework\peripheral\PIC32MX440F256H_peripherals.a(peripheral.o)
 .text.PLIB_TMR_IsPeriodMatchBased
                0x00000000       0xb8 ..\..\..\..\..\..\..\..\..\..\microchip\harmony\v1_07_01\bin\framework\peripheral\PIC32MX440F256H_peripherals.a(peripheral.o)
 .text.PLIB_TMR_ExistsTimerOperationMode
                0x00000000        0x8 ..\..\..\..\..\..\..\..\..\..\microchip\harmony\v1_07_01\bin\framework\peripheral\PIC32MX440F256H_peripherals.a(peripheral.o)
 .text.PLIB_USART_ExistsEnable
                0x00000000        0x8 ..\..\..\..\..\..\..\..\..\..\microchip\harmony\v1_07_01\bin\framework\peripheral\PIC32MX440F256H_peripherals.a(peripheral.o)
 .text.PLIB_USART_Disable
                0x00000000       0x44 ..\..\..\..\..\..\..\..\..\..\microchip\harmony\v1_07_01\bin\framework\peripheral\PIC32MX440F256H_peripherals.a(peripheral.o)
 .text.PLIB_USART_Enable
                0x00000000       0x44 ..\..\..\..\..\..\..\..\..\..\microchip\harmony\v1_07_01\bin\framework\peripheral\PIC32MX440F256H_peripherals.a(peripheral.o)
 .text.PLIB_USART_BaudSetAndEnable
                0x00000000       0x9c ..\..\..\..\..\..\..\..\..\..\microchip\harmony\v1_07_01\bin\framework\peripheral\PIC32MX440F256H_peripherals.a(peripheral.o)
 .text.PLIB_USART_ExistsHandshakeMode
                0x00000000        0x8 ..\..\..\..\..\..\..\..\..\..\microchip\harmony\v1_07_01\bin\framework\peripheral\PIC32MX440F256H_peripherals.a(peripheral.o)
 .text.PLIB_USART_HandshakeModeSelect
                0x00000000       0x74 ..\..\..\..\..\..\..\..\..\..\microchip\harmony\v1_07_01\bin\framework\peripheral\PIC32MX440F256H_peripherals.a(peripheral.o)
 .text.PLIB_USART_ExistsIrDA
                0x00000000        0x8 ..\..\..\..\..\..\..\..\..\..\microchip\harmony\v1_07_01\bin\framework\peripheral\PIC32MX440F256H_peripherals.a(peripheral.o)
 .text.PLIB_USART_IrDADisable
                0x00000000       0x44 ..\..\..\..\..\..\..\..\..\..\microchip\harmony\v1_07_01\bin\framework\peripheral\PIC32MX440F256H_peripherals.a(peripheral.o)
 .text.PLIB_USART_IrDAEnable
                0x00000000       0x44 ..\..\..\..\..\..\..\..\..\..\microchip\harmony\v1_07_01\bin\framework\peripheral\PIC32MX440F256H_peripherals.a(peripheral.o)
 .text.PLIB_USART_ExistsLineControlMode
                0x00000000        0x8 ..\..\..\..\..\..\..\..\..\..\microchip\harmony\v1_07_01\bin\framework\peripheral\PIC32MX440F256H_peripherals.a(peripheral.o)
 .text.PLIB_USART_LineControlModeSelect
                0x00000000       0xc8 ..\..\..\..\..\..\..\..\..\..\microchip\harmony\v1_07_01\bin\framework\peripheral\PIC32MX440F256H_peripherals.a(peripheral.o)
 .text.PLIB_USART_ExistsLoopback
                0x00000000        0x8 ..\..\..\..\..\..\..\..\..\..\microchip\harmony\v1_07_01\bin\framework\peripheral\PIC32MX440F256H_peripherals.a(peripheral.o)
 .text.PLIB_USART_LoopbackEnable
                0x00000000       0x44 ..\..\..\..\..\..\..\..\..\..\microchip\harmony\v1_07_01\bin\framework\peripheral\PIC32MX440F256H_peripherals.a(peripheral.o)
 .text.PLIB_USART_LoopbackDisable
                0x00000000       0x44 ..\..\..\..\..\..\..\..\..\..\microchip\harmony\v1_07_01\bin\framework\peripheral\PIC32MX440F256H_peripherals.a(peripheral.o)
 .text.PLIB_USART_ExistsOperationMode
                0x00000000        0x8 ..\..\..\..\..\..\..\..\..\..\microchip\harmony\v1_07_01\bin\framework\peripheral\PIC32MX440F256H_peripherals.a(peripheral.o)
 .text.PLIB_USART_OperationModeSelect
                0x00000000       0x64 ..\..\..\..\..\..\..\..\..\..\microchip\harmony\v1_07_01\bin\framework\peripheral\PIC32MX440F256H_peripherals.a(peripheral.o)
 .text.PLIB_USART_ExistsStopInIdle
                0x00000000        0x8 ..\..\..\..\..\..\..\..\..\..\microchip\harmony\v1_07_01\bin\framework\peripheral\PIC32MX440F256H_peripherals.a(peripheral.o)
 .text.PLIB_USART_StopInIdleEnable
                0x00000000       0x44 ..\..\..\..\..\..\..\..\..\..\microchip\harmony\v1_07_01\bin\framework\peripheral\PIC32MX440F256H_peripherals.a(peripheral.o)
 .text.PLIB_USART_StopInIdleDisable
                0x00000000       0x44 ..\..\..\..\..\..\..\..\..\..\microchip\harmony\v1_07_01\bin\framework\peripheral\PIC32MX440F256H_peripherals.a(peripheral.o)
 .text.PLIB_USART_ExistsRunInOverflow
                0x00000000        0x8 ..\..\..\..\..\..\..\..\..\..\microchip\harmony\v1_07_01\bin\framework\peripheral\PIC32MX440F256H_peripherals.a(peripheral.o)
 .text.PLIB_USART_RunInOverflowEnable
                0x00000000        0x8 ..\..\..\..\..\..\..\..\..\..\microchip\harmony\v1_07_01\bin\framework\peripheral\PIC32MX440F256H_peripherals.a(peripheral.o)
 .text.PLIB_USART_RunInOverflowDisable
                0x00000000        0x8 ..\..\..\..\..\..\..\..\..\..\microchip\harmony\v1_07_01\bin\framework\peripheral\PIC32MX440F256H_peripherals.a(peripheral.o)
 .text.PLIB_USART_RunInOverflowIsEnabled
                0x00000000        0x8 ..\..\..\..\..\..\..\..\..\..\microchip\harmony\v1_07_01\bin\framework\peripheral\PIC32MX440F256H_peripherals.a(peripheral.o)
 .text.PLIB_USART_ExistsBRGClockSourceSelect
                0x00000000        0x8 ..\..\..\..\..\..\..\..\..\..\microchip\harmony\v1_07_01\bin\framework\peripheral\PIC32MX440F256H_peripherals.a(peripheral.o)
 .text.PLIB_USART_BRGClockSourceSelect
                0x00000000        0x8 ..\..\..\..\..\..\..\..\..\..\microchip\harmony\v1_07_01\bin\framework\peripheral\PIC32MX440F256H_peripherals.a(peripheral.o)
 .text.PLIB_USART_BRGClockSourceGet
                0x00000000        0x8 ..\..\..\..\..\..\..\..\..\..\microchip\harmony\v1_07_01\bin\framework\peripheral\PIC32MX440F256H_peripherals.a(peripheral.o)
 .text.PLIB_USART_ExistsModuleBusyStatus
                0x00000000        0x8 ..\..\..\..\..\..\..\..\..\..\microchip\harmony\v1_07_01\bin\framework\peripheral\PIC32MX440F256H_peripherals.a(peripheral.o)
 .text.PLIB_USART_ModuleIsBusy
                0x00000000        0x8 ..\..\..\..\..\..\..\..\..\..\microchip\harmony\v1_07_01\bin\framework\peripheral\PIC32MX440F256H_peripherals.a(peripheral.o)
 .text.PLIB_USART_ExistsRunInSleepMode
                0x00000000        0x8 ..\..\..\..\..\..\..\..\..\..\microchip\harmony\v1_07_01\bin\framework\peripheral\PIC32MX440F256H_peripherals.a(peripheral.o)
 .text.PLIB_USART_RunInSleepModeEnable
                0x00000000        0x8 ..\..\..\..\..\..\..\..\..\..\microchip\harmony\v1_07_01\bin\framework\peripheral\PIC32MX440F256H_peripherals.a(peripheral.o)
 .text.PLIB_USART_RunInSleepModeDisable
                0x00000000        0x8 ..\..\..\..\..\..\..\..\..\..\microchip\harmony\v1_07_01\bin\framework\peripheral\PIC32MX440F256H_peripherals.a(peripheral.o)
 .text.PLIB_USART_RunInSleepModeIsEnabled
                0x00000000        0x8 ..\..\..\..\..\..\..\..\..\..\microchip\harmony\v1_07_01\bin\framework\peripheral\PIC32MX440F256H_peripherals.a(peripheral.o)
 .text.PLIB_USART_ExistsWakeOnStart
                0x00000000        0x8 ..\..\..\..\..\..\..\..\..\..\microchip\harmony\v1_07_01\bin\framework\peripheral\PIC32MX440F256H_peripherals.a(peripheral.o)
 .text.PLIB_USART_WakeOnStartEnable
                0x00000000       0x44 ..\..\..\..\..\..\..\..\..\..\microchip\harmony\v1_07_01\bin\framework\peripheral\PIC32MX440F256H_peripherals.a(peripheral.o)
 .text.PLIB_USART_WakeOnStartDisable
                0x00000000       0x44 ..\..\..\..\..\..\..\..\..\..\microchip\harmony\v1_07_01\bin\framework\peripheral\PIC32MX440F256H_peripherals.a(peripheral.o)
 .text.PLIB_USART_WakeOnStartIsEnabled
                0x00000000       0x34 ..\..\..\..\..\..\..\..\..\..\microchip\harmony\v1_07_01\bin\framework\peripheral\PIC32MX440F256H_peripherals.a(peripheral.o)
 .text.PLIB_USART_InitializeModeGeneral
                0x00000000       0xf8 ..\..\..\..\..\..\..\..\..\..\microchip\harmony\v1_07_01\bin\framework\peripheral\PIC32MX440F256H_peripherals.a(peripheral.o)
 .text.PLIB_USART_ErrorsGet
                0x00000000       0x34 ..\..\..\..\..\..\..\..\..\..\microchip\harmony\v1_07_01\bin\framework\peripheral\PIC32MX440F256H_peripherals.a(peripheral.o)
 .text.PLIB_USART_ExistsBaudRate
                0x00000000        0x8 ..\..\..\..\..\..\..\..\..\..\microchip\harmony\v1_07_01\bin\framework\peripheral\PIC32MX440F256H_peripherals.a(peripheral.o)
 .text.PLIB_USART_BaudRateSet
                0x00000000       0x6c ..\..\..\..\..\..\..\..\..\..\microchip\harmony\v1_07_01\bin\framework\peripheral\PIC32MX440F256H_peripherals.a(peripheral.o)
 .text.PLIB_USART_BaudRateGet
                0x00000000       0x5c ..\..\..\..\..\..\..\..\..\..\microchip\harmony\v1_07_01\bin\framework\peripheral\PIC32MX440F256H_peripherals.a(peripheral.o)
 .text.PLIB_USART_ExistsBaudRateAutoDetect
                0x00000000        0x8 ..\..\..\..\..\..\..\..\..\..\microchip\harmony\v1_07_01\bin\framework\peripheral\PIC32MX440F256H_peripherals.a(peripheral.o)
 .text.PLIB_USART_BaudRateAutoDetectEnable
                0x00000000       0x44 ..\..\..\..\..\..\..\..\..\..\microchip\harmony\v1_07_01\bin\framework\peripheral\PIC32MX440F256H_peripherals.a(peripheral.o)
 .text.PLIB_USART_BaudRateAutoDetectIsComplete
                0x00000000       0x34 ..\..\..\..\..\..\..\..\..\..\microchip\harmony\v1_07_01\bin\framework\peripheral\PIC32MX440F256H_peripherals.a(peripheral.o)
 .text.PLIB_USART_ExistsBaudRateHigh
                0x00000000        0x8 ..\..\..\..\..\..\..\..\..\..\microchip\harmony\v1_07_01\bin\framework\peripheral\PIC32MX440F256H_peripherals.a(peripheral.o)
 .text.PLIB_USART_BaudRateHighSet
                0x00000000       0x64 ..\..\..\..\..\..\..\..\..\..\microchip\harmony\v1_07_01\bin\framework\peripheral\PIC32MX440F256H_peripherals.a(peripheral.o)
 .text.PLIB_USART_BaudRateHighDisable
                0x00000000       0x44 ..\..\..\..\..\..\..\..\..\..\microchip\harmony\v1_07_01\bin\framework\peripheral\PIC32MX440F256H_peripherals.a(peripheral.o)
 .text.PLIB_USART_BaudRateHighEnable
                0x00000000       0x44 ..\..\..\..\..\..\..\..\..\..\microchip\harmony\v1_07_01\bin\framework\peripheral\PIC32MX440F256H_peripherals.a(peripheral.o)
 .text.PLIB_USART_ExistsReceiver
                0x00000000        0x8 ..\..\..\..\..\..\..\..\..\..\microchip\harmony\v1_07_01\bin\framework\peripheral\PIC32MX440F256H_peripherals.a(peripheral.o)
 .text.PLIB_USART_ReceiverByteReceive
                0x00000000       0x34 ..\..\..\..\..\..\..\..\..\..\microchip\harmony\v1_07_01\bin\framework\peripheral\PIC32MX440F256H_peripherals.a(peripheral.o)
 .text.PLIB_USART_ReceiverAddressGet
                0x00000000       0x2c ..\..\..\..\..\..\..\..\..\..\microchip\harmony\v1_07_01\bin\framework\peripheral\PIC32MX440F256H_peripherals.a(peripheral.o)
 .text.PLIB_USART_ExistsReceiver9Bits
                0x00000000        0x8 ..\..\..\..\..\..\..\..\..\..\microchip\harmony\v1_07_01\bin\framework\peripheral\PIC32MX440F256H_peripherals.a(peripheral.o)
 .text.PLIB_USART_Receiver9BitsReceive
                0x00000000       0x34 ..\..\..\..\..\..\..\..\..\..\microchip\harmony\v1_07_01\bin\framework\peripheral\PIC32MX440F256H_peripherals.a(peripheral.o)
 .text.PLIB_USART_ExistsReceiverAddressAutoDetect
                0x00000000        0x8 ..\..\..\..\..\..\..\..\..\..\microchip\harmony\v1_07_01\bin\framework\peripheral\PIC32MX440F256H_peripherals.a(peripheral.o)
 .text.PLIB_USART_ReceiverAddressAutoDetectEnable
                0x00000000       0x90 ..\..\..\..\..\..\..\..\..\..\microchip\harmony\v1_07_01\bin\framework\peripheral\PIC32MX440F256H_peripherals.a(peripheral.o)
 .text.PLIB_USART_ReceiverAddressAutoDetectDisable
                0x00000000       0x44 ..\..\..\..\..\..\..\..\..\..\microchip\harmony\v1_07_01\bin\framework\peripheral\PIC32MX440F256H_peripherals.a(peripheral.o)
 .text.PLIB_USART_ExistsReceiverAddressDetect
                0x00000000        0x8 ..\..\..\..\..\..\..\..\..\..\microchip\harmony\v1_07_01\bin\framework\peripheral\PIC32MX440F256H_peripherals.a(peripheral.o)
 .text.PLIB_USART_ReceiverAddressDetectEnable
                0x00000000       0x44 ..\..\..\..\..\..\..\..\..\..\microchip\harmony\v1_07_01\bin\framework\peripheral\PIC32MX440F256H_peripherals.a(peripheral.o)
 .text.PLIB_USART_ReceiverAddressDetectDisable
                0x00000000       0x44 ..\..\..\..\..\..\..\..\..\..\microchip\harmony\v1_07_01\bin\framework\peripheral\PIC32MX440F256H_peripherals.a(peripheral.o)
 .text.PLIB_USART_ReceiverAddressIsReceived
                0x00000000       0x34 ..\..\..\..\..\..\..\..\..\..\microchip\harmony\v1_07_01\bin\framework\peripheral\PIC32MX440F256H_peripherals.a(peripheral.o)
 .text.PLIB_USART_ExistsReceiverAddress
                0x00000000        0x8 ..\..\..\..\..\..\..\..\..\..\microchip\harmony\v1_07_01\bin\framework\peripheral\PIC32MX440F256H_peripherals.a(peripheral.o)
 .text.PLIB_USART_AddressSet
                0x00000000       0x68 ..\..\..\..\..\..\..\..\..\..\microchip\harmony\v1_07_01\bin\framework\peripheral\PIC32MX440F256H_peripherals.a(peripheral.o)
 .text.PLIB_USART_AddressGet
                0x00000000       0x34 ..\..\..\..\..\..\..\..\..\..\microchip\harmony\v1_07_01\bin\framework\peripheral\PIC32MX440F256H_peripherals.a(peripheral.o)
 .text.PLIB_USART_ExistsReceiverAddressMask
                0x00000000        0x8 ..\..\..\..\..\..\..\..\..\..\microchip\harmony\v1_07_01\bin\framework\peripheral\PIC32MX440F256H_peripherals.a(peripheral.o)
 .text.PLIB_USART_AddressMaskSet
                0x00000000        0x8 ..\..\..\..\..\..\..\..\..\..\microchip\harmony\v1_07_01\bin\framework\peripheral\PIC32MX440F256H_peripherals.a(peripheral.o)
 .text.PLIB_USART_AddressMaskGet
                0x00000000        0x8 ..\..\..\..\..\..\..\..\..\..\microchip\harmony\v1_07_01\bin\framework\peripheral\PIC32MX440F256H_peripherals.a(peripheral.o)
 .text.PLIB_USART_ExistsReceiverDataAvailableStatus
                0x00000000        0x8 ..\..\..\..\..\..\..\..\..\..\microchip\harmony\v1_07_01\bin\framework\peripheral\PIC32MX440F256H_peripherals.a(peripheral.o)
 .text.PLIB_USART_ReceiverDataIsAvailable
                0x00000000       0x34 ..\..\..\..\..\..\..\..\..\..\microchip\harmony\v1_07_01\bin\framework\peripheral\PIC32MX440F256H_peripherals.a(peripheral.o)
 .text.PLIB_USART_ExistsReceiverEnable
                0x00000000        0x8 ..\..\..\..\..\..\..\..\..\..\microchip\harmony\v1_07_01\bin\framework\peripheral\PIC32MX440F256H_peripherals.a(peripheral.o)
 .text.PLIB_USART_ReceiverEnable
                0x00000000       0x44 ..\..\..\..\..\..\..\..\..\..\microchip\harmony\v1_07_01\bin\framework\peripheral\PIC32MX440F256H_peripherals.a(peripheral.o)
 .text.PLIB_USART_ReceiverDisable
                0x00000000       0x44 ..\..\..\..\..\..\..\..\..\..\microchip\harmony\v1_07_01\bin\framework\peripheral\PIC32MX440F256H_peripherals.a(peripheral.o)
 .text.PLIB_USART_ExistsReceiverIdleStatus
                0x00000000        0x8 ..\..\..\..\..\..\..\..\..\..\microchip\harmony\v1_07_01\bin\framework\peripheral\PIC32MX440F256H_peripherals.a(peripheral.o)
 .text.PLIB_USART_ReceiverIsIdle
                0x00000000       0x34 ..\..\..\..\..\..\..\..\..\..\microchip\harmony\v1_07_01\bin\framework\peripheral\PIC32MX440F256H_peripherals.a(peripheral.o)
 .text.PLIB_USART_ExistsReceiverFramingErrorStatus
                0x00000000        0x8 ..\..\..\..\..\..\..\..\..\..\microchip\harmony\v1_07_01\bin\framework\peripheral\PIC32MX440F256H_peripherals.a(peripheral.o)
 .text.PLIB_USART_ReceiverFramingErrorHasOccurred
                0x00000000       0x34 ..\..\..\..\..\..\..\..\..\..\microchip\harmony\v1_07_01\bin\framework\peripheral\PIC32MX440F256H_peripherals.a(peripheral.o)
 .text.PLIB_USART_ExistsReceiverInterruptMode
                0x00000000        0x8 ..\..\..\..\..\..\..\..\..\..\microchip\harmony\v1_07_01\bin\framework\peripheral\PIC32MX440F256H_peripherals.a(peripheral.o)
 .text.PLIB_USART_ReceiverInterruptModeSelect
                0x00000000       0x64 ..\..\..\..\..\..\..\..\..\..\microchip\harmony\v1_07_01\bin\framework\peripheral\PIC32MX440F256H_peripherals.a(peripheral.o)
 .text.PLIB_USART_InitializeOperation
                0x00000000       0xcc ..\..\..\..\..\..\..\..\..\..\microchip\harmony\v1_07_01\bin\framework\peripheral\PIC32MX440F256H_peripherals.a(peripheral.o)
 .text.PLIB_USART_ExistsReceiverIdleStateLowEnable
                0x00000000        0x8 ..\..\..\..\..\..\..\..\..\..\microchip\harmony\v1_07_01\bin\framework\peripheral\PIC32MX440F256H_peripherals.a(peripheral.o)
 .text.PLIB_USART_ReceiverIdleStateLowEnable
                0x00000000       0x44 ..\..\..\..\..\..\..\..\..\..\microchip\harmony\v1_07_01\bin\framework\peripheral\PIC32MX440F256H_peripherals.a(peripheral.o)
 .text.PLIB_USART_ReceiverIdleStateLowDisable
                0x00000000       0x44 ..\..\..\..\..\..\..\..\..\..\microchip\harmony\v1_07_01\bin\framework\peripheral\PIC32MX440F256H_peripherals.a(peripheral.o)
 .text.PLIB_USART_ExistsReceiverParityErrorStatus
                0x00000000        0x8 ..\..\..\..\..\..\..\..\..\..\microchip\harmony\v1_07_01\bin\framework\peripheral\PIC32MX440F256H_peripherals.a(peripheral.o)
 .text.PLIB_USART_ReceiverParityErrorHasOccurred
                0x00000000       0x34 ..\..\..\..\..\..\..\..\..\..\microchip\harmony\v1_07_01\bin\framework\peripheral\PIC32MX440F256H_peripherals.a(peripheral.o)
 .text.PLIB_USART_ExistsReceiverOverrunStatus
                0x00000000        0x8 ..\..\..\..\..\..\..\..\..\..\microchip\harmony\v1_07_01\bin\framework\peripheral\PIC32MX440F256H_peripherals.a(peripheral.o)
 .text.PLIB_USART_ReceiverOverrunErrorClear
                0x00000000       0x44 ..\..\..\..\..\..\..\..\..\..\microchip\harmony\v1_07_01\bin\framework\peripheral\PIC32MX440F256H_peripherals.a(peripheral.o)
 .text.PLIB_USART_ReceiverOverrunHasOccurred
                0x00000000       0x34 ..\..\..\..\..\..\..\..\..\..\microchip\harmony\v1_07_01\bin\framework\peripheral\PIC32MX440F256H_peripherals.a(peripheral.o)
 .text.PLIB_USART_ExistsTransmitter
                0x00000000        0x8 ..\..\..\..\..\..\..\..\..\..\microchip\harmony\v1_07_01\bin\framework\peripheral\PIC32MX440F256H_peripherals.a(peripheral.o)
 .text.PLIB_USART_TransmitterByteSend
                0x00000000       0x40 ..\..\..\..\..\..\..\..\..\..\microchip\harmony\v1_07_01\bin\framework\peripheral\PIC32MX440F256H_peripherals.a(peripheral.o)
 .text.PLIB_USART_TransmitterAddressGet
                0x00000000       0x2c ..\..\..\..\..\..\..\..\..\..\microchip\harmony\v1_07_01\bin\framework\peripheral\PIC32MX440F256H_peripherals.a(peripheral.o)
 .text.PLIB_USART_ExistsTransmitter9BitsSend
                0x00000000        0x8 ..\..\..\..\..\..\..\..\..\..\microchip\harmony\v1_07_01\bin\framework\peripheral\PIC32MX440F256H_peripherals.a(peripheral.o)
 .text.PLIB_USART_Transmitter9BitsSend
                0x00000000       0x98 ..\..\..\..\..\..\..\..\..\..\microchip\harmony\v1_07_01\bin\framework\peripheral\PIC32MX440F256H_peripherals.a(peripheral.o)
 .text.PLIB_USART_ExistsTransmitterBreak
                0x00000000        0x8 ..\..\..\..\..\..\..\..\..\..\microchip\harmony\v1_07_01\bin\framework\peripheral\PIC32MX440F256H_peripherals.a(peripheral.o)
 .text.PLIB_USART_TransmitterBreakSend
                0x00000000       0x44 ..\..\..\..\..\..\..\..\..\..\microchip\harmony\v1_07_01\bin\framework\peripheral\PIC32MX440F256H_peripherals.a(peripheral.o)
 .text.PLIB_USART_TransmitterBreakSendIsComplete
                0x00000000       0x34 ..\..\..\..\..\..\..\..\..\..\microchip\harmony\v1_07_01\bin\framework\peripheral\PIC32MX440F256H_peripherals.a(peripheral.o)
 .text.PLIB_USART_ExistsTransmitterBufferFullStatus
                0x00000000        0x8 ..\..\..\..\..\..\..\..\..\..\microchip\harmony\v1_07_01\bin\framework\peripheral\PIC32MX440F256H_peripherals.a(peripheral.o)
 .text.PLIB_USART_TransmitterBufferIsFull
                0x00000000       0x34 ..\..\..\..\..\..\..\..\..\..\microchip\harmony\v1_07_01\bin\framework\peripheral\PIC32MX440F256H_peripherals.a(peripheral.o)
 .text.PLIB_USART_TransmitterIsEmpty
                0x00000000       0x34 ..\..\..\..\..\..\..\..\..\..\microchip\harmony\v1_07_01\bin\framework\peripheral\PIC32MX440F256H_peripherals.a(peripheral.o)
 .text.PLIB_USART_ExistsTransmitterEmptyStatus
                0x00000000        0x8 ..\..\..\..\..\..\..\..\..\..\microchip\harmony\v1_07_01\bin\framework\peripheral\PIC32MX440F256H_peripherals.a(peripheral.o)
 .text.PLIB_USART_ExistsTransmitterEnable
                0x00000000        0x8 ..\..\..\..\..\..\..\..\..\..\microchip\harmony\v1_07_01\bin\framework\peripheral\PIC32MX440F256H_peripherals.a(peripheral.o)
 .text.PLIB_USART_TransmitterEnable
                0x00000000       0x44 ..\..\..\..\..\..\..\..\..\..\microchip\harmony\v1_07_01\bin\framework\peripheral\PIC32MX440F256H_peripherals.a(peripheral.o)
 .text.PLIB_USART_TransmitterDisable
                0x00000000       0x44 ..\..\..\..\..\..\..\..\..\..\microchip\harmony\v1_07_01\bin\framework\peripheral\PIC32MX440F256H_peripherals.a(peripheral.o)
 .text.PLIB_USART_TransmitterInterruptModeSelect
                0x00000000       0x6c ..\..\..\..\..\..\..\..\..\..\microchip\harmony\v1_07_01\bin\framework\peripheral\PIC32MX440F256H_peripherals.a(peripheral.o)
 .text.PLIB_USART_ExistsTransmitterInterruptMode
                0x00000000        0x8 ..\..\..\..\..\..\..\..\..\..\microchip\harmony\v1_07_01\bin\framework\peripheral\PIC32MX440F256H_peripherals.a(peripheral.o)
 .text.PLIB_USART_ExistsTransmitterIdleIsLow
                0x00000000        0x8 ..\..\..\..\..\..\..\..\..\..\microchip\harmony\v1_07_01\bin\framework\peripheral\PIC32MX440F256H_peripherals.a(peripheral.o)
 .text.PLIB_USART_TransmitterIdleIsLowDisable
                0x00000000       0x8c ..\..\..\..\..\..\..\..\..\..\microchip\harmony\v1_07_01\bin\framework\peripheral\PIC32MX440F256H_peripherals.a(peripheral.o)
 .text.PLIB_USART_TransmitterIdleIsLowEnable
                0x00000000       0x8c ..\..\..\..\..\..\..\..\..\..\microchip\harmony\v1_07_01\bin\framework\peripheral\PIC32MX440F256H_peripherals.a(peripheral.o)
 .text.PLIB_USB_OTG_InterruptFlagSet
                0x00000000       0x18 ..\..\..\..\..\..\..\..\..\..\microchip\harmony\v1_07_01\bin\framework\peripheral\PIC32MX440F256H_peripherals.a(peripheral.o)
 .text.PLIB_USB_ExistsOTG_InterruptStatus
                0x00000000        0x8 ..\..\..\..\..\..\..\..\..\..\microchip\harmony\v1_07_01\bin\framework\peripheral\PIC32MX440F256H_peripherals.a(peripheral.o)
 .text.PLIB_USB_ExistsOTG_Interrupt
                0x00000000        0x8 ..\..\..\..\..\..\..\..\..\..\microchip\harmony\v1_07_01\bin\framework\peripheral\PIC32MX440F256H_peripherals.a(peripheral.o)
 .text.PLIB_USB_OTG_IDPinStateIsTypeA
                0x00000000       0x20 ..\..\..\..\..\..\..\..\..\..\microchip\harmony\v1_07_01\bin\framework\peripheral\PIC32MX440F256H_peripherals.a(peripheral.o)
 .text.PLIB_USB_ExistsOTG_IDPinState
                0x00000000        0x8 ..\..\..\..\..\..\..\..\..\..\microchip\harmony\v1_07_01\bin\framework\peripheral\PIC32MX440F256H_peripherals.a(peripheral.o)
 .text.PLIB_USB_OTG_LineStateIsStable
                0x00000000       0x20 ..\..\..\..\..\..\..\..\..\..\microchip\harmony\v1_07_01\bin\framework\peripheral\PIC32MX440F256H_peripherals.a(peripheral.o)
 .text.PLIB_USB_ExistsOTG_LineState
                0x00000000        0x8 ..\..\..\..\..\..\..\..\..\..\microchip\harmony\v1_07_01\bin\framework\peripheral\PIC32MX440F256H_peripherals.a(peripheral.o)
 .text.PLIB_USB_ExistsOTG_SessionValid
                0x00000000        0x8 ..\..\..\..\..\..\..\..\..\..\microchip\harmony\v1_07_01\bin\framework\peripheral\PIC32MX440F256H_peripherals.a(peripheral.o)
 .text.PLIB_USB_OTG_BSessionHasEnded
                0x00000000       0x20 ..\..\..\..\..\..\..\..\..\..\microchip\harmony\v1_07_01\bin\framework\peripheral\PIC32MX440F256H_peripherals.a(peripheral.o)
 .text.PLIB_USB_ExistsOTG_BSessionEnd
                0x00000000        0x8 ..\..\..\..\..\..\..\..\..\..\microchip\harmony\v1_07_01\bin\framework\peripheral\PIC32MX440F256H_peripherals.a(peripheral.o)
 .text.PLIB_USB_OTG_VBusValid
                0x00000000       0x20 ..\..\..\..\..\..\..\..\..\..\microchip\harmony\v1_07_01\bin\framework\peripheral\PIC32MX440F256H_peripherals.a(peripheral.o)
 .text.PLIB_USB_ExistsOTG_ASessionValid
                0x00000000        0x8 ..\..\..\..\..\..\..\..\..\..\microchip\harmony\v1_07_01\bin\framework\peripheral\PIC32MX440F256H_peripherals.a(peripheral.o)
 .text.PLIB_USB_OTG_PullUpPullDownSetup
                0x00000000      0x100 ..\..\..\..\..\..\..\..\..\..\microchip\harmony\v1_07_01\bin\framework\peripheral\PIC32MX440F256H_peripherals.a(peripheral.o)
 .text.PLIB_USB_ExistsOTG_PullUpPullDown
                0x00000000        0x8 ..\..\..\..\..\..\..\..\..\..\microchip\harmony\v1_07_01\bin\framework\peripheral\PIC32MX440F256H_peripherals.a(peripheral.o)
 .text.PLIB_USB_OTG_VBusPowerOff
                0x00000000       0x20 ..\..\..\..\..\..\..\..\..\..\microchip\harmony\v1_07_01\bin\framework\peripheral\PIC32MX440F256H_peripherals.a(peripheral.o)
 .text.PLIB_USB_OTG_VBusPowerOn
                0x00000000       0x1c ..\..\..\..\..\..\..\..\..\..\microchip\harmony\v1_07_01\bin\framework\peripheral\PIC32MX440F256H_peripherals.a(peripheral.o)
 .text.PLIB_USB_ExistsOTG_VbusPowerOnOff
                0x00000000        0x8 ..\..\..\..\..\..\..\..\..\..\microchip\harmony\v1_07_01\bin\framework\peripheral\PIC32MX440F256H_peripherals.a(peripheral.o)
 .text.PLIB_USB_OTG_VBusChargeEnable
                0x00000000       0x1c ..\..\..\..\..\..\..\..\..\..\microchip\harmony\v1_07_01\bin\framework\peripheral\PIC32MX440F256H_peripherals.a(peripheral.o)
 .text.PLIB_USB_OTG_VBusChargeDisable
                0x00000000       0x1c ..\..\..\..\..\..\..\..\..\..\microchip\harmony\v1_07_01\bin\framework\peripheral\PIC32MX440F256H_peripherals.a(peripheral.o)
 .text.PLIB_USB_ExistsOTG_VbusCharge
                0x00000000        0x8 ..\..\..\..\..\..\..\..\..\..\microchip\harmony\v1_07_01\bin\framework\peripheral\PIC32MX440F256H_peripherals.a(peripheral.o)
 .text.PLIB_USB_OTG_VBusDischargeEnable
                0x00000000       0x1c ..\..\..\..\..\..\..\..\..\..\microchip\harmony\v1_07_01\bin\framework\peripheral\PIC32MX440F256H_peripherals.a(peripheral.o)
 .text.PLIB_USB_OTG_VBusDischargeDisable
                0x00000000       0x1c ..\..\..\..\..\..\..\..\..\..\microchip\harmony\v1_07_01\bin\framework\peripheral\PIC32MX440F256H_peripherals.a(peripheral.o)
 .text.PLIB_USB_ExistsOTG_VbusDischarge
                0x00000000        0x8 ..\..\..\..\..\..\..\..\..\..\microchip\harmony\v1_07_01\bin\framework\peripheral\PIC32MX440F256H_peripherals.a(peripheral.o)
 .text.PLIB_USB_ActivityPending
                0x00000000       0x20 ..\..\..\..\..\..\..\..\..\..\microchip\harmony\v1_07_01\bin\framework\peripheral\PIC32MX440F256H_peripherals.a(peripheral.o)
 .text.PLIB_USB_ExistsActivityPending
                0x00000000        0x8 ..\..\..\..\..\..\..\..\..\..\microchip\harmony\v1_07_01\bin\framework\peripheral\PIC32MX440F256H_peripherals.a(peripheral.o)
 .text.PLIB_USB_SleepGuardEnable
                0x00000000       0x1c ..\..\..\..\..\..\..\..\..\..\microchip\harmony\v1_07_01\bin\framework\peripheral\PIC32MX440F256H_peripherals.a(peripheral.o)
 .text.PLIB_USB_SleepGuardDisable
                0x00000000       0x1c ..\..\..\..\..\..\..\..\..\..\microchip\harmony\v1_07_01\bin\framework\peripheral\PIC32MX440F256H_peripherals.a(peripheral.o)
 .text.PLIB_USB_ExistsSleepEntryGuard
                0x00000000        0x8 ..\..\..\..\..\..\..\..\..\..\microchip\harmony\v1_07_01\bin\framework\peripheral\PIC32MX440F256H_peripherals.a(peripheral.o)
 .text.PLIB_USB_ModuleIsBusy
                0x00000000        0x8 ..\..\..\..\..\..\..\..\..\..\microchip\harmony\v1_07_01\bin\framework\peripheral\PIC32MX440F256H_peripherals.a(peripheral.o)
 .text.PLIB_USB_ExistsModuleBusy
                0x00000000        0x8 ..\..\..\..\..\..\..\..\..\..\microchip\harmony\v1_07_01\bin\framework\peripheral\PIC32MX440F256H_peripherals.a(peripheral.o)
 .text.PLIB_USB_SuspendEnable
                0x00000000       0x1c ..\..\..\..\..\..\..\..\..\..\microchip\harmony\v1_07_01\bin\framework\peripheral\PIC32MX440F256H_peripherals.a(peripheral.o)
 .text.PLIB_USB_SuspendDisable
                0x00000000       0x1c ..\..\..\..\..\..\..\..\..\..\microchip\harmony\v1_07_01\bin\framework\peripheral\PIC32MX440F256H_peripherals.a(peripheral.o)
 .text.PLIB_USB_ExistsSuspend
                0x00000000        0x8 ..\..\..\..\..\..\..\..\..\..\microchip\harmony\v1_07_01\bin\framework\peripheral\PIC32MX440F256H_peripherals.a(peripheral.o)
 .text.PLIB_USB_Disable
                0x00000000       0x1c ..\..\..\..\..\..\..\..\..\..\microchip\harmony\v1_07_01\bin\framework\peripheral\PIC32MX440F256H_peripherals.a(peripheral.o)
 .text.PLIB_USB_ExistsModulePower
                0x00000000        0x8 ..\..\..\..\..\..\..\..\..\..\microchip\harmony\v1_07_01\bin\framework\peripheral\PIC32MX440F256H_peripherals.a(peripheral.o)
 .text.PLIB_USB_InterruptFlagSet
                0x00000000       0x18 ..\..\..\..\..\..\..\..\..\..\microchip\harmony\v1_07_01\bin\framework\peripheral\PIC32MX440F256H_peripherals.a(peripheral.o)
 .text.PLIB_USB_InterruptFlagAllGet
                0x00000000       0x20 ..\..\..\..\..\..\..\..\..\..\microchip\harmony\v1_07_01\bin\framework\peripheral\PIC32MX440F256H_peripherals.a(peripheral.o)
 .text.PLIB_USB_ExistsGEN_InterruptStatus
                0x00000000        0x8 ..\..\..\..\..\..\..\..\..\..\microchip\harmony\v1_07_01\bin\framework\peripheral\PIC32MX440F256H_peripherals.a(peripheral.o)
 .text.PLIB_USB_ExistsGEN_Interrupt
                0x00000000        0x8 ..\..\..\..\..\..\..\..\..\..\microchip\harmony\v1_07_01\bin\framework\peripheral\PIC32MX440F256H_peripherals.a(peripheral.o)
 .text.PLIB_USB_InterruptEnableGet
                0x00000000       0x20 ..\..\..\..\..\..\..\..\..\..\microchip\harmony\v1_07_01\bin\framework\peripheral\PIC32MX440F256H_peripherals.a(peripheral.o)
 .text.PLIB_USB_ExistsALL_Interrupt
                0x00000000        0x8 ..\..\..\..\..\..\..\..\..\..\microchip\harmony\v1_07_01\bin\framework\peripheral\PIC32MX440F256H_peripherals.a(peripheral.o)
 .text.PLIB_USB_ErrorInterruptFlagSet
                0x00000000       0x18 ..\..\..\..\..\..\..\..\..\..\microchip\harmony\v1_07_01\bin\framework\peripheral\PIC32MX440F256H_peripherals.a(peripheral.o)
 .text.PLIB_USB_ErrorInterruptFlagGet
                0x00000000       0x24 ..\..\..\..\..\..\..\..\..\..\microchip\harmony\v1_07_01\bin\framework\peripheral\PIC32MX440F256H_peripherals.a(peripheral.o)
 .text.PLIB_USB_ExistsERR_InterruptStatus
                0x00000000        0x8 ..\..\..\..\..\..\..\..\..\..\microchip\harmony\v1_07_01\bin\framework\peripheral\PIC32MX440F256H_peripherals.a(peripheral.o)
 .text.PLIB_USB_ErrorInterruptEnable
                0x00000000       0x18 ..\..\..\..\..\..\..\..\..\..\microchip\harmony\v1_07_01\bin\framework\peripheral\PIC32MX440F256H_peripherals.a(peripheral.o)
 .text.PLIB_USB_ErrorInterruptDisable
                0x00000000       0x18 ..\..\..\..\..\..\..\..\..\..\microchip\harmony\v1_07_01\bin\framework\peripheral\PIC32MX440F256H_peripherals.a(peripheral.o)
 .text.PLIB_USB_ErrorInterruptIsEnabled
                0x00000000       0x24 ..\..\..\..\..\..\..\..\..\..\microchip\harmony\v1_07_01\bin\framework\peripheral\PIC32MX440F256H_peripherals.a(peripheral.o)
 .text.PLIB_USB_ExistsERR_Interrupt
                0x00000000        0x8 ..\..\..\..\..\..\..\..\..\..\microchip\harmony\v1_07_01\bin\framework\peripheral\PIC32MX440F256H_peripherals.a(peripheral.o)
 .text.PLIB_USB_LastTransactionEndPtGet
                0x00000000       0x20 ..\..\..\..\..\..\..\..\..\..\microchip\harmony\v1_07_01\bin\framework\peripheral\PIC32MX440F256H_peripherals.a(peripheral.o)
 .text.PLIB_USB_ExistsLastEndpoint
                0x00000000        0x8 ..\..\..\..\..\..\..\..\..\..\microchip\harmony\v1_07_01\bin\framework\peripheral\PIC32MX440F256H_peripherals.a(peripheral.o)
 .text.PLIB_USB_LastTransactionDirectionGet
                0x00000000       0x20 ..\..\..\..\..\..\..\..\..\..\microchip\harmony\v1_07_01\bin\framework\peripheral\PIC32MX440F256H_peripherals.a(peripheral.o)
 .text.PLIB_USB_ExistsLastDirection
                0x00000000        0x8 ..\..\..\..\..\..\..\..\..\..\microchip\harmony\v1_07_01\bin\framework\peripheral\PIC32MX440F256H_peripherals.a(peripheral.o)
 .text.PLIB_USB_LastTransactionPingPongStateGet
                0x00000000       0x20 ..\..\..\..\..\..\..\..\..\..\microchip\harmony\v1_07_01\bin\framework\peripheral\PIC32MX440F256H_peripherals.a(peripheral.o)
 .text.PLIB_USB_ExistsLastPingPong
                0x00000000        0x8 ..\..\..\..\..\..\..\..\..\..\microchip\harmony\v1_07_01\bin\framework\peripheral\PIC32MX440F256H_peripherals.a(peripheral.o)
 .text.PLIB_USB_ExistsLastTransactionDetails
                0x00000000        0x8 ..\..\..\..\..\..\..\..\..\..\microchip\harmony\v1_07_01\bin\framework\peripheral\PIC32MX440F256H_peripherals.a(peripheral.o)
 .text.PLIB_USB_JStateIsActive
                0x00000000       0x20 ..\..\..\..\..\..\..\..\..\..\microchip\harmony\v1_07_01\bin\framework\peripheral\PIC32MX440F256H_peripherals.a(peripheral.o)
 .text.PLIB_USB_ExistsLiveJState
                0x00000000        0x8 ..\..\..\..\..\..\..\..\..\..\microchip\harmony\v1_07_01\bin\framework\peripheral\PIC32MX440F256H_peripherals.a(peripheral.o)
 .text.PLIB_USB_SE0InProgress
                0x00000000       0x20 ..\..\..\..\..\..\..\..\..\..\microchip\harmony\v1_07_01\bin\framework\peripheral\PIC32MX440F256H_peripherals.a(peripheral.o)
 .text.PLIB_USB_ExistsLiveSingleEndedZero
                0x00000000        0x8 ..\..\..\..\..\..\..\..\..\..\microchip\harmony\v1_07_01\bin\framework\peripheral\PIC32MX440F256H_peripherals.a(peripheral.o)
 .text.PLIB_USB_PacketTransferIsDisabled
                0x00000000       0x20 ..\..\..\..\..\..\..\..\..\..\microchip\harmony\v1_07_01\bin\framework\peripheral\PIC32MX440F256H_peripherals.a(peripheral.o)
 .text.PLIB_USB_PacketTransferDisable
                0x00000000       0x1c ..\..\..\..\..\..\..\..\..\..\microchip\harmony\v1_07_01\bin\framework\peripheral\PIC32MX440F256H_peripherals.a(peripheral.o)
 .text.PLIB_USB_ExistsPacketTransfer
                0x00000000        0x8 ..\..\..\..\..\..\..\..\..\..\microchip\harmony\v1_07_01\bin\framework\peripheral\PIC32MX440F256H_peripherals.a(peripheral.o)
 .text.PLIB_USB_IsBusyWithToken
                0x00000000       0x20 ..\..\..\..\..\..\..\..\..\..\microchip\harmony\v1_07_01\bin\framework\peripheral\PIC32MX440F256H_peripherals.a(peripheral.o)
 .text.PLIB_USB_ExistsHostBusyWithToken
                0x00000000        0x8 ..\..\..\..\..\..\..\..\..\..\microchip\harmony\v1_07_01\bin\framework\peripheral\PIC32MX440F256H_peripherals.a(peripheral.o)
 .text.PLIB_USB_ResetSignalEnable
                0x00000000       0x1c ..\..\..\..\..\..\..\..\..\..\microchip\harmony\v1_07_01\bin\framework\peripheral\PIC32MX440F256H_peripherals.a(peripheral.o)
 .text.PLIB_USB_ResetSignalDisable
                0x00000000       0x20 ..\..\..\..\..\..\..\..\..\..\microchip\harmony\v1_07_01\bin\framework\peripheral\PIC32MX440F256H_peripherals.a(peripheral.o)
 .text.PLIB_USB_ExistsHostGeneratesReset
                0x00000000        0x8 ..\..\..\..\..\..\..\..\..\..\microchip\harmony\v1_07_01\bin\framework\peripheral\PIC32MX440F256H_peripherals.a(peripheral.o)
 .text.PLIB_USB_ExistsOpModeSelect
                0x00000000        0x8 ..\..\..\..\..\..\..\..\..\..\microchip\harmony\v1_07_01\bin\framework\peripheral\PIC32MX440F256H_peripherals.a(peripheral.o)
 .text.PLIB_USB_ExistsResumeSignaling
                0x00000000        0x8 ..\..\..\..\..\..\..\..\..\..\microchip\harmony\v1_07_01\bin\framework\peripheral\PIC32MX440F256H_peripherals.a(peripheral.o)
 .text.PLIB_USB_PingPongFreeze
                0x00000000       0x1c ..\..\..\..\..\..\..\..\..\..\microchip\harmony\v1_07_01\bin\framework\peripheral\PIC32MX440F256H_peripherals.a(peripheral.o)
 .text.PLIB_USB_PingPongUnfreeze
                0x00000000       0x1c ..\..\..\..\..\..\..\..\..\..\microchip\harmony\v1_07_01\bin\framework\peripheral\PIC32MX440F256H_peripherals.a(peripheral.o)
 .text.PLIB_USB_ExistsBufferFreeze
                0x00000000        0x8 ..\..\..\..\..\..\..\..\..\..\microchip\harmony\v1_07_01\bin\framework\peripheral\PIC32MX440F256H_peripherals.a(peripheral.o)
 .text.PLIB_USB_SOFEnable
                0x00000000       0x1c ..\..\..\..\..\..\..\..\..\..\microchip\harmony\v1_07_01\bin\framework\peripheral\PIC32MX440F256H_peripherals.a(peripheral.o)
 .text.PLIB_USB_SOFDisable
                0x00000000       0x20 ..\..\..\..\..\..\..\..\..\..\microchip\harmony\v1_07_01\bin\framework\peripheral\PIC32MX440F256H_peripherals.a(peripheral.o)
 .text.PLIB_USB_ExistsStartOfFrames
                0x00000000        0x8 ..\..\..\..\..\..\..\..\..\..\microchip\harmony\v1_07_01\bin\framework\peripheral\PIC32MX440F256H_peripherals.a(peripheral.o)
 .text.PLIB_USB_TokenSpeedSelect
                0x00000000       0x50 ..\..\..\..\..\..\..\..\..\..\microchip\harmony\v1_07_01\bin\framework\peripheral\PIC32MX440F256H_peripherals.a(peripheral.o)
 .text.PLIB_USB_ExistsNextTokenSpeed
                0x00000000        0x8 ..\..\..\..\..\..\..\..\..\..\microchip\harmony\v1_07_01\bin\framework\peripheral\PIC32MX440F256H_peripherals.a(peripheral.o)
 .text.PLIB_USB_DeviceAddressGet
                0x00000000       0x20 ..\..\..\..\..\..\..\..\..\..\microchip\harmony\v1_07_01\bin\framework\peripheral\PIC32MX440F256H_peripherals.a(peripheral.o)
 .text.PLIB_USB_ExistsDeviceAddress
                0x00000000        0x8 ..\..\..\..\..\..\..\..\..\..\microchip\harmony\v1_07_01\bin\framework\peripheral\PIC32MX440F256H_peripherals.a(peripheral.o)
 .text.PLIB_USB_ExistsFrameNumber
                0x00000000        0x8 ..\..\..\..\..\..\..\..\..\..\microchip\harmony\v1_07_01\bin\framework\peripheral\PIC32MX440F256H_peripherals.a(peripheral.o)
 .text.PLIB_USB_TokenPIDGet
                0x00000000       0x20 ..\..\..\..\..\..\..\..\..\..\microchip\harmony\v1_07_01\bin\framework\peripheral\PIC32MX440F256H_peripherals.a(peripheral.o)
 .text.PLIB_USB_TokenPIDSet
                0x00000000       0x2c ..\..\..\..\..\..\..\..\..\..\microchip\harmony\v1_07_01\bin\framework\peripheral\PIC32MX440F256H_peripherals.a(peripheral.o)
 .text.PLIB_USB_TokenSend
                0x00000000       0x40 ..\..\..\..\..\..\..\..\..\..\microchip\harmony\v1_07_01\bin\framework\peripheral\PIC32MX440F256H_peripherals.a(peripheral.o)
 .text.PLIB_USB_ExistsTokenPID
                0x00000000        0x8 ..\..\..\..\..\..\..\..\..\..\microchip\harmony\v1_07_01\bin\framework\peripheral\PIC32MX440F256H_peripherals.a(peripheral.o)
 .text.PLIB_USB_TokenEPGet
                0x00000000       0x20 ..\..\..\..\..\..\..\..\..\..\microchip\harmony\v1_07_01\bin\framework\peripheral\PIC32MX440F256H_peripherals.a(peripheral.o)
 .text.PLIB_USB_TokenEPSet
                0x00000000       0x2c ..\..\..\..\..\..\..\..\..\..\microchip\harmony\v1_07_01\bin\framework\peripheral\PIC32MX440F256H_peripherals.a(peripheral.o)
 .text.PLIB_USB_ExistsTokenEP
                0x00000000        0x8 ..\..\..\..\..\..\..\..\..\..\microchip\harmony\v1_07_01\bin\framework\peripheral\PIC32MX440F256H_peripherals.a(peripheral.o)
 .text.PLIB_USB_SOFThresholdGet
                0x00000000       0x20 ..\..\..\..\..\..\..\..\..\..\microchip\harmony\v1_07_01\bin\framework\peripheral\PIC32MX440F256H_peripherals.a(peripheral.o)
 .text.PLIB_USB_SOFThresholdSet
                0x00000000       0x28 ..\..\..\..\..\..\..\..\..\..\microchip\harmony\v1_07_01\bin\framework\peripheral\PIC32MX440F256H_peripherals.a(peripheral.o)
 .text.PLIB_USB_ExistsSOFThreshold
                0x00000000        0x8 ..\..\..\..\..\..\..\..\..\..\microchip\harmony\v1_07_01\bin\framework\peripheral\PIC32MX440F256H_peripherals.a(peripheral.o)
 .text.PLIB_USB_BDTBaseAddressGet
                0x00000000       0x48 ..\..\..\..\..\..\..\..\..\..\microchip\harmony\v1_07_01\bin\framework\peripheral\PIC32MX440F256H_peripherals.a(peripheral.o)
 .text.PLIB_USB_ExistsBDTBaseAddress
                0x00000000        0x8 ..\..\..\..\..\..\..\..\..\..\microchip\harmony\v1_07_01\bin\framework\peripheral\PIC32MX440F256H_peripherals.a(peripheral.o)
 .text.PLIB_USB_EyePatternDisable
                0x00000000       0x1c ..\..\..\..\..\..\..\..\..\..\microchip\harmony\v1_07_01\bin\framework\peripheral\PIC32MX440F256H_peripherals.a(peripheral.o)
 .text.PLIB_USB_EyePatternEnable
                0x00000000       0x1c ..\..\..\..\..\..\..\..\..\..\microchip\harmony\v1_07_01\bin\framework\peripheral\PIC32MX440F256H_peripherals.a(peripheral.o)
 .text.PLIB_USB_ExistsEyePattern
                0x00000000        0x8 ..\..\..\..\..\..\..\..\..\..\microchip\harmony\v1_07_01\bin\framework\peripheral\PIC32MX440F256H_peripherals.a(peripheral.o)
 .text.PLIB_USB_ExistsStopInIdle
                0x00000000        0x8 ..\..\..\..\..\..\..\..\..\..\microchip\harmony\v1_07_01\bin\framework\peripheral\PIC32MX440F256H_peripherals.a(peripheral.o)
 .text.PLIB_USB_AutoSuspendDisable
                0x00000000        0x8 ..\..\..\..\..\..\..\..\..\..\microchip\harmony\v1_07_01\bin\framework\peripheral\PIC32MX440F256H_peripherals.a(peripheral.o)
 .text.PLIB_USB_AutoSuspendEnable
                0x00000000        0x8 ..\..\..\..\..\..\..\..\..\..\microchip\harmony\v1_07_01\bin\framework\peripheral\PIC32MX440F256H_peripherals.a(peripheral.o)
 .text.PLIB_USB_ExistsAutomaticSuspend
                0x00000000        0x8 ..\..\..\..\..\..\..\..\..\..\microchip\harmony\v1_07_01\bin\framework\peripheral\PIC32MX440F256H_peripherals.a(peripheral.o)
 .text.PLIB_USB_PingPongModeSelect
                0x00000000        0x8 ..\..\..\..\..\..\..\..\..\..\microchip\harmony\v1_07_01\bin\framework\peripheral\PIC32MX440F256H_peripherals.a(peripheral.o)
 .text.PLIB_USB_PingPongModeGet
                0x00000000        0x8 ..\..\..\..\..\..\..\..\..\..\microchip\harmony\v1_07_01\bin\framework\peripheral\PIC32MX440F256H_peripherals.a(peripheral.o)
 .text.PLIB_USB_ExistsPingPongMode
                0x00000000        0x8 ..\..\..\..\..\..\..\..\..\..\microchip\harmony\v1_07_01\bin\framework\peripheral\PIC32MX440F256H_peripherals.a(peripheral.o)
 .text.PLIB_USB_UOEMonitorEnable
                0x00000000        0x8 ..\..\..\..\..\..\..\..\..\..\microchip\harmony\v1_07_01\bin\framework\peripheral\PIC32MX440F256H_peripherals.a(peripheral.o)
 .text.PLIB_USB_UOEMonitorDisable
                0x00000000        0x8 ..\..\..\..\..\..\..\..\..\..\microchip\harmony\v1_07_01\bin\framework\peripheral\PIC32MX440F256H_peripherals.a(peripheral.o)
 .text.PLIB_USB_ExistsUOEMonitor
                0x00000000        0x8 ..\..\..\..\..\..\..\..\..\..\microchip\harmony\v1_07_01\bin\framework\peripheral\PIC32MX440F256H_peripherals.a(peripheral.o)
 .text.PLIB_USB_OnChipPullUpEnable
                0x00000000        0x8 ..\..\..\..\..\..\..\..\..\..\microchip\harmony\v1_07_01\bin\framework\peripheral\PIC32MX440F256H_peripherals.a(peripheral.o)
 .text.PLIB_USB_OnChipPullUpDisable
                0x00000000        0x8 ..\..\..\..\..\..\..\..\..\..\microchip\harmony\v1_07_01\bin\framework\peripheral\PIC32MX440F256H_peripherals.a(peripheral.o)
 .text.PLIB_USB_ExistsOnChipPullup
                0x00000000        0x8 ..\..\..\..\..\..\..\..\..\..\microchip\harmony\v1_07_01\bin\framework\peripheral\PIC32MX440F256H_peripherals.a(peripheral.o)
 .text.PLIB_USB_TransceiverEnable
                0x00000000        0x8 ..\..\..\..\..\..\..\..\..\..\microchip\harmony\v1_07_01\bin\framework\peripheral\PIC32MX440F256H_peripherals.a(peripheral.o)
 .text.PLIB_USB_TransceiverDisable
                0x00000000        0x8 ..\..\..\..\..\..\..\..\..\..\microchip\harmony\v1_07_01\bin\framework\peripheral\PIC32MX440F256H_peripherals.a(peripheral.o)
 .text.PLIB_USB_ExistsOnChipTransceiver
                0x00000000        0x8 ..\..\..\..\..\..\..\..\..\..\microchip\harmony\v1_07_01\bin\framework\peripheral\PIC32MX440F256H_peripherals.a(peripheral.o)
 .text.PLIB_USB_FullSpeedEnable
                0x00000000        0x8 ..\..\..\..\..\..\..\..\..\..\microchip\harmony\v1_07_01\bin\framework\peripheral\PIC32MX440F256H_peripherals.a(peripheral.o)
 .text.PLIB_USB_FullSpeedDisable
                0x00000000        0x8 ..\..\..\..\..\..\..\..\..\..\microchip\harmony\v1_07_01\bin\framework\peripheral\PIC32MX440F256H_peripherals.a(peripheral.o)
 .text.PLIB_USB_ExistsSpeedControl
                0x00000000        0x8 ..\..\..\..\..\..\..\..\..\..\microchip\harmony\v1_07_01\bin\framework\peripheral\PIC32MX440F256H_peripherals.a(peripheral.o)
 .text.PLIB_USB_EP0LSDirectConnectEnable
                0x00000000       0x1c ..\..\..\..\..\..\..\..\..\..\microchip\harmony\v1_07_01\bin\framework\peripheral\PIC32MX440F256H_peripherals.a(peripheral.o)
 .text.PLIB_USB_EP0LSDirectConnectDisable
                0x00000000       0x20 ..\..\..\..\..\..\..\..\..\..\microchip\harmony\v1_07_01\bin\framework\peripheral\PIC32MX440F256H_peripherals.a(peripheral.o)
 .text.PLIB_USB_ExistsEP0LowSpeedConnect
                0x00000000        0x8 ..\..\..\..\..\..\..\..\..\..\microchip\harmony\v1_07_01\bin\framework\peripheral\PIC32MX440F256H_peripherals.a(peripheral.o)
 .text.PLIB_USB_EP0NakRetryEnable
                0x00000000       0x1c ..\..\..\..\..\..\..\..\..\..\microchip\harmony\v1_07_01\bin\framework\peripheral\PIC32MX440F256H_peripherals.a(peripheral.o)
 .text.PLIB_USB_EP0NakRetryDisable
                0x00000000       0x1c ..\..\..\..\..\..\..\..\..\..\microchip\harmony\v1_07_01\bin\framework\peripheral\PIC32MX440F256H_peripherals.a(peripheral.o)
 .text.PLIB_USB_ExistsEP0NAKRetry
                0x00000000        0x8 ..\..\..\..\..\..\..\..\..\..\microchip\harmony\v1_07_01\bin\framework\peripheral\PIC32MX440F256H_peripherals.a(peripheral.o)
 .text.PLIB_USB_EPnTxSelect
                0x00000000      0x2d0 ..\..\..\..\..\..\..\..\..\..\microchip\harmony\v1_07_01\bin\framework\peripheral\PIC32MX440F256H_peripherals.a(peripheral.o)
 .text.PLIB_USB_EPnRxSelect
                0x00000000      0x2d4 ..\..\..\..\..\..\..\..\..\..\microchip\harmony\v1_07_01\bin\framework\peripheral\PIC32MX440F256H_peripherals.a(peripheral.o)
 .text.PLIB_USB_EPnTxRxSelect
                0x00000000      0x474 ..\..\..\..\..\..\..\..\..\..\microchip\harmony\v1_07_01\bin\framework\peripheral\PIC32MX440F256H_peripherals.a(peripheral.o)
 .text.PLIB_USB_ExistsEPnTxRx
                0x00000000        0x8 ..\..\..\..\..\..\..\..\..\..\microchip\harmony\v1_07_01\bin\framework\peripheral\PIC32MX440F256H_peripherals.a(peripheral.o)
 .text.PLIB_USB_EPnRxEnable
                0x00000000       0x28 ..\..\..\..\..\..\..\..\..\..\microchip\harmony\v1_07_01\bin\framework\peripheral\PIC32MX440F256H_peripherals.a(peripheral.o)
 .text.PLIB_USB_EPnRxDisable
                0x00000000       0x28 ..\..\..\..\..\..\..\..\..\..\microchip\harmony\v1_07_01\bin\framework\peripheral\PIC32MX440F256H_peripherals.a(peripheral.o)
 .text.PLIB_USB_EPnTxEnable
                0x00000000       0x28 ..\..\..\..\..\..\..\..\..\..\microchip\harmony\v1_07_01\bin\framework\peripheral\PIC32MX440F256H_peripherals.a(peripheral.o)
 .text.PLIB_USB_EPnTxDisable
                0x00000000       0x28 ..\..\..\..\..\..\..\..\..\..\microchip\harmony\v1_07_01\bin\framework\peripheral\PIC32MX440F256H_peripherals.a(peripheral.o)
 .text.PLIB_USB_EPnHandshakeEnable
                0x00000000       0x2c ..\..\..\..\..\..\..\..\..\..\microchip\harmony\v1_07_01\bin\framework\peripheral\PIC32MX440F256H_peripherals.a(peripheral.o)
 .text.PLIB_USB_EPnHandshakeDisable
                0x00000000       0x30 ..\..\..\..\..\..\..\..\..\..\microchip\harmony\v1_07_01\bin\framework\peripheral\PIC32MX440F256H_peripherals.a(peripheral.o)
 .text.PLIB_USB_EPnControlTransferEnable
                0x00000000       0x30 ..\..\..\..\..\..\..\..\..\..\microchip\harmony\v1_07_01\bin\framework\peripheral\PIC32MX440F256H_peripherals.a(peripheral.o)
 .text.PLIB_USB_EPnControlTransferDisable
                0x00000000       0x28 ..\..\..\..\..\..\..\..\..\..\microchip\harmony\v1_07_01\bin\framework\peripheral\PIC32MX440F256H_peripherals.a(peripheral.o)
 .text.PLIB_USB_EP0HostSetup
                0x00000000       0x18 ..\..\..\..\..\..\..\..\..\..\microchip\harmony\v1_07_01\bin\framework\peripheral\PIC32MX440F256H_peripherals.a(peripheral.o)
 .text.PLIB_USB_ExistsEPnRxEnable
                0x00000000        0x8 ..\..\..\..\..\..\..\..\..\..\microchip\harmony\v1_07_01\bin\framework\peripheral\PIC32MX440F256H_peripherals.a(peripheral.o)
 .text.PLIB_USB_BufferAddressGet
                0x00000000       0x48 ..\..\..\..\..\..\..\..\..\..\microchip\harmony\v1_07_01\bin\framework\peripheral\PIC32MX440F256H_peripherals.a(peripheral.o)
 .text.PLIB_USB_BufferAddressSet
                0x00000000       0x44 ..\..\..\..\..\..\..\..\..\..\microchip\harmony\v1_07_01\bin\framework\peripheral\PIC32MX440F256H_peripherals.a(peripheral.o)
 .text.PLIB_USB_BufferByteCountGet
                0x00000000       0x4c ..\..\..\..\..\..\..\..\..\..\microchip\harmony\v1_07_01\bin\framework\peripheral\PIC32MX440F256H_peripherals.a(peripheral.o)
 .text.PLIB_USB_BufferByteCountSet
                0x00000000       0x50 ..\..\..\..\..\..\..\..\..\..\microchip\harmony\v1_07_01\bin\framework\peripheral\PIC32MX440F256H_peripherals.a(peripheral.o)
 .text.PLIB_USB_BufferCancelReleaseToUSB
                0x00000000       0x40 ..\..\..\..\..\..\..\..\..\..\microchip\harmony\v1_07_01\bin\framework\peripheral\PIC32MX440F256H_peripherals.a(peripheral.o)
 .text.PLIB_USB_BufferAllCancelReleaseToUSB
                0x00000000       0x30 ..\..\..\..\..\..\..\..\..\..\microchip\harmony\v1_07_01\bin\framework\peripheral\PIC32MX440F256H_peripherals.a(peripheral.o)
 .text.PLIB_USB_BufferClearAll
                0x00000000       0x44 ..\..\..\..\..\..\..\..\..\..\microchip\harmony\v1_07_01\bin\framework\peripheral\PIC32MX440F256H_peripherals.a(peripheral.o)
 .text.PLIB_USB_BufferDataToggleGet
                0x00000000       0x40 ..\..\..\..\..\..\..\..\..\..\microchip\harmony\v1_07_01\bin\framework\peripheral\PIC32MX440F256H_peripherals.a(peripheral.o)
 .text.PLIB_USB_BufferDataToggleSelect
                0x00000000       0x44 ..\..\..\..\..\..\..\..\..\..\microchip\harmony\v1_07_01\bin\framework\peripheral\PIC32MX440F256H_peripherals.a(peripheral.o)
 .text.PLIB_USB_BufferDataToggleSyncEnable
                0x00000000       0x44 ..\..\..\..\..\..\..\..\..\..\microchip\harmony\v1_07_01\bin\framework\peripheral\PIC32MX440F256H_peripherals.a(peripheral.o)
 .text.PLIB_USB_BufferDataToggleSyncDisable
                0x00000000       0x40 ..\..\..\..\..\..\..\..\..\..\microchip\harmony\v1_07_01\bin\framework\peripheral\PIC32MX440F256H_peripherals.a(peripheral.o)
 .text.PLIB_USB_BufferIndexGet
                0x00000000       0x2c ..\..\..\..\..\..\..\..\..\..\microchip\harmony\v1_07_01\bin\framework\peripheral\PIC32MX440F256H_peripherals.a(peripheral.o)
 .text.PLIB_USB_BufferPIDBitsClear
                0x00000000       0x40 ..\..\..\..\..\..\..\..\..\..\microchip\harmony\v1_07_01\bin\framework\peripheral\PIC32MX440F256H_peripherals.a(peripheral.o)
 .text.PLIB_USB_BufferPIDGet
                0x00000000       0x40 ..\..\..\..\..\..\..\..\..\..\microchip\harmony\v1_07_01\bin\framework\peripheral\PIC32MX440F256H_peripherals.a(peripheral.o)
 .text.PLIB_USB_BufferReleasedToSW
                0x00000000        0x8 ..\..\..\..\..\..\..\..\..\..\microchip\harmony\v1_07_01\bin\framework\peripheral\PIC32MX440F256H_peripherals.a(peripheral.o)
 .text.PLIB_USB_BufferReleaseToUSB
                0x00000000       0x44 ..\..\..\..\..\..\..\..\..\..\microchip\harmony\v1_07_01\bin\framework\peripheral\PIC32MX440F256H_peripherals.a(peripheral.o)
 .text.PLIB_USB_BufferSchedule
                0x00000000       0xa4 ..\..\..\..\..\..\..\..\..\..\microchip\harmony\v1_07_01\bin\framework\peripheral\PIC32MX440F256H_peripherals.a(peripheral.o)
 .text.PLIB_USB_BufferStallDisable
                0x00000000       0x58 ..\..\..\..\..\..\..\..\..\..\microchip\harmony\v1_07_01\bin\framework\peripheral\PIC32MX440F256H_peripherals.a(peripheral.o)
 .text.PLIB_USB_BufferStallEnable
                0x00000000       0x48 ..\..\..\..\..\..\..\..\..\..\microchip\harmony\v1_07_01\bin\framework\peripheral\PIC32MX440F256H_peripherals.a(peripheral.o)
 .text.PLIB_USB_BufferStallGet
                0x00000000       0x40 ..\..\..\..\..\..\..\..\..\..\microchip\harmony\v1_07_01\bin\framework\peripheral\PIC32MX440F256H_peripherals.a(peripheral.o)
 .text.PLIB_USB_BufferEP0RxStatusInitialize
                0x00000000       0x4c ..\..\..\..\..\..\..\..\..\..\microchip\harmony\v1_07_01\bin\framework\peripheral\PIC32MX440F256H_peripherals.a(peripheral.o)
 .text.PLIB_USB_BufferClearAllDTSEnable
                0x00000000       0x64 ..\..\..\..\..\..\..\..\..\..\microchip\harmony\v1_07_01\bin\framework\peripheral\PIC32MX440F256H_peripherals.a(peripheral.o)
 .text.PLIB_USB_ExistsBDTFunctions
                0x00000000        0x8 ..\..\..\..\..\..\..\..\..\..\microchip\harmony\v1_07_01\bin\framework\peripheral\PIC32MX440F256H_peripherals.a(peripheral.o)
 .text.PLIB_USBHS_EndpointFIFOLoad
                0x00000000        0x8 ..\..\..\..\..\..\..\..\..\..\microchip\harmony\v1_07_01\bin\framework\peripheral\PIC32MX440F256H_peripherals.a(peripheral.o)
 .text.PLIB_USBHS_EndpointFIFOUnload
                0x00000000        0x8 ..\..\..\..\..\..\..\..\..\..\microchip\harmony\v1_07_01\bin\framework\peripheral\PIC32MX440F256H_peripherals.a(peripheral.o)
 .text.PLIB_USBHS_Endpoint0FIFOFlush
                0x00000000        0x8 ..\..\..\..\..\..\..\..\..\..\microchip\harmony\v1_07_01\bin\framework\peripheral\PIC32MX440F256H_peripherals.a(peripheral.o)
 .text.PLIB_USBHS_EndpointTxFIFOFlush
                0x00000000        0x8 ..\..\..\..\..\..\..\..\..\..\microchip\harmony\v1_07_01\bin\framework\peripheral\PIC32MX440F256H_peripherals.a(peripheral.o)
 .text.PLIB_USBHS_EndpointRxFIFOFlush
                0x00000000        0x8 ..\..\..\..\..\..\..\..\..\..\microchip\harmony\v1_07_01\bin\framework\peripheral\PIC32MX440F256H_peripherals.a(peripheral.o)
 .text.PLIB_USBHS_Endpoint0SetupPacketLoad
                0x00000000        0x8 ..\..\..\..\..\..\..\..\..\..\microchip\harmony\v1_07_01\bin\framework\peripheral\PIC32MX440F256H_peripherals.a(peripheral.o)
 .text.PLIB_USBHS_Endpoint0SetupPacketUnload
                0x00000000        0x8 ..\..\..\..\..\..\..\..\..\..\microchip\harmony\v1_07_01\bin\framework\peripheral\PIC32MX440F256H_peripherals.a(peripheral.o)
 .text.PLIB_USBHS_DeviceEPFIFOLoad
                0x00000000        0x8 ..\..\..\..\..\..\..\..\..\..\microchip\harmony\v1_07_01\bin\framework\peripheral\PIC32MX440F256H_peripherals.a(peripheral.o)
 .text.PLIB_USBHS_DeviceEPFIFOUnload
                0x00000000        0x8 ..\..\..\..\..\..\..\..\..\..\microchip\harmony\v1_07_01\bin\framework\peripheral\PIC32MX440F256H_peripherals.a(peripheral.o)
 .text.PLIB_USBHS_ExistsEndpointFIFO
                0x00000000        0x8 ..\..\..\..\..\..\..\..\..\..\microchip\harmony\v1_07_01\bin\framework\peripheral\PIC32MX440F256H_peripherals.a(peripheral.o)
 .text.PLIB_USBHS_SoftResetEnable
                0x00000000        0x8 ..\..\..\..\..\..\..\..\..\..\microchip\harmony\v1_07_01\bin\framework\peripheral\PIC32MX440F256H_peripherals.a(peripheral.o)
 .text.PLIB_USBHS_SoftResetDisable
                0x00000000        0x8 ..\..\..\..\..\..\..\..\..\..\microchip\harmony\v1_07_01\bin\framework\peripheral\PIC32MX440F256H_peripherals.a(peripheral.o)
 .text.PLIB_USBHS_ExistsSoftReset
                0x00000000        0x8 ..\..\..\..\..\..\..\..\..\..\microchip\harmony\v1_07_01\bin\framework\peripheral\PIC32MX440F256H_peripherals.a(peripheral.o)
 .text.PLIB_USBHS_InterruptEnableSet
                0x00000000        0x8 ..\..\..\..\..\..\..\..\..\..\microchip\harmony\v1_07_01\bin\framework\peripheral\PIC32MX440F256H_peripherals.a(peripheral.o)
 .text.PLIB_USBHS_TxInterruptFlagsGet
                0x00000000        0x8 ..\..\..\..\..\..\..\..\..\..\microchip\harmony\v1_07_01\bin\framework\peripheral\PIC32MX440F256H_peripherals.a(peripheral.o)
 .text.PLIB_USBHS_RxInterruptFlagsGet
                0x00000000        0x8 ..\..\..\..\..\..\..\..\..\..\microchip\harmony\v1_07_01\bin\framework\peripheral\PIC32MX440F256H_peripherals.a(peripheral.o)
 .text.PLIB_USBHS_GenInterruptFlagsGet
                0x00000000        0x8 ..\..\..\..\..\..\..\..\..\..\microchip\harmony\v1_07_01\bin\framework\peripheral\PIC32MX440F256H_peripherals.a(peripheral.o)
 .text.PLIB_USBHS_TxInterruptEnable
                0x00000000        0x8 ..\..\..\..\..\..\..\..\..\..\microchip\harmony\v1_07_01\bin\framework\peripheral\PIC32MX440F256H_peripherals.a(peripheral.o)
 .text.PLIB_USBHS_RxInterruptEnable
                0x00000000        0x8 ..\..\..\..\..\..\..\..\..\..\microchip\harmony\v1_07_01\bin\framework\peripheral\PIC32MX440F256H_peripherals.a(peripheral.o)
 .text.PLIB_USBHS_TxInterruptDisable
                0x00000000        0x8 ..\..\..\..\..\..\..\..\..\..\microchip\harmony\v1_07_01\bin\framework\peripheral\PIC32MX440F256H_peripherals.a(peripheral.o)
 .text.PLIB_USBHS_RxInterruptDisable
                0x00000000        0x8 ..\..\..\..\..\..\..\..\..\..\microchip\harmony\v1_07_01\bin\framework\peripheral\PIC32MX440F256H_peripherals.a(peripheral.o)
 .text.PLIB_USBHS_ExistsInterrupts
                0x00000000        0x8 ..\..\..\..\..\..\..\..\..\..\microchip\harmony\v1_07_01\bin\framework\peripheral\PIC32MX440F256H_peripherals.a(peripheral.o)
 .text.PLIB_USBHS_HighSpeedEnable
                0x00000000        0x8 ..\..\..\..\..\..\..\..\..\..\microchip\harmony\v1_07_01\bin\framework\peripheral\PIC32MX440F256H_peripherals.a(peripheral.o)
 .text.PLIB_USBHS_HighSpeedDisable
                0x00000000        0x8 ..\..\..\..\..\..\..\..\..\..\microchip\harmony\v1_07_01\bin\framework\peripheral\PIC32MX440F256H_peripherals.a(peripheral.o)
 .text.PLIB_USBHS_HighSpeedIsConnected
                0x00000000        0x8 ..\..\..\..\..\..\..\..\..\..\microchip\harmony\v1_07_01\bin\framework\peripheral\PIC32MX440F256H_peripherals.a(peripheral.o)
 .text.PLIB_USBHS_FullOrHighSpeedIsConnected
                0x00000000        0x8 ..\..\..\..\..\..\..\..\..\..\microchip\harmony\v1_07_01\bin\framework\peripheral\PIC32MX440F256H_peripherals.a(peripheral.o)
 .text.PLIB_USBHS_ExistsHighSpeedSupport
                0x00000000        0x8 ..\..\..\..\..\..\..\..\..\..\microchip\harmony\v1_07_01\bin\framework\peripheral\PIC32MX440F256H_peripherals.a(peripheral.o)
 .text.PLIB_USBHS_DMAErrorGet
                0x00000000        0x8 ..\..\..\..\..\..\..\..\..\..\microchip\harmony\v1_07_01\bin\framework\peripheral\PIC32MX440F256H_peripherals.a(peripheral.o)
 .text.PLIB_USBHS_DMAInterruptGet
                0x00000000        0x8 ..\..\..\..\..\..\..\..\..\..\microchip\harmony\v1_07_01\bin\framework\peripheral\PIC32MX440F256H_peripherals.a(peripheral.o)
 .text.PLIB_USBHS_DMAOperationEnable
                0x00000000        0x8 ..\..\..\..\..\..\..\..\..\..\microchip\harmony\v1_07_01\bin\framework\peripheral\PIC32MX440F256H_peripherals.a(peripheral.o)
 .text.PLIB_USBHS_LoadEPInIndex
                0x00000000        0x8 ..\..\..\..\..\..\..\..\..\..\microchip\harmony\v1_07_01\bin\framework\peripheral\PIC32MX440F256H_peripherals.a(peripheral.o)
 .text.PLIB_USBHS_GetEP0FIFOAddress
                0x00000000        0x8 ..\..\..\..\..\..\..\..\..\..\microchip\harmony\v1_07_01\bin\framework\peripheral\PIC32MX440F256H_peripherals.a(peripheral.o)
 .text.PLIB_USBHS_GetEP0CSRAddress
                0x00000000        0x8 ..\..\..\..\..\..\..\..\..\..\microchip\harmony\v1_07_01\bin\framework\peripheral\PIC32MX440F256H_peripherals.a(peripheral.o)
 .text.PLIB_USBHS_GetReceiveDataCount
                0x00000000        0x8 ..\..\..\..\..\..\..\..\..\..\microchip\harmony\v1_07_01\bin\framework\peripheral\PIC32MX440F256H_peripherals.a(peripheral.o)
 .text.PLIB_USBHS_TestModeEnter
                0x00000000        0x8 ..\..\..\..\..\..\..\..\..\..\microchip\harmony\v1_07_01\bin\framework\peripheral\PIC32MX440F256H_peripherals.a(peripheral.o)
 .text.PLIB_USBHS_TestModeExit
                0x00000000        0x8 ..\..\..\..\..\..\..\..\..\..\microchip\harmony\v1_07_01\bin\framework\peripheral\PIC32MX440F256H_peripherals.a(peripheral.o)
 .text.PLIB_USBHS_ExistsClockResetControl
                0x00000000        0x8 ..\..\..\..\..\..\..\..\..\..\microchip\harmony\v1_07_01\bin\framework\peripheral\PIC32MX440F256H_peripherals.a(peripheral.o)
 .text.PLIB_USBHS_GlobalInterruptEnable
                0x00000000        0x8 ..\..\..\..\..\..\..\..\..\..\microchip\harmony\v1_07_01\bin\framework\peripheral\PIC32MX440F256H_peripherals.a(peripheral.o)
 .text.PLIB_USBHS_GlobalInterruptDisable
                0x00000000        0x8 ..\..\..\..\..\..\..\..\..\..\microchip\harmony\v1_07_01\bin\framework\peripheral\PIC32MX440F256H_peripherals.a(peripheral.o)
 .text.PLIB_USBHS_ExistsUSBIDControl
                0x00000000        0x8 ..\..\..\..\..\..\..\..\..\..\microchip\harmony\v1_07_01\bin\framework\peripheral\PIC32MX440F256H_peripherals.a(peripheral.o)
 .text.PLIB_USBHS_USBIDOverrideEnable
                0x00000000        0x8 ..\..\..\..\..\..\..\..\..\..\microchip\harmony\v1_07_01\bin\framework\peripheral\PIC32MX440F256H_peripherals.a(peripheral.o)
 .text.PLIB_USBHS_USBIDOverrideDisable
                0x00000000        0x8 ..\..\..\..\..\..\..\..\..\..\microchip\harmony\v1_07_01\bin\framework\peripheral\PIC32MX440F256H_peripherals.a(peripheral.o)
 .text.PLIB_USBHS_USBIDOverrideValueSet
                0x00000000        0x8 ..\..\..\..\..\..\..\..\..\..\microchip\harmony\v1_07_01\bin\framework\peripheral\PIC32MX440F256H_peripherals.a(peripheral.o)
 .text.PLIB_USBHS_PhyIDMonitoringEnable
                0x00000000        0x8 ..\..\..\..\..\..\..\..\..\..\microchip\harmony\v1_07_01\bin\framework\peripheral\PIC32MX440F256H_peripherals.a(peripheral.o)
 .text.PLIB_USBHS_PhyIDMonitoringDisable
                0x00000000        0x8 ..\..\..\..\..\..\..\..\..\..\microchip\harmony\v1_07_01\bin\framework\peripheral\PIC32MX440F256H_peripherals.a(peripheral.o)
 .text.PLIB_USBHS_ResumeEnable
                0x00000000        0x8 ..\..\..\..\..\..\..\..\..\..\microchip\harmony\v1_07_01\bin\framework\peripheral\PIC32MX440F256H_peripherals.a(peripheral.o)
 .text.PLIB_USBHS_ResumeDisable
                0x00000000        0x8 ..\..\..\..\..\..\..\..\..\..\microchip\harmony\v1_07_01\bin\framework\peripheral\PIC32MX440F256H_peripherals.a(peripheral.o)
 .text.PLIB_USBHS_SuspendEnable
                0x00000000        0x8 ..\..\..\..\..\..\..\..\..\..\microchip\harmony\v1_07_01\bin\framework\peripheral\PIC32MX440F256H_peripherals.a(peripheral.o)
 .text.PLIB_USBHS_SuspendDisable
                0x00000000        0x8 ..\..\..\..\..\..\..\..\..\..\microchip\harmony\v1_07_01\bin\framework\peripheral\PIC32MX440F256H_peripherals.a(peripheral.o)
 .text.PLIB_USBHS_ResetEnable
                0x00000000        0x8 ..\..\..\..\..\..\..\..\..\..\microchip\harmony\v1_07_01\bin\framework\peripheral\PIC32MX440F256H_peripherals.a(peripheral.o)
 .text.PLIB_USBHS_ResetDisable
                0x00000000        0x8 ..\..\..\..\..\..\..\..\..\..\microchip\harmony\v1_07_01\bin\framework\peripheral\PIC32MX440F256H_peripherals.a(peripheral.o)
 .text.PLIB_USBHS_VBUSLevelGet
                0x00000000        0x8 ..\..\..\..\..\..\..\..\..\..\microchip\harmony\v1_07_01\bin\framework\peripheral\PIC32MX440F256H_peripherals.a(peripheral.o)
 .text.PLIB_USBHS_HostModeIsEnabled
                0x00000000        0x8 ..\..\..\..\..\..\..\..\..\..\microchip\harmony\v1_07_01\bin\framework\peripheral\PIC32MX440F256H_peripherals.a(peripheral.o)
 .text.PLIB_USBHS_IsBDevice
                0x00000000        0x8 ..\..\..\..\..\..\..\..\..\..\microchip\harmony\v1_07_01\bin\framework\peripheral\PIC32MX440F256H_peripherals.a(peripheral.o)
 .text.PLIB_USBHS_SessionEnable
                0x00000000        0x8 ..\..\..\..\..\..\..\..\..\..\microchip\harmony\v1_07_01\bin\framework\peripheral\PIC32MX440F256H_peripherals.a(peripheral.o)
 .text.PLIB_USBHS_SessionDisable
                0x00000000        0x8 ..\..\..\..\..\..\..\..\..\..\microchip\harmony\v1_07_01\bin\framework\peripheral\PIC32MX440F256H_peripherals.a(peripheral.o)
 .text.PLIB_USBHS_DeviceAddressSet
                0x00000000        0x8 ..\..\..\..\..\..\..\..\..\..\microchip\harmony\v1_07_01\bin\framework\peripheral\PIC32MX440F256H_peripherals.a(peripheral.o)
 .text.PLIB_USBHS_DeviceAttach
                0x00000000        0x8 ..\..\..\..\..\..\..\..\..\..\microchip\harmony\v1_07_01\bin\framework\peripheral\PIC32MX440F256H_peripherals.a(peripheral.o)
 .text.PLIB_USBHS_DeviceDetach
                0x00000000        0x8 ..\..\..\..\..\..\..\..\..\..\microchip\harmony\v1_07_01\bin\framework\peripheral\PIC32MX440F256H_peripherals.a(peripheral.o)
 .text.PLIB_USBHS_ExistsModuleControl
                0x00000000        0x8 ..\..\..\..\..\..\..\..\..\..\microchip\harmony\v1_07_01\bin\framework\peripheral\PIC32MX440F256H_peripherals.a(peripheral.o)
 .text.PLIB_USBHS_EP0StatusGet
                0x00000000        0x8 ..\..\..\..\..\..\..\..\..\..\microchip\harmony\v1_07_01\bin\framework\peripheral\PIC32MX440F256H_peripherals.a(peripheral.o)
 .text.PLIB_USBHS_EP0StatusClear
                0x00000000        0x8 ..\..\..\..\..\..\..\..\..\..\microchip\harmony\v1_07_01\bin\framework\peripheral\PIC32MX440F256H_peripherals.a(peripheral.o)
 .text.PLIB_USBHS_EP0SentStallClear
                0x00000000        0x8 ..\..\..\..\..\..\..\..\..\..\microchip\harmony\v1_07_01\bin\framework\peripheral\PIC32MX440F256H_peripherals.a(peripheral.o)
 .text.PLIB_USBHS_EP0INHandshakeSend
                0x00000000        0x8 ..\..\..\..\..\..\..\..\..\..\microchip\harmony\v1_07_01\bin\framework\peripheral\PIC32MX440F256H_peripherals.a(peripheral.o)
 .text.PLIB_USBHS_EP0INTokenSend
                0x00000000        0x8 ..\..\..\..\..\..\..\..\..\..\microchip\harmony\v1_07_01\bin\framework\peripheral\PIC32MX440F256H_peripherals.a(peripheral.o)
 .text.PLIB_USBHS_EP0OUTHandshakeSend
                0x00000000        0x8 ..\..\..\..\..\..\..\..\..\..\microchip\harmony\v1_07_01\bin\framework\peripheral\PIC32MX440F256H_peripherals.a(peripheral.o)
 .text.PLIB_USBHS_EP0INHandshakeClear
                0x00000000        0x8 ..\..\..\..\..\..\..\..\..\..\microchip\harmony\v1_07_01\bin\framework\peripheral\PIC32MX440F256H_peripherals.a(peripheral.o)
 .text.PLIB_USBHS_EP0StallEnable
                0x00000000        0x8 ..\..\..\..\..\..\..\..\..\..\microchip\harmony\v1_07_01\bin\framework\peripheral\PIC32MX440F256H_peripherals.a(peripheral.o)
 .text.PLIB_USBHS_EP0StallDisable
                0x00000000        0x8 ..\..\..\..\..\..\..\..\..\..\microchip\harmony\v1_07_01\bin\framework\peripheral\PIC32MX440F256H_peripherals.a(peripheral.o)
 .text.PLIB_USBHS_EP0SetupEndServiced
                0x00000000        0x8 ..\..\..\..\..\..\..\..\..\..\microchip\harmony\v1_07_01\bin\framework\peripheral\PIC32MX440F256H_peripherals.a(peripheral.o)
 .text.PLIB_USBHS_EP0RxPktRdyServiced
                0x00000000        0x8 ..\..\..\..\..\..\..\..\..\..\microchip\harmony\v1_07_01\bin\framework\peripheral\PIC32MX440F256H_peripherals.a(peripheral.o)
 .text.PLIB_USBHS_EP0RxPktRdyServicedDataEnd
                0x00000000        0x8 ..\..\..\..\..\..\..\..\..\..\microchip\harmony\v1_07_01\bin\framework\peripheral\PIC32MX440F256H_peripherals.a(peripheral.o)
 .text.PLIB_USBHS_EP0TxPktRdyDataEnd
                0x00000000        0x8 ..\..\..\..\..\..\..\..\..\..\microchip\harmony\v1_07_01\bin\framework\peripheral\PIC32MX440F256H_peripherals.a(peripheral.o)
 .text.PLIB_USBHS_EP0TxPktRdy
                0x00000000        0x8 ..\..\..\..\..\..\..\..\..\..\microchip\harmony\v1_07_01\bin\framework\peripheral\PIC32MX440F256H_peripherals.a(peripheral.o)
 .text.PLIB_USBHS_EP0DataEndSet
                0x00000000        0x8 ..\..\..\..\..\..\..\..\..\..\microchip\harmony\v1_07_01\bin\framework\peripheral\PIC32MX440F256H_peripherals.a(peripheral.o)
 .text.PLIB_USBHS_ExistsEP0Status
                0x00000000        0x8 ..\..\..\..\..\..\..\..\..\..\microchip\harmony\v1_07_01\bin\framework\peripheral\PIC32MX440F256H_peripherals.a(peripheral.o)
 .text.PLIB_USBHS_TxEPStatusGet
                0x00000000        0x8 ..\..\..\..\..\..\..\..\..\..\microchip\harmony\v1_07_01\bin\framework\peripheral\PIC32MX440F256H_peripherals.a(peripheral.o)
 .text.PLIB_USBHS_TxEPStatusClear
                0x00000000        0x8 ..\..\..\..\..\..\..\..\..\..\microchip\harmony\v1_07_01\bin\framework\peripheral\PIC32MX440F256H_peripherals.a(peripheral.o)
 .text.PLIB_USBHS_ExistsTxEPStatus
                0x00000000        0x8 ..\..\..\..\..\..\..\..\..\..\microchip\harmony\v1_07_01\bin\framework\peripheral\PIC32MX440F256H_peripherals.a(peripheral.o)
 .text.PLIB_USBHS_RxEPStatusGet
                0x00000000        0x8 ..\..\..\..\..\..\..\..\..\..\microchip\harmony\v1_07_01\bin\framework\peripheral\PIC32MX440F256H_peripherals.a(peripheral.o)
 .text.PLIB_USBHS_RxEPStatusClear
                0x00000000        0x8 ..\..\..\..\..\..\..\..\..\..\microchip\harmony\v1_07_01\bin\framework\peripheral\PIC32MX440F256H_peripherals.a(peripheral.o)
 .text.PLIB_USBHS_RxEPINTokenSend
                0x00000000        0x8 ..\..\..\..\..\..\..\..\..\..\microchip\harmony\v1_07_01\bin\framework\peripheral\PIC32MX440F256H_peripherals.a(peripheral.o)
 .text.PLIB_USBHS_ExistsRxEPStatus
                0x00000000        0x8 ..\..\..\..\..\..\..\..\..\..\microchip\harmony\v1_07_01\bin\framework\peripheral\PIC32MX440F256H_peripherals.a(peripheral.o)
 .text.PLIB_USBHS_EndpointRxRequestEnable
                0x00000000        0x8 ..\..\..\..\..\..\..\..\..\..\microchip\harmony\v1_07_01\bin\framework\peripheral\PIC32MX440F256H_peripherals.a(peripheral.o)
 .text.PLIB_USBHS_EndpointRxRequestClear
                0x00000000        0x8 ..\..\..\..\..\..\..\..\..\..\microchip\harmony\v1_07_01\bin\framework\peripheral\PIC32MX440F256H_peripherals.a(peripheral.o)
 .text.PLIB_USBHS_HostRxEndpointConfigure
                0x00000000        0x8 ..\..\..\..\..\..\..\..\..\..\microchip\harmony\v1_07_01\bin\framework\peripheral\PIC32MX440F256H_peripherals.a(peripheral.o)
 .text.PLIB_USBHS_HostTxEndpointConfigure
                0x00000000        0x8 ..\..\..\..\..\..\..\..\..\..\microchip\harmony\v1_07_01\bin\framework\peripheral\PIC32MX440F256H_peripherals.a(peripheral.o)
 .text.PLIB_USBHS_HostTxEndpointDataToggleClear
                0x00000000        0x8 ..\..\..\..\..\..\..\..\..\..\microchip\harmony\v1_07_01\bin\framework\peripheral\PIC32MX440F256H_peripherals.a(peripheral.o)
 .text.PLIB_USBHS_HostRxEndpointDataToggleClear
                0x00000000        0x8 ..\..\..\..\..\..\..\..\..\..\microchip\harmony\v1_07_01\bin\framework\peripheral\PIC32MX440F256H_peripherals.a(peripheral.o)
 .text.PLIB_USBHS_DeviceRxEndpointConfigure
                0x00000000        0x8 ..\..\..\..\..\..\..\..\..\..\microchip\harmony\v1_07_01\bin\framework\peripheral\PIC32MX440F256H_peripherals.a(peripheral.o)
 .text.PLIB_USBHS_DeviceTxEndpointConfigure
                0x00000000        0x8 ..\..\..\..\..\..\..\..\..\..\microchip\harmony\v1_07_01\bin\framework\peripheral\PIC32MX440F256H_peripherals.a(peripheral.o)
 .text.PLIB_USBHS_DeviceRxEndpointStallEnable
                0x00000000        0x8 ..\..\..\..\..\..\..\..\..\..\microchip\harmony\v1_07_01\bin\framework\peripheral\PIC32MX440F256H_peripherals.a(peripheral.o)
 .text.PLIB_USBHS_DeviceTxEndpointStallEnable
                0x00000000        0x8 ..\..\..\..\..\..\..\..\..\..\microchip\harmony\v1_07_01\bin\framework\peripheral\PIC32MX440F256H_peripherals.a(peripheral.o)
 .text.PLIB_USBHS_DeviceRxEndpointStallDisable
                0x00000000        0x8 ..\..\..\..\..\..\..\..\..\..\microchip\harmony\v1_07_01\bin\framework\peripheral\PIC32MX440F256H_peripherals.a(peripheral.o)
 .text.PLIB_USBHS_DeviceTxEndpointStallDisable
                0x00000000        0x8 ..\..\..\..\..\..\..\..\..\..\microchip\harmony\v1_07_01\bin\framework\peripheral\PIC32MX440F256H_peripherals.a(peripheral.o)
 .text.PLIB_USBHS_DeviceTxEndpointPacketReady
                0x00000000        0x8 ..\..\..\..\..\..\..\..\..\..\microchip\harmony\v1_07_01\bin\framework\peripheral\PIC32MX440F256H_peripherals.a(peripheral.o)
 .text.PLIB_USBHS_ExistsEndpointOperations
                0x00000000        0x8 ..\..\..\..\..\..\..\..\..\..\microchip\harmony\v1_07_01\bin\framework\peripheral\PIC32MX440F256H_peripherals.a(peripheral.o)
 .text.PLIB_WDT_ExistsEnableControl
                0x00000000        0x8 ..\..\..\..\..\..\..\..\..\..\microchip\harmony\v1_07_01\bin\framework\peripheral\PIC32MX440F256H_peripherals.a(peripheral.o)
 .text.PLIB_WDT_Enable
                0x00000000       0x1c ..\..\..\..\..\..\..\..\..\..\microchip\harmony\v1_07_01\bin\framework\peripheral\PIC32MX440F256H_peripherals.a(peripheral.o)
 .text.PLIB_WDT_Disable
                0x00000000       0x1c ..\..\..\..\..\..\..\..\..\..\microchip\harmony\v1_07_01\bin\framework\peripheral\PIC32MX440F256H_peripherals.a(peripheral.o)
 .text.PLIB_WDT_IsEnabled
                0x00000000       0x20 ..\..\..\..\..\..\..\..\..\..\microchip\harmony\v1_07_01\bin\framework\peripheral\PIC32MX440F256H_peripherals.a(peripheral.o)
 .text.PLIB_WDT_ExistsWindowEnable
                0x00000000        0x8 ..\..\..\..\..\..\..\..\..\..\microchip\harmony\v1_07_01\bin\framework\peripheral\PIC32MX440F256H_peripherals.a(peripheral.o)
 .text.PLIB_WDT_WindowEnable
                0x00000000        0x8 ..\..\..\..\..\..\..\..\..\..\microchip\harmony\v1_07_01\bin\framework\peripheral\PIC32MX440F256H_peripherals.a(peripheral.o)
 .text.PLIB_WDT_WindowDisable
                0x00000000        0x8 ..\..\..\..\..\..\..\..\..\..\microchip\harmony\v1_07_01\bin\framework\peripheral\PIC32MX440F256H_peripherals.a(peripheral.o)
 .text.PLIB_WDT_ExistsTimerClear
                0x00000000        0x8 ..\..\..\..\..\..\..\..\..\..\microchip\harmony\v1_07_01\bin\framework\peripheral\PIC32MX440F256H_peripherals.a(peripheral.o)
 .text.PLIB_WDT_TimerClear
                0x00000000       0x1c ..\..\..\..\..\..\..\..\..\..\microchip\harmony\v1_07_01\bin\framework\peripheral\PIC32MX440F256H_peripherals.a(peripheral.o)
 .text.PLIB_WDT_ExistsPostscalerValue
                0x00000000        0x8 ..\..\..\..\..\..\..\..\..\..\microchip\harmony\v1_07_01\bin\framework\peripheral\PIC32MX440F256H_peripherals.a(peripheral.o)
 .text.PLIB_WDT_PostscalerValueGet
                0x00000000       0x20 ..\..\..\..\..\..\..\..\..\..\microchip\harmony\v1_07_01\bin\framework\peripheral\PIC32MX440F256H_peripherals.a(peripheral.o)
 .text.PLIB_WDT_ExistsSleepModePostscalerValue
                0x00000000        0x8 ..\..\..\..\..\..\..\..\..\..\microchip\harmony\v1_07_01\bin\framework\peripheral\PIC32MX440F256H_peripherals.a(peripheral.o)
 .text.PLIB_WDT_SleepModePostscalerValueGet
                0x00000000        0x8 ..\..\..\..\..\..\..\..\..\..\microchip\harmony\v1_07_01\bin\framework\peripheral\PIC32MX440F256H_peripherals.a(peripheral.o)
 .text.PLIB_CTMU_EdgeSensitivitySet
                0x00000000        0x8 ..\..\..\..\..\..\..\..\..\..\microchip\harmony\v1_07_01\bin\framework\peripheral\PIC32MX440F256H_peripherals.a(peripheral.o)
 .text.PLIB_CTMU_ExistsEdgeSensitivity
                0x00000000        0x8 ..\..\..\..\..\..\..\..\..\..\microchip\harmony\v1_07_01\bin\framework\peripheral\PIC32MX440F256H_peripherals.a(peripheral.o)
 .text.PLIB_CTMU_EdgePolaritySet
                0x00000000        0x8 ..\..\..\..\..\..\..\..\..\..\microchip\harmony\v1_07_01\bin\framework\peripheral\PIC32MX440F256H_peripherals.a(peripheral.o)
 .text.PLIB_CTMU_ExistsEdgePolarity
                0x00000000        0x8 ..\..\..\..\..\..\..\..\..\..\microchip\harmony\v1_07_01\bin\framework\peripheral\PIC32MX440F256H_peripherals.a(peripheral.o)
 .text.PLIB_CTMU_EdgeTriggerSourceSelect
                0x00000000        0x8 ..\..\..\..\..\..\..\..\..\..\microchip\harmony\v1_07_01\bin\framework\peripheral\PIC32MX440F256H_peripherals.a(peripheral.o)
 .text.PLIB_CTMU_ExistsEdgeTriggerSource
                0x00000000        0x8 ..\..\..\..\..\..\..\..\..\..\microchip\harmony\v1_07_01\bin\framework\peripheral\PIC32MX440F256H_peripherals.a(peripheral.o)
 .text.PLIB_CTMU_EdgeIsSet
                0x00000000        0x8 ..\..\..\..\..\..\..\..\..\..\microchip\harmony\v1_07_01\bin\framework\peripheral\PIC32MX440F256H_peripherals.a(peripheral.o)
 .text.PLIB_CTMU_EdgeSet
                0x00000000        0x8 ..\..\..\..\..\..\..\..\..\..\microchip\harmony\v1_07_01\bin\framework\peripheral\PIC32MX440F256H_peripherals.a(peripheral.o)
 .text.PLIB_CTMU_ExistsEdgeStatus
                0x00000000        0x8 ..\..\..\..\..\..\..\..\..\..\microchip\harmony\v1_07_01\bin\framework\peripheral\PIC32MX440F256H_peripherals.a(peripheral.o)
 .text.PLIB_CTMU_Disable
                0x00000000        0x8 ..\..\..\..\..\..\..\..\..\..\microchip\harmony\v1_07_01\bin\framework\peripheral\PIC32MX440F256H_peripherals.a(peripheral.o)
 .text.PLIB_CTMU_Enable
                0x00000000        0x8 ..\..\..\..\..\..\..\..\..\..\microchip\harmony\v1_07_01\bin\framework\peripheral\PIC32MX440F256H_peripherals.a(peripheral.o)
 .text.PLIB_CTMU_ExistsModuleEnable
                0x00000000        0x8 ..\..\..\..\..\..\..\..\..\..\microchip\harmony\v1_07_01\bin\framework\peripheral\PIC32MX440F256H_peripherals.a(peripheral.o)
 .text.PLIB_CTMU_StopInIdleDisable
                0x00000000        0x8 ..\..\..\..\..\..\..\..\..\..\microchip\harmony\v1_07_01\bin\framework\peripheral\PIC32MX440F256H_peripherals.a(peripheral.o)
 .text.PLIB_CTMU_StopInIdleEnable
                0x00000000        0x8 ..\..\..\..\..\..\..\..\..\..\microchip\harmony\v1_07_01\bin\framework\peripheral\PIC32MX440F256H_peripherals.a(peripheral.o)
 .text.PLIB_CTMU_ExistsStopInIdle
                0x00000000        0x8 ..\..\..\..\..\..\..\..\..\..\microchip\harmony\v1_07_01\bin\framework\peripheral\PIC32MX440F256H_peripherals.a(peripheral.o)
 .text.PLIB_CTMU_TimePulseGenerationDisable
                0x00000000        0x8 ..\..\..\..\..\..\..\..\..\..\microchip\harmony\v1_07_01\bin\framework\peripheral\PIC32MX440F256H_peripherals.a(peripheral.o)
 .text.PLIB_CTMU_TimePulseGenerationEnable
                0x00000000        0x8 ..\..\..\..\..\..\..\..\..\..\microchip\harmony\v1_07_01\bin\framework\peripheral\PIC32MX440F256H_peripherals.a(peripheral.o)
 .text.PLIB_CTMU_ExistsTimePulseGeneration
                0x00000000        0x8 ..\..\..\..\..\..\..\..\..\..\microchip\harmony\v1_07_01\bin\framework\peripheral\PIC32MX440F256H_peripherals.a(peripheral.o)
 .text.PLIB_CTMU_EdgeDisable
                0x00000000        0x8 ..\..\..\..\..\..\..\..\..\..\microchip\harmony\v1_07_01\bin\framework\peripheral\PIC32MX440F256H_peripherals.a(peripheral.o)
 .text.PLIB_CTMU_EdgeEnable
                0x00000000        0x8 ..\..\..\..\..\..\..\..\..\..\microchip\harmony\v1_07_01\bin\framework\peripheral\PIC32MX440F256H_peripherals.a(peripheral.o)
 .text.PLIB_CTMU_ExistsEdgeEnable
                0x00000000        0x8 ..\..\..\..\..\..\..\..\..\..\microchip\harmony\v1_07_01\bin\framework\peripheral\PIC32MX440F256H_peripherals.a(peripheral.o)
 .text.PLIB_CTMU_EdgeSequenceDisable
                0x00000000        0x8 ..\..\..\..\..\..\..\..\..\..\microchip\harmony\v1_07_01\bin\framework\peripheral\PIC32MX440F256H_peripherals.a(peripheral.o)
 .text.PLIB_CTMU_EdgeSequenceEnable
                0x00000000        0x8 ..\..\..\..\..\..\..\..\..\..\microchip\harmony\v1_07_01\bin\framework\peripheral\PIC32MX440F256H_peripherals.a(peripheral.o)
 .text.PLIB_CTMU_ExistsEdgeSequencing
                0x00000000        0x8 ..\..\..\..\..\..\..\..\..\..\microchip\harmony\v1_07_01\bin\framework\peripheral\PIC32MX440F256H_peripherals.a(peripheral.o)
 .text.PLIB_CTMU_CurrentDischargeEnable
                0x00000000        0x8 ..\..\..\..\..\..\..\..\..\..\microchip\harmony\v1_07_01\bin\framework\peripheral\PIC32MX440F256H_peripherals.a(peripheral.o)
 .text.PLIB_CTMU_CurrentDischargeDisable
                0x00000000        0x8 ..\..\..\..\..\..\..\..\..\..\microchip\harmony\v1_07_01\bin\framework\peripheral\PIC32MX440F256H_peripherals.a(peripheral.o)
 .text.PLIB_CTMU_ExistsCurrentDischarge
                0x00000000        0x8 ..\..\..\..\..\..\..\..\..\..\microchip\harmony\v1_07_01\bin\framework\peripheral\PIC32MX440F256H_peripherals.a(peripheral.o)
 .text.PLIB_CTMU_AutomaticADCTriggerDisable
                0x00000000        0x8 ..\..\..\..\..\..\..\..\..\..\microchip\harmony\v1_07_01\bin\framework\peripheral\PIC32MX440F256H_peripherals.a(peripheral.o)
 .text.PLIB_CTMU_AutomaticADCTriggerEnable
                0x00000000        0x8 ..\..\..\..\..\..\..\..\..\..\microchip\harmony\v1_07_01\bin\framework\peripheral\PIC32MX440F256H_peripherals.a(peripheral.o)
 .text.PLIB_CTMU_ExistsAutomaticADCTrigger
                0x00000000        0x8 ..\..\..\..\..\..\..\..\..\..\microchip\harmony\v1_07_01\bin\framework\peripheral\PIC32MX440F256H_peripherals.a(peripheral.o)
 .text.PLIB_CTMU_CurrentTrimSet
                0x00000000        0x8 ..\..\..\..\..\..\..\..\..\..\microchip\harmony\v1_07_01\bin\framework\peripheral\PIC32MX440F256H_peripherals.a(peripheral.o)
 .text.PLIB_CTMU_ExistsCurrentTrim
                0x00000000        0x8 ..\..\..\..\..\..\..\..\..\..\microchip\harmony\v1_07_01\bin\framework\peripheral\PIC32MX440F256H_peripherals.a(peripheral.o)
 .text.PLIB_CTMU_CurrentRangeSet
                0x00000000        0x8 ..\..\..\..\..\..\..\..\..\..\microchip\harmony\v1_07_01\bin\framework\peripheral\PIC32MX440F256H_peripherals.a(peripheral.o)
 .text.PLIB_CTMU_ExistsCurrentRange
                0x00000000        0x8 ..\..\..\..\..\..\..\..\..\..\microchip\harmony\v1_07_01\bin\framework\peripheral\PIC32MX440F256H_peripherals.a(peripheral.o)
 .text.PLIB_GLCD_ExistsRGBSequentialMode
                0x00000000        0x8 ..\..\..\..\..\..\..\..\..\..\microchip\harmony\v1_07_01\bin\framework\peripheral\PIC32MX440F256H_peripherals.a(peripheral.o)
 .text.PLIB_GLCD_RGBSequentialModeSet
                0x00000000        0x8 ..\..\..\..\..\..\..\..\..\..\microchip\harmony\v1_07_01\bin\framework\peripheral\PIC32MX440F256H_peripherals.a(peripheral.o)
 .text.PLIB_GLCD_RGBSequentialModeGet
                0x00000000        0x8 ..\..\..\..\..\..\..\..\..\..\microchip\harmony\v1_07_01\bin\framework\peripheral\PIC32MX440F256H_peripherals.a(peripheral.o)
 .text.PLIB_GLCD_ExistsFormattingClockDivide
                0x00000000        0x8 ..\..\..\..\..\..\..\..\..\..\microchip\harmony\v1_07_01\bin\framework\peripheral\PIC32MX440F256H_peripherals.a(peripheral.o)
 .text.PLIB_GLCD_FormattingClockDivideEnable
                0x00000000        0x8 ..\..\..\..\..\..\..\..\..\..\microchip\harmony\v1_07_01\bin\framework\peripheral\PIC32MX440F256H_peripherals.a(peripheral.o)
 .text.PLIB_GLCD_FormattingClockDivideDisable
                0x00000000        0x8 ..\..\..\..\..\..\..\..\..\..\microchip\harmony\v1_07_01\bin\framework\peripheral\PIC32MX440F256H_peripherals.a(peripheral.o)
 .text.PLIB_GLCD_FormattingClockDivideIsEnabled
                0x00000000        0x8 ..\..\..\..\..\..\..\..\..\..\microchip\harmony\v1_07_01\bin\framework\peripheral\PIC32MX440F256H_peripherals.a(peripheral.o)
 .text.PLIB_GLCD_ExistsYUVOutput
                0x00000000        0x8 ..\..\..\..\..\..\..\..\..\..\microchip\harmony\v1_07_01\bin\framework\peripheral\PIC32MX440F256H_peripherals.a(peripheral.o)
 .text.PLIB_GLCD_YUVOutputEnable
                0x00000000        0x8 ..\..\..\..\..\..\..\..\..\..\microchip\harmony\v1_07_01\bin\framework\peripheral\PIC32MX440F256H_peripherals.a(peripheral.o)
 .text.PLIB_GLCD_YUVOutputDisable
                0x00000000        0x8 ..\..\..\..\..\..\..\..\..\..\microchip\harmony\v1_07_01\bin\framework\peripheral\PIC32MX440F256H_peripherals.a(peripheral.o)
 .text.PLIB_GLCD_YUVOutputIsEnabled
                0x00000000        0x8 ..\..\..\..\..\..\..\..\..\..\microchip\harmony\v1_07_01\bin\framework\peripheral\PIC32MX440F256H_peripherals.a(peripheral.o)
 .text.PLIB_GLCD_ExistsForceOutputBlank
                0x00000000        0x8 ..\..\..\..\..\..\..\..\..\..\microchip\harmony\v1_07_01\bin\framework\peripheral\PIC32MX440F256H_peripherals.a(peripheral.o)
 .text.PLIB_GLCD_ForceOutputBlankEnable
                0x00000000        0x8 ..\..\..\..\..\..\..\..\..\..\microchip\harmony\v1_07_01\bin\framework\peripheral\PIC32MX440F256H_peripherals.a(peripheral.o)
 .text.PLIB_GLCD_ForceOutputBlankDisable
                0x00000000        0x8 ..\..\..\..\..\..\..\..\..\..\microchip\harmony\v1_07_01\bin\framework\peripheral\PIC32MX440F256H_peripherals.a(peripheral.o)
 .text.PLIB_GLCD_ForceOutputBlankIsEnabled
                0x00000000        0x8 ..\..\..\..\..\..\..\..\..\..\microchip\harmony\v1_07_01\bin\framework\peripheral\PIC32MX440F256H_peripherals.a(peripheral.o)
 .text.PLIB_GLCD_ExistsPaletteGammaRamp
                0x00000000        0x8 ..\..\..\..\..\..\..\..\..\..\microchip\harmony\v1_07_01\bin\framework\peripheral\PIC32MX440F256H_peripherals.a(peripheral.o)
 .text.PLIB_GLCD_PaletteGammaRampEnable
                0x00000000        0x8 ..\..\..\..\..\..\..\..\..\..\microchip\harmony\v1_07_01\bin\framework\peripheral\PIC32MX440F256H_peripherals.a(peripheral.o)
 .text.PLIB_GLCD_PaletteGammaRampDisable
                0x00000000        0x8 ..\..\..\..\..\..\..\..\..\..\microchip\harmony\v1_07_01\bin\framework\peripheral\PIC32MX440F256H_peripherals.a(peripheral.o)
 .text.PLIB_GLCD_PaletteGammaRampIsEnabled
                0x00000000        0x8 ..\..\..\..\..\..\..\..\..\..\microchip\harmony\v1_07_01\bin\framework\peripheral\PIC32MX440F256H_peripherals.a(peripheral.o)
 .text.PLIB_GLCD_ExistsSignalPolarity
                0x00000000        0x8 ..\..\..\..\..\..\..\..\..\..\microchip\harmony\v1_07_01\bin\framework\peripheral\PIC32MX440F256H_peripherals.a(peripheral.o)
 .text.PLIB_GLCD_SignalPolaritySet
                0x00000000        0x8 ..\..\..\..\..\..\..\..\..\..\microchip\harmony\v1_07_01\bin\framework\peripheral\PIC32MX440F256H_peripherals.a(peripheral.o)
 .text.PLIB_GLCD_SignalPolarityGet
                0x00000000        0x8 ..\..\..\..\..\..\..\..\..\..\microchip\harmony\v1_07_01\bin\framework\peripheral\PIC32MX440F256H_peripherals.a(peripheral.o)
 .text.PLIB_GLCD_ExistsSingleCyclePerLineVsync
                0x00000000        0x8 ..\..\..\..\..\..\..\..\..\..\microchip\harmony\v1_07_01\bin\framework\peripheral\PIC32MX440F256H_peripherals.a(peripheral.o)
 .text.PLIB_GLCD_SingleCyclePerLineVsyncEnable
                0x00000000        0x8 ..\..\..\..\..\..\..\..\..\..\microchip\harmony\v1_07_01\bin\framework\peripheral\PIC32MX440F256H_peripherals.a(peripheral.o)
 .text.PLIB_GLCD_SingleCyclePerLineVsyncDisable
                0x00000000        0x8 ..\..\..\..\..\..\..\..\..\..\microchip\harmony\v1_07_01\bin\framework\peripheral\PIC32MX440F256H_peripherals.a(peripheral.o)
 .text.PLIB_GLCD_SingleCyclePerLineVsyncIsEnabled
                0x00000000        0x8 ..\..\..\..\..\..\..\..\..\..\microchip\harmony\v1_07_01\bin\framework\peripheral\PIC32MX440F256H_peripherals.a(peripheral.o)
 .text.PLIB_GLCD_ExistsDithering
                0x00000000        0x8 ..\..\..\..\..\..\..\..\..\..\microchip\harmony\v1_07_01\bin\framework\peripheral\PIC32MX440F256H_peripherals.a(peripheral.o)
 .text.PLIB_GLCD_DitheringEnable
                0x00000000        0x8 ..\..\..\..\..\..\..\..\..\..\microchip\harmony\v1_07_01\bin\framework\peripheral\PIC32MX440F256H_peripherals.a(peripheral.o)
 .text.PLIB_GLCD_DitheringDisable
                0x00000000        0x8 ..\..\..\..\..\..\..\..\..\..\microchip\harmony\v1_07_01\bin\framework\peripheral\PIC32MX440F256H_peripherals.a(peripheral.o)
 .text.PLIB_GLCD_DitheringIsEnabled
                0x00000000        0x8 ..\..\..\..\..\..\..\..\..\..\microchip\harmony\v1_07_01\bin\framework\peripheral\PIC32MX440F256H_peripherals.a(peripheral.o)
 .text.PLIB_GLCD_ExistsCursor
                0x00000000        0x8 ..\..\..\..\..\..\..\..\..\..\microchip\harmony\v1_07_01\bin\framework\peripheral\PIC32MX440F256H_peripherals.a(peripheral.o)
 .text.PLIB_GLCD_CursorEnable
                0x00000000        0x8 ..\..\..\..\..\..\..\..\..\..\microchip\harmony\v1_07_01\bin\framework\peripheral\PIC32MX440F256H_peripherals.a(peripheral.o)
 .text.PLIB_GLCD_CursorDisable
                0x00000000        0x8 ..\..\..\..\..\..\..\..\..\..\microchip\harmony\v1_07_01\bin\framework\peripheral\PIC32MX440F256H_peripherals.a(peripheral.o)
 .text.PLIB_GLCD_CursorIsEnabled
                0x00000000        0x8 ..\..\..\..\..\..\..\..\..\..\microchip\harmony\v1_07_01\bin\framework\peripheral\PIC32MX440F256H_peripherals.a(peripheral.o)
 .text.PLIB_GLCD_ExistsEnable
                0x00000000        0x8 ..\..\..\..\..\..\..\..\..\..\microchip\harmony\v1_07_01\bin\framework\peripheral\PIC32MX440F256H_peripherals.a(peripheral.o)
 .text.PLIB_GLCD_Enable
                0x00000000        0x8 ..\..\..\..\..\..\..\..\..\..\microchip\harmony\v1_07_01\bin\framework\peripheral\PIC32MX440F256H_peripherals.a(peripheral.o)
 .text.PLIB_GLCD_Disable
                0x00000000        0x8 ..\..\..\..\..\..\..\..\..\..\microchip\harmony\v1_07_01\bin\framework\peripheral\PIC32MX440F256H_peripherals.a(peripheral.o)
 .text.PLIB_GLCD_IsEnabled
                0x00000000        0x8 ..\..\..\..\..\..\..\..\..\..\microchip\harmony\v1_07_01\bin\framework\peripheral\PIC32MX440F256H_peripherals.a(peripheral.o)
 .text.PLIB_GLCD_ExistsClockDivider
                0x00000000        0x8 ..\..\..\..\..\..\..\..\..\..\microchip\harmony\v1_07_01\bin\framework\peripheral\PIC32MX440F256H_peripherals.a(peripheral.o)
 .text.PLIB_GLCD_ClockDividerSet
                0x00000000        0x8 ..\..\..\..\..\..\..\..\..\..\microchip\harmony\v1_07_01\bin\framework\peripheral\PIC32MX440F256H_peripherals.a(peripheral.o)
 .text.PLIB_GLCD_ClockDividerGet
                0x00000000        0x8 ..\..\..\..\..\..\..\..\..\..\microchip\harmony\v1_07_01\bin\framework\peripheral\PIC32MX440F256H_peripherals.a(peripheral.o)
 .text.PLIB_GLCD_ExistsLinesPrefetch
                0x00000000        0x8 ..\..\..\..\..\..\..\..\..\..\microchip\harmony\v1_07_01\bin\framework\peripheral\PIC32MX440F256H_peripherals.a(peripheral.o)
 .text.PLIB_GLCD_LinesPrefetchSet
                0x00000000        0x8 ..\..\..\..\..\..\..\..\..\..\microchip\harmony\v1_07_01\bin\framework\peripheral\PIC32MX440F256H_peripherals.a(peripheral.o)
 .text.PLIB_GLCD_LinesPrefetchGet
                0x00000000        0x8 ..\..\..\..\..\..\..\..\..\..\microchip\harmony\v1_07_01\bin\framework\peripheral\PIC32MX440F256H_peripherals.a(peripheral.o)
 .text.PLIB_GLCD_ExistsBackgroundColor
                0x00000000        0x8 ..\..\..\..\..\..\..\..\..\..\microchip\harmony\v1_07_01\bin\framework\peripheral\PIC32MX440F256H_peripherals.a(peripheral.o)
 .text.PLIB_GLCD_BackgroundColorSet
                0x00000000        0x8 ..\..\..\..\..\..\..\..\..\..\microchip\harmony\v1_07_01\bin\framework\peripheral\PIC32MX440F256H_peripherals.a(peripheral.o)
 .text.PLIB_GLCD_BackgroundColorGet
                0x00000000        0x8 ..\..\..\..\..\..\..\..\..\..\microchip\harmony\v1_07_01\bin\framework\peripheral\PIC32MX440F256H_peripherals.a(peripheral.o)
 .text.PLIB_GLCD_ExistsResolutionXY
                0x00000000        0x8 ..\..\..\..\..\..\..\..\..\..\microchip\harmony\v1_07_01\bin\framework\peripheral\PIC32MX440F256H_peripherals.a(peripheral.o)
 .text.PLIB_GLCD_ResolutionXYSet
                0x00000000        0x8 ..\..\..\..\..\..\..\..\..\..\microchip\harmony\v1_07_01\bin\framework\peripheral\PIC32MX440F256H_peripherals.a(peripheral.o)
 .text.PLIB_GLCD_ResolutionXGet
                0x00000000        0x8 ..\..\..\..\..\..\..\..\..\..\microchip\harmony\v1_07_01\bin\framework\peripheral\PIC32MX440F256H_peripherals.a(peripheral.o)
 .text.PLIB_GLCD_ResolutionYGet
                0x00000000        0x8 ..\..\..\..\..\..\..\..\..\..\microchip\harmony\v1_07_01\bin\framework\peripheral\PIC32MX440F256H_peripherals.a(peripheral.o)
 .text.PLIB_GLCD_ExistsFrontPorchXY
                0x00000000        0x8 ..\..\..\..\..\..\..\..\..\..\microchip\harmony\v1_07_01\bin\framework\peripheral\PIC32MX440F256H_peripherals.a(peripheral.o)
 .text.PLIB_GLCD_FrontPorchXYSet
                0x00000000        0x8 ..\..\..\..\..\..\..\..\..\..\microchip\harmony\v1_07_01\bin\framework\peripheral\PIC32MX440F256H_peripherals.a(peripheral.o)
 .text.PLIB_GLCD_FrontPorchXGet
                0x00000000        0x8 ..\..\..\..\..\..\..\..\..\..\microchip\harmony\v1_07_01\bin\framework\peripheral\PIC32MX440F256H_peripherals.a(peripheral.o)
 .text.PLIB_GLCD_FrontPorchYGet
                0x00000000        0x8 ..\..\..\..\..\..\..\..\..\..\microchip\harmony\v1_07_01\bin\framework\peripheral\PIC32MX440F256H_peripherals.a(peripheral.o)
 .text.PLIB_GLCD_ExistsBlankingXY
                0x00000000        0x8 ..\..\..\..\..\..\..\..\..\..\microchip\harmony\v1_07_01\bin\framework\peripheral\PIC32MX440F256H_peripherals.a(peripheral.o)
 .text.PLIB_GLCD_BlankingXYSet
                0x00000000        0x8 ..\..\..\..\..\..\..\..\..\..\microchip\harmony\v1_07_01\bin\framework\peripheral\PIC32MX440F256H_peripherals.a(peripheral.o)
 .text.PLIB_GLCD_BlankingXGet
                0x00000000        0x8 ..\..\..\..\..\..\..\..\..\..\microchip\harmony\v1_07_01\bin\framework\peripheral\PIC32MX440F256H_peripherals.a(peripheral.o)
 .text.PLIB_GLCD_BlankingYGet
                0x00000000        0x8 ..\..\..\..\..\..\..\..\..\..\microchip\harmony\v1_07_01\bin\framework\peripheral\PIC32MX440F256H_peripherals.a(peripheral.o)
 .text.PLIB_GLCD_ExistsBackPorchXY
                0x00000000        0x8 ..\..\..\..\..\..\..\..\..\..\microchip\harmony\v1_07_01\bin\framework\peripheral\PIC32MX440F256H_peripherals.a(peripheral.o)
 .text.PLIB_GLCD_BackPorchXYSet
                0x00000000        0x8 ..\..\..\..\..\..\..\..\..\..\microchip\harmony\v1_07_01\bin\framework\peripheral\PIC32MX440F256H_peripherals.a(peripheral.o)
 .text.PLIB_GLCD_BackPorchXGet
                0x00000000        0x8 ..\..\..\..\..\..\..\..\..\..\microchip\harmony\v1_07_01\bin\framework\peripheral\PIC32MX440F256H_peripherals.a(peripheral.o)
 .text.PLIB_GLCD_BackPorchYGet
                0x00000000        0x8 ..\..\..\..\..\..\..\..\..\..\microchip\harmony\v1_07_01\bin\framework\peripheral\PIC32MX440F256H_peripherals.a(peripheral.o)
 .text.PLIB_GLCD_ExistsCursorXY
                0x00000000        0x8 ..\..\..\..\..\..\..\..\..\..\microchip\harmony\v1_07_01\bin\framework\peripheral\PIC32MX440F256H_peripherals.a(peripheral.o)
 .text.PLIB_GLCD_CursorXYSet
                0x00000000        0x8 ..\..\..\..\..\..\..\..\..\..\microchip\harmony\v1_07_01\bin\framework\peripheral\PIC32MX440F256H_peripherals.a(peripheral.o)
 .text.PLIB_GLCD_CursorXGet
                0x00000000        0x8 ..\..\..\..\..\..\..\..\..\..\microchip\harmony\v1_07_01\bin\framework\peripheral\PIC32MX440F256H_peripherals.a(peripheral.o)
 .text.PLIB_GLCD_CursorYGet
                0x00000000        0x8 ..\..\..\..\..\..\..\..\..\..\microchip\harmony\v1_07_01\bin\framework\peripheral\PIC32MX440F256H_peripherals.a(peripheral.o)
 .text.PLIB_GLCD_ExistsLayerColorMode
                0x00000000        0x8 ..\..\..\..\..\..\..\..\..\..\microchip\harmony\v1_07_01\bin\framework\peripheral\PIC32MX440F256H_peripherals.a(peripheral.o)
 .text.PLIB_GLCD_LayerColorModeSet
                0x00000000        0x8 ..\..\..\..\..\..\..\..\..\..\microchip\harmony\v1_07_01\bin\framework\peripheral\PIC32MX440F256H_peripherals.a(peripheral.o)
 .text.PLIB_GLCD_LayerColorModeGet
                0x00000000        0x8 ..\..\..\..\..\..\..\..\..\..\microchip\harmony\v1_07_01\bin\framework\peripheral\PIC32MX440F256H_peripherals.a(peripheral.o)
 .text.PLIB_GLCD_ExistsLayerSrcBlendFunc
                0x00000000        0x8 ..\..\..\..\..\..\..\..\..\..\microchip\harmony\v1_07_01\bin\framework\peripheral\PIC32MX440F256H_peripherals.a(peripheral.o)
 .text.PLIB_GLCD_LayerSrcBlendFuncSet
                0x00000000        0x8 ..\..\..\..\..\..\..\..\..\..\microchip\harmony\v1_07_01\bin\framework\peripheral\PIC32MX440F256H_peripherals.a(peripheral.o)
 .text.PLIB_GLCD_LayerSrcBlendFuncGet
                0x00000000        0x8 ..\..\..\..\..\..\..\..\..\..\microchip\harmony\v1_07_01\bin\framework\peripheral\PIC32MX440F256H_peripherals.a(peripheral.o)
 .text.PLIB_GLCD_ExistsLayerDestBlendFunc
                0x00000000        0x8 ..\..\..\..\..\..\..\..\..\..\microchip\harmony\v1_07_01\bin\framework\peripheral\PIC32MX440F256H_peripherals.a(peripheral.o)
 .text.PLIB_GLCD_LayerDestBlendFuncSet
                0x00000000        0x8 ..\..\..\..\..\..\..\..\..\..\microchip\harmony\v1_07_01\bin\framework\peripheral\PIC32MX440F256H_peripherals.a(peripheral.o)
 .text.PLIB_GLCD_LayerDestBlendFuncGet
                0x00000000        0x8 ..\..\..\..\..\..\..\..\..\..\microchip\harmony\v1_07_01\bin\framework\peripheral\PIC32MX440F256H_peripherals.a(peripheral.o)
 .text.PLIB_GLCD_ExistsLayerGlobalAlpha
                0x00000000        0x8 ..\..\..\..\..\..\..\..\..\..\microchip\harmony\v1_07_01\bin\framework\peripheral\PIC32MX440F256H_peripherals.a(peripheral.o)
 .text.PLIB_GLCD_LayerGlobalAlphaSet
                0x00000000        0x8 ..\..\..\..\..\..\..\..\..\..\microchip\harmony\v1_07_01\bin\framework\peripheral\PIC32MX440F256H_peripherals.a(peripheral.o)
 .text.PLIB_GLCD_LayerGlobalAlphaGet
                0x00000000        0x8 ..\..\..\..\..\..\..\..\..\..\microchip\harmony\v1_07_01\bin\framework\peripheral\PIC32MX440F256H_peripherals.a(peripheral.o)
 .text.PLIB_GLCD_ExistsLayerPreMultiplyImageAlpha
                0x00000000        0x8 ..\..\..\..\..\..\..\..\..\..\microchip\harmony\v1_07_01\bin\framework\peripheral\PIC32MX440F256H_peripherals.a(peripheral.o)
 .text.PLIB_GLCD_LayerPreMultiplyImageAlphaEnable
                0x00000000        0x8 ..\..\..\..\..\..\..\..\..\..\microchip\harmony\v1_07_01\bin\framework\peripheral\PIC32MX440F256H_peripherals.a(peripheral.o)
 .text.PLIB_GLCD_LayerPreMultiplyImageAlphaDisable
                0x00000000        0x8 ..\..\..\..\..\..\..\..\..\..\microchip\harmony\v1_07_01\bin\framework\peripheral\PIC32MX440F256H_peripherals.a(peripheral.o)
 .text.PLIB_GLCD_LayerPreMultiplyImageAlphaIsEnabled
                0x00000000        0x8 ..\..\..\..\..\..\..\..\..\..\microchip\harmony\v1_07_01\bin\framework\peripheral\PIC32MX440F256H_peripherals.a(peripheral.o)
 .text.PLIB_GLCD_ExistsLayerForceWithGlobalAlpha
                0x00000000        0x8 ..\..\..\..\..\..\..\..\..\..\microchip\harmony\v1_07_01\bin\framework\peripheral\PIC32MX440F256H_peripherals.a(peripheral.o)
 .text.PLIB_GLCD_LayerForceWithGlobalAlphaEnable
                0x00000000        0x8 ..\..\..\..\..\..\..\..\..\..\microchip\harmony\v1_07_01\bin\framework\peripheral\PIC32MX440F256H_peripherals.a(peripheral.o)
 .text.PLIB_GLCD_LayerForceWithGlobalAlphaDisable
                0x00000000        0x8 ..\..\..\..\..\..\..\..\..\..\microchip\harmony\v1_07_01\bin\framework\peripheral\PIC32MX440F256H_peripherals.a(peripheral.o)
 .text.PLIB_GLCD_LayerForceWithGlobalAlphaIsEnabled
                0x00000000        0x8 ..\..\..\..\..\..\..\..\..\..\microchip\harmony\v1_07_01\bin\framework\peripheral\PIC32MX440F256H_peripherals.a(peripheral.o)
 .text.PLIB_GLCD_ExistsLayerBilinearFilterEnable
                0x00000000        0x8 ..\..\..\..\..\..\..\..\..\..\microchip\harmony\v1_07_01\bin\framework\peripheral\PIC32MX440F256H_peripherals.a(peripheral.o)
 .text.PLIB_GLCD_LayerBilinearFilterEnable
                0x00000000        0x8 ..\..\..\..\..\..\..\..\..\..\microchip\harmony\v1_07_01\bin\framework\peripheral\PIC32MX440F256H_peripherals.a(peripheral.o)
 .text.PLIB_GLCD_LayerBilinearFilterDisable
                0x00000000        0x8 ..\..\..\..\..\..\..\..\..\..\microchip\harmony\v1_07_01\bin\framework\peripheral\PIC32MX440F256H_peripherals.a(peripheral.o)
 .text.PLIB_GLCD_LayerBilinearFilterIsEnabled
                0x00000000        0x8 ..\..\..\..\..\..\..\..\..\..\microchip\harmony\v1_07_01\bin\framework\peripheral\PIC32MX440F256H_peripherals.a(peripheral.o)
 .text.PLIB_GLCD_ExistsLayerEnable
                0x00000000        0x8 ..\..\..\..\..\..\..\..\..\..\microchip\harmony\v1_07_01\bin\framework\peripheral\PIC32MX440F256H_peripherals.a(peripheral.o)
 .text.PLIB_GLCD_LayerEnable
                0x00000000        0x8 ..\..\..\..\..\..\..\..\..\..\microchip\harmony\v1_07_01\bin\framework\peripheral\PIC32MX440F256H_peripherals.a(peripheral.o)
 .text.PLIB_GLCD_LayerDisable
                0x00000000        0x8 ..\..\..\..\..\..\..\..\..\..\microchip\harmony\v1_07_01\bin\framework\peripheral\PIC32MX440F256H_peripherals.a(peripheral.o)
 .text.PLIB_GLCD_LayerIsEnabled
                0x00000000        0x8 ..\..\..\..\..\..\..\..\..\..\microchip\harmony\v1_07_01\bin\framework\peripheral\PIC32MX440F256H_peripherals.a(peripheral.o)
 .text.PLIB_GLCD_ExistsLayerStartXY
                0x00000000        0x8 ..\..\..\..\..\..\..\..\..\..\microchip\harmony\v1_07_01\bin\framework\peripheral\PIC32MX440F256H_peripherals.a(peripheral.o)
 .text.PLIB_GLCD_LayerStartXYSet
                0x00000000        0x8 ..\..\..\..\..\..\..\..\..\..\microchip\harmony\v1_07_01\bin\framework\peripheral\PIC32MX440F256H_peripherals.a(peripheral.o)
 .text.PLIB_GLCD_LayerStartXGet
                0x00000000        0x8 ..\..\..\..\..\..\..\..\..\..\microchip\harmony\v1_07_01\bin\framework\peripheral\PIC32MX440F256H_peripherals.a(peripheral.o)
 .text.PLIB_GLCD_LayerStartYGet
                0x00000000        0x8 ..\..\..\..\..\..\..\..\..\..\microchip\harmony\v1_07_01\bin\framework\peripheral\PIC32MX440F256H_peripherals.a(peripheral.o)
 .text.PLIB_GLCD_ExistsLayerSizeXY
                0x00000000        0x8 ..\..\..\..\..\..\..\..\..\..\microchip\harmony\v1_07_01\bin\framework\peripheral\PIC32MX440F256H_peripherals.a(peripheral.o)
 .text.PLIB_GLCD_LayerSizeXYSet
                0x00000000        0x8 ..\..\..\..\..\..\..\..\..\..\microchip\harmony\v1_07_01\bin\framework\peripheral\PIC32MX440F256H_peripherals.a(peripheral.o)
 .text.PLIB_GLCD_LayerSizeXGet
                0x00000000        0x8 ..\..\..\..\..\..\..\..\..\..\microchip\harmony\v1_07_01\bin\framework\peripheral\PIC32MX440F256H_peripherals.a(peripheral.o)
 .text.PLIB_GLCD_LayerSizeYGet
                0x00000000        0x8 ..\..\..\..\..\..\..\..\..\..\microchip\harmony\v1_07_01\bin\framework\peripheral\PIC32MX440F256H_peripherals.a(peripheral.o)
 .text.PLIB_GLCD_ExistsLayerBaseAddress
                0x00000000        0x8 ..\..\..\..\..\..\..\..\..\..\microchip\harmony\v1_07_01\bin\framework\peripheral\PIC32MX440F256H_peripherals.a(peripheral.o)
 .text.PLIB_GLCD_LayerBaseAddressSet
                0x00000000        0x8 ..\..\..\..\..\..\..\..\..\..\microchip\harmony\v1_07_01\bin\framework\peripheral\PIC32MX440F256H_peripherals.a(peripheral.o)
 .text.PLIB_GLCD_LayerBaseAddressGet
                0x00000000        0x8 ..\..\..\..\..\..\..\..\..\..\microchip\harmony\v1_07_01\bin\framework\peripheral\PIC32MX440F256H_peripherals.a(peripheral.o)
 .text.PLIB_GLCD_ExistsLayerStride
                0x00000000        0x8 ..\..\..\..\..\..\..\..\..\..\microchip\harmony\v1_07_01\bin\framework\peripheral\PIC32MX440F256H_peripherals.a(peripheral.o)
 .text.PLIB_GLCD_LayerStrideSet
                0x00000000        0x8 ..\..\..\..\..\..\..\..\..\..\microchip\harmony\v1_07_01\bin\framework\peripheral\PIC32MX440F256H_peripherals.a(peripheral.o)
 .text.PLIB_GLCD_LayerStrideGet
                0x00000000        0x8 ..\..\..\..\..\..\..\..\..\..\microchip\harmony\v1_07_01\bin\framework\peripheral\PIC32MX440F256H_peripherals.a(peripheral.o)
 .text.PLIB_GLCD_ExistsLayerResXY
                0x00000000        0x8 ..\..\..\..\..\..\..\..\..\..\microchip\harmony\v1_07_01\bin\framework\peripheral\PIC32MX440F256H_peripherals.a(peripheral.o)
 .text.PLIB_GLCD_LayerResXYSet
                0x00000000        0x8 ..\..\..\..\..\..\..\..\..\..\microchip\harmony\v1_07_01\bin\framework\peripheral\PIC32MX440F256H_peripherals.a(peripheral.o)
 .text.PLIB_GLCD_LayerResXGet
                0x00000000        0x8 ..\..\..\..\..\..\..\..\..\..\microchip\harmony\v1_07_01\bin\framework\peripheral\PIC32MX440F256H_peripherals.a(peripheral.o)
 .text.PLIB_GLCD_LayerResYGet
                0x00000000        0x8 ..\..\..\..\..\..\..\..\..\..\microchip\harmony\v1_07_01\bin\framework\peripheral\PIC32MX440F256H_peripherals.a(peripheral.o)
 .text.PLIB_GLCD_ExistsHSyncInterruptEnable
                0x00000000        0x8 ..\..\..\..\..\..\..\..\..\..\microchip\harmony\v1_07_01\bin\framework\peripheral\PIC32MX440F256H_peripherals.a(peripheral.o)
 .text.PLIB_GLCD_HSyncInterruptEnable
                0x00000000        0x8 ..\..\..\..\..\..\..\..\..\..\microchip\harmony\v1_07_01\bin\framework\peripheral\PIC32MX440F256H_peripherals.a(peripheral.o)
 .text.PLIB_GLCD_HSyncInterruptDisable
                0x00000000        0x8 ..\..\..\..\..\..\..\..\..\..\microchip\harmony\v1_07_01\bin\framework\peripheral\PIC32MX440F256H_peripherals.a(peripheral.o)
 .text.PLIB_GLCD_HSyncInterruptIsEnabled
                0x00000000        0x8 ..\..\..\..\..\..\..\..\..\..\microchip\harmony\v1_07_01\bin\framework\peripheral\PIC32MX440F256H_peripherals.a(peripheral.o)
 .text.PLIB_GLCD_ExistsVSyncInterruptEnable
                0x00000000        0x8 ..\..\..\..\..\..\..\..\..\..\microchip\harmony\v1_07_01\bin\framework\peripheral\PIC32MX440F256H_peripherals.a(peripheral.o)
 .text.PLIB_GLCD_VSyncInterruptEnable
                0x00000000        0x8 ..\..\..\..\..\..\..\..\..\..\microchip\harmony\v1_07_01\bin\framework\peripheral\PIC32MX440F256H_peripherals.a(peripheral.o)
 .text.PLIB_GLCD_VSyncInterruptDisable
                0x00000000        0x8 ..\..\..\..\..\..\..\..\..\..\microchip\harmony\v1_07_01\bin\framework\peripheral\PIC32MX440F256H_peripherals.a(peripheral.o)
 .text.PLIB_GLCD_VSyncInterruptIsEnabled
                0x00000000        0x8 ..\..\..\..\..\..\..\..\..\..\microchip\harmony\v1_07_01\bin\framework\peripheral\PIC32MX440F256H_peripherals.a(peripheral.o)
 .text.PLIB_GLCD_ExistsIRQTriggerControl
                0x00000000        0x8 ..\..\..\..\..\..\..\..\..\..\microchip\harmony\v1_07_01\bin\framework\peripheral\PIC32MX440F256H_peripherals.a(peripheral.o)
 .text.PLIB_GLCD_IRQTriggerControlSet
                0x00000000        0x8 ..\..\..\..\..\..\..\..\..\..\microchip\harmony\v1_07_01\bin\framework\peripheral\PIC32MX440F256H_peripherals.a(peripheral.o)
 .text.PLIB_GLCD_IRQTriggerControlGet
                0x00000000        0x8 ..\..\..\..\..\..\..\..\..\..\microchip\harmony\v1_07_01\bin\framework\peripheral\PIC32MX440F256H_peripherals.a(peripheral.o)
 .text.PLIB_GLCD_ExistsIsVerticalBlankingActive
                0x00000000        0x8 ..\..\..\..\..\..\..\..\..\..\microchip\harmony\v1_07_01\bin\framework\peripheral\PIC32MX440F256H_peripherals.a(peripheral.o)
 .text.PLIB_GLCD_IsVerticalBlankingActive
                0x00000000        0x8 ..\..\..\..\..\..\..\..\..\..\microchip\harmony\v1_07_01\bin\framework\peripheral\PIC32MX440F256H_peripherals.a(peripheral.o)
 .text.PLIB_GLCD_ExistsDESignalLevel
                0x00000000        0x8 ..\..\..\..\..\..\..\..\..\..\microchip\harmony\v1_07_01\bin\framework\peripheral\PIC32MX440F256H_peripherals.a(peripheral.o)
 .text.PLIB_GLCD_DESignalLevelGet
                0x00000000        0x8 ..\..\..\..\..\..\..\..\..\..\microchip\harmony\v1_07_01\bin\framework\peripheral\PIC32MX440F256H_peripherals.a(peripheral.o)
 .text.PLIB_GLCD_ExistsHSyncSignalLevel
                0x00000000        0x8 ..\..\..\..\..\..\..\..\..\..\microchip\harmony\v1_07_01\bin\framework\peripheral\PIC32MX440F256H_peripherals.a(peripheral.o)
 .text.PLIB_GLCD_HSyncSignalLevelGet
                0x00000000        0x8 ..\..\..\..\..\..\..\..\..\..\microchip\harmony\v1_07_01\bin\framework\peripheral\PIC32MX440F256H_peripherals.a(peripheral.o)
 .text.PLIB_GLCD_ExistsVSyncSignalLevel
                0x00000000        0x8 ..\..\..\..\..\..\..\..\..\..\microchip\harmony\v1_07_01\bin\framework\peripheral\PIC32MX440F256H_peripherals.a(peripheral.o)
 .text.PLIB_GLCD_VSyncSignalLevelGet
                0x00000000        0x8 ..\..\..\..\..\..\..\..\..\..\microchip\harmony\v1_07_01\bin\framework\peripheral\PIC32MX440F256H_peripherals.a(peripheral.o)
 .text.PLIB_GLCD_ExistsIsLastRow
                0x00000000        0x8 ..\..\..\..\..\..\..\..\..\..\microchip\harmony\v1_07_01\bin\framework\peripheral\PIC32MX440F256H_peripherals.a(peripheral.o)
 .text.PLIB_GLCD_IsLastRow
                0x00000000        0x8 ..\..\..\..\..\..\..\..\..\..\microchip\harmony\v1_07_01\bin\framework\peripheral\PIC32MX440F256H_peripherals.a(peripheral.o)
 .text.PLIB_GLCD_ExistsGlobalColorLUT
                0x00000000        0x8 ..\..\..\..\..\..\..\..\..\..\microchip\harmony\v1_07_01\bin\framework\peripheral\PIC32MX440F256H_peripherals.a(peripheral.o)
 .text.PLIB_GLCD_GlobalColorLUTSet
                0x00000000        0x8 ..\..\..\..\..\..\..\..\..\..\microchip\harmony\v1_07_01\bin\framework\peripheral\PIC32MX440F256H_peripherals.a(peripheral.o)
 .text.PLIB_GLCD_GlobalColorLUTGet
                0x00000000        0x8 ..\..\..\..\..\..\..\..\..\..\microchip\harmony\v1_07_01\bin\framework\peripheral\PIC32MX440F256H_peripherals.a(peripheral.o)
 .text.PLIB_GLCD_ExistsCursorData
                0x00000000        0x8 ..\..\..\..\..\..\..\..\..\..\microchip\harmony\v1_07_01\bin\framework\peripheral\PIC32MX440F256H_peripherals.a(peripheral.o)
 .text.PLIB_GLCD_CursorDataSet
                0x00000000        0x8 ..\..\..\..\..\..\..\..\..\..\microchip\harmony\v1_07_01\bin\framework\peripheral\PIC32MX440F256H_peripherals.a(peripheral.o)
 .text.PLIB_GLCD_CursorDataGet
                0x00000000        0x8 ..\..\..\..\..\..\..\..\..\..\microchip\harmony\v1_07_01\bin\framework\peripheral\PIC32MX440F256H_peripherals.a(peripheral.o)
 .text.PLIB_GLCD_ExistsCursorLUT
                0x00000000        0x8 ..\..\..\..\..\..\..\..\..\..\microchip\harmony\v1_07_01\bin\framework\peripheral\PIC32MX440F256H_peripherals.a(peripheral.o)
 .text.PLIB_GLCD_CursorLUTSet
                0x00000000        0x8 ..\..\..\..\..\..\..\..\..\..\microchip\harmony\v1_07_01\bin\framework\peripheral\PIC32MX440F256H_peripherals.a(peripheral.o)
 .text.PLIB_GLCD_CursorLUTGet
                0x00000000        0x8 ..\..\..\..\..\..\..\..\..\..\microchip\harmony\v1_07_01\bin\framework\peripheral\PIC32MX440F256H_peripherals.a(peripheral.o)
 .text          0x00000000        0x0 c:/program files/microchip/xc32/v1.40/bin/bin/../../lib/gcc/pic32mx/4.8.3/../../../../pic32mx/lib/no-float\libsupc++.a(del_op.o)
 .data          0x00000000        0x0 c:/program files/microchip/xc32/v1.40/bin/bin/../../lib/gcc/pic32mx/4.8.3/../../../../pic32mx/lib/no-float\libsupc++.a(del_op.o)
 .bss           0x00000000        0x0 c:/program files/microchip/xc32/v1.40/bin/bin/../../lib/gcc/pic32mx/4.8.3/../../../../pic32mx/lib/no-float\libsupc++.a(del_op.o)
 .reginfo       0x00000000       0x18 c:/program files/microchip/xc32/v1.40/bin/bin/../../lib/gcc/pic32mx/4.8.3/../../../../pic32mx/lib/no-float\libsupc++.a(del_op.o)
 .text          0x00000000        0x0 c:/program files/microchip/xc32/v1.40/bin/bin/../../lib/gcc/pic32mx/4.8.3/../../../../pic32mx/lib/no-float\libsupc++.a(new_op.o)
 .data          0x00000000        0x0 c:/program files/microchip/xc32/v1.40/bin/bin/../../lib/gcc/pic32mx/4.8.3/../../../../pic32mx/lib/no-float\libsupc++.a(new_op.o)
 .bss           0x00000000        0x0 c:/program files/microchip/xc32/v1.40/bin/bin/../../lib/gcc/pic32mx/4.8.3/../../../../pic32mx/lib/no-float\libsupc++.a(new_op.o)
 .reginfo       0x00000000       0x18 c:/program files/microchip/xc32/v1.40/bin/bin/../../lib/gcc/pic32mx/4.8.3/../../../../pic32mx/lib/no-float\libsupc++.a(new_op.o)
 .text          0x00000000        0x0 c:/program files/microchip/xc32/v1.40/bin/bin/../../lib/gcc/pic32mx/4.8.3/../../../../pic32mx/lib/no-float\libsupc++.a(pure.o)
 .data          0x00000000        0x0 c:/program files/microchip/xc32/v1.40/bin/bin/../../lib/gcc/pic32mx/4.8.3/../../../../pic32mx/lib/no-float\libsupc++.a(pure.o)
 .bss           0x00000000        0x0 c:/program files/microchip/xc32/v1.40/bin/bin/../../lib/gcc/pic32mx/4.8.3/../../../../pic32mx/lib/no-float\libsupc++.a(pure.o)
 .reginfo       0x00000000       0x18 c:/program files/microchip/xc32/v1.40/bin/bin/../../lib/gcc/pic32mx/4.8.3/../../../../pic32mx/lib/no-float\libsupc++.a(pure.o)
 .text.__cxa_deleted_virtual
                0x00000000       0x10 c:/program files/microchip/xc32/v1.40/bin/bin/../../lib/gcc/pic32mx/4.8.3/../../../../pic32mx/lib/no-float\libsupc++.a(pure.o)
 .rodata._ZN10__cxxabiv1L29__gxx_primary_exception_classE.__gxx_primary_exception_class
                0x00000000        0x8 c:/program files/microchip/xc32/v1.40/bin/bin/../../lib/gcc/pic32mx/4.8.3/../../../../pic32mx/lib/no-float\libsupc++.a(pure.o)
 .rodata._ZN10__cxxabiv1L31__gxx_dependent_exception_classE.__gxx_dependent_exception_class
                0x00000000        0x8 c:/program files/microchip/xc32/v1.40/bin/bin/../../lib/gcc/pic32mx/4.8.3/../../../../pic32mx/lib/no-float\libsupc++.a(pure.o)
 .text          0x00000000        0x0 c:/program files/microchip/xc32/v1.40/bin/bin/../../lib/gcc/pic32mx/4.8.3/../../../../pic32mx/lib/no-float\libsupc++.a(bad_alloc.o)
 .data          0x00000000        0x0 c:/program files/microchip/xc32/v1.40/bin/bin/../../lib/gcc/pic32mx/4.8.3/../../../../pic32mx/lib/no-float\libsupc++.a(bad_alloc.o)
 .bss           0x00000000        0x0 c:/program files/microchip/xc32/v1.40/bin/bin/../../lib/gcc/pic32mx/4.8.3/../../../../pic32mx/lib/no-float\libsupc++.a(bad_alloc.o)
 .reginfo       0x00000000       0x18 c:/program files/microchip/xc32/v1.40/bin/bin/../../lib/gcc/pic32mx/4.8.3/../../../../pic32mx/lib/no-float\libsupc++.a(bad_alloc.o)
 .text          0x00000000        0x0 c:/program files/microchip/xc32/v1.40/bin/bin/../../lib/gcc/pic32mx/4.8.3/../../../../pic32mx/lib/no-float\libsupc++.a(eh_alloc.o)
 .data          0x00000000        0x0 c:/program files/microchip/xc32/v1.40/bin/bin/../../lib/gcc/pic32mx/4.8.3/../../../../pic32mx/lib/no-float\libsupc++.a(eh_alloc.o)
 .bss           0x00000000        0x0 c:/program files/microchip/xc32/v1.40/bin/bin/../../lib/gcc/pic32mx/4.8.3/../../../../pic32mx/lib/no-float\libsupc++.a(eh_alloc.o)
 .reginfo       0x00000000       0x18 c:/program files/microchip/xc32/v1.40/bin/bin/../../lib/gcc/pic32mx/4.8.3/../../../../pic32mx/lib/no-float\libsupc++.a(eh_alloc.o)
 .bss._ZL17dependents_buffer.dependents_buffer
                0x00000000      0x100 c:/program files/microchip/xc32/v1.40/bin/bin/../../lib/gcc/pic32mx/4.8.3/../../../../pic32mx/lib/no-float\libsupc++.a(eh_alloc.o)
 .bss._ZL15dependents_used.dependents_used
                0x00000000        0x4 c:/program files/microchip/xc32/v1.40/bin/bin/../../lib/gcc/pic32mx/4.8.3/../../../../pic32mx/lib/no-float\libsupc++.a(eh_alloc.o)
 .bss._ZN12_GLOBAL__N_115emergency_mutexE.emergency_mutex
                0x00000000        0x4 c:/program files/microchip/xc32/v1.40/bin/bin/../../lib/gcc/pic32mx/4.8.3/../../../../pic32mx/lib/no-float\libsupc++.a(eh_alloc.o)
 .text.__cxa_allocate_dependent_exception
                0x00000000       0x90 c:/program files/microchip/xc32/v1.40/bin/bin/../../lib/gcc/pic32mx/4.8.3/../../../../pic32mx/lib/no-float\libsupc++.a(eh_alloc.o)
 .text.__cxa_free_dependent_exception
                0x00000000       0x6c c:/program files/microchip/xc32/v1.40/bin/bin/../../lib/gcc/pic32mx/4.8.3/../../../../pic32mx/lib/no-float\libsupc++.a(eh_alloc.o)
 .rodata._ZN10__cxxabiv1L29__gxx_primary_exception_classE.__gxx_primary_exception_class
                0x00000000        0x8 c:/program files/microchip/xc32/v1.40/bin/bin/../../lib/gcc/pic32mx/4.8.3/../../../../pic32mx/lib/no-float\libsupc++.a(eh_alloc.o)
 .rodata._ZN10__cxxabiv1L31__gxx_dependent_exception_classE.__gxx_dependent_exception_class
                0x00000000        0x8 c:/program files/microchip/xc32/v1.40/bin/bin/../../lib/gcc/pic32mx/4.8.3/../../../../pic32mx/lib/no-float\libsupc++.a(eh_alloc.o)
 .text          0x00000000        0x0 c:/program files/microchip/xc32/v1.40/bin/bin/../../lib/gcc/pic32mx/4.8.3/../../../../pic32mx/lib/no-float\libsupc++.a(eh_exception.o)
 .data          0x00000000        0x0 c:/program files/microchip/xc32/v1.40/bin/bin/../../lib/gcc/pic32mx/4.8.3/../../../../pic32mx/lib/no-float\libsupc++.a(eh_exception.o)
 .bss           0x00000000        0x0 c:/program files/microchip/xc32/v1.40/bin/bin/../../lib/gcc/pic32mx/4.8.3/../../../../pic32mx/lib/no-float\libsupc++.a(eh_exception.o)
 .reginfo       0x00000000       0x18 c:/program files/microchip/xc32/v1.40/bin/bin/../../lib/gcc/pic32mx/4.8.3/../../../../pic32mx/lib/no-float\libsupc++.a(eh_exception.o)
 .text._ZNSt13bad_exceptionD2Ev
                0x00000000       0x10 c:/program files/microchip/xc32/v1.40/bin/bin/../../lib/gcc/pic32mx/4.8.3/../../../../pic32mx/lib/no-float\libsupc++.a(eh_exception.o)
 .text._ZNSt13bad_exceptionD0Ev
                0x00000000       0x24 c:/program files/microchip/xc32/v1.40/bin/bin/../../lib/gcc/pic32mx/4.8.3/../../../../pic32mx/lib/no-float\libsupc++.a(eh_exception.o)
 .text._ZN10__cxxabiv115__forced_unwindD2Ev
                0x00000000       0x10 c:/program files/microchip/xc32/v1.40/bin/bin/../../lib/gcc/pic32mx/4.8.3/../../../../pic32mx/lib/no-float\libsupc++.a(eh_exception.o)
 .text._ZN10__cxxabiv115__forced_unwindD0Ev
                0x00000000       0x24 c:/program files/microchip/xc32/v1.40/bin/bin/../../lib/gcc/pic32mx/4.8.3/../../../../pic32mx/lib/no-float\libsupc++.a(eh_exception.o)
 .text._ZN10__cxxabiv119__foreign_exceptionD2Ev
                0x00000000       0x10 c:/program files/microchip/xc32/v1.40/bin/bin/../../lib/gcc/pic32mx/4.8.3/../../../../pic32mx/lib/no-float\libsupc++.a(eh_exception.o)
 .text._ZN10__cxxabiv119__foreign_exceptionD0Ev
                0x00000000       0x24 c:/program files/microchip/xc32/v1.40/bin/bin/../../lib/gcc/pic32mx/4.8.3/../../../../pic32mx/lib/no-float\libsupc++.a(eh_exception.o)
 .text._ZNKSt13bad_exception4whatEv
                0x00000000        0xc c:/program files/microchip/xc32/v1.40/bin/bin/../../lib/gcc/pic32mx/4.8.3/../../../../pic32mx/lib/no-float\libsupc++.a(eh_exception.o)
 .gnu.linkonce.r._ZTVN10__cxxabiv119__foreign_exceptionE._ZTVN10__cxxabiv119__foreign_exceptionE
                0x00000000       0x14 c:/program files/microchip/xc32/v1.40/bin/bin/../../lib/gcc/pic32mx/4.8.3/../../../../pic32mx/lib/no-float\libsupc++.a(eh_exception.o)
 .gnu.linkonce.r._ZTVN10__cxxabiv115__forced_unwindE._ZTVN10__cxxabiv115__forced_unwindE
                0x00000000       0x14 c:/program files/microchip/xc32/v1.40/bin/bin/../../lib/gcc/pic32mx/4.8.3/../../../../pic32mx/lib/no-float\libsupc++.a(eh_exception.o)
 .gnu.linkonce.r._ZTVSt13bad_exception._ZTVSt13bad_exception
                0x00000000       0x14 c:/program files/microchip/xc32/v1.40/bin/bin/../../lib/gcc/pic32mx/4.8.3/../../../../pic32mx/lib/no-float\libsupc++.a(eh_exception.o)
 .gnu.linkonce.r._ZTISt13bad_exception._ZTISt13bad_exception
                0x00000000        0xc c:/program files/microchip/xc32/v1.40/bin/bin/../../lib/gcc/pic32mx/4.8.3/../../../../pic32mx/lib/no-float\libsupc++.a(eh_exception.o)
 .gnu.linkonce.r._ZTSSt13bad_exception._ZTSSt13bad_exception
                0x00000000       0x14 c:/program files/microchip/xc32/v1.40/bin/bin/../../lib/gcc/pic32mx/4.8.3/../../../../pic32mx/lib/no-float\libsupc++.a(eh_exception.o)
 .text          0x00000000        0x0 c:/program files/microchip/xc32/v1.40/bin/bin/../../lib/gcc/pic32mx/4.8.3/../../../../pic32mx/lib/no-float\libsupc++.a(eh_terminate.o)
 .data          0x00000000        0x0 c:/program files/microchip/xc32/v1.40/bin/bin/../../lib/gcc/pic32mx/4.8.3/../../../../pic32mx/lib/no-float\libsupc++.a(eh_terminate.o)
 .bss           0x00000000        0x0 c:/program files/microchip/xc32/v1.40/bin/bin/../../lib/gcc/pic32mx/4.8.3/../../../../pic32mx/lib/no-float\libsupc++.a(eh_terminate.o)
 .reginfo       0x00000000       0x18 c:/program files/microchip/xc32/v1.40/bin/bin/../../lib/gcc/pic32mx/4.8.3/../../../../pic32mx/lib/no-float\libsupc++.a(eh_terminate.o)
 .text._ZSt13set_terminatePFvvE
                0x00000000       0x10 c:/program files/microchip/xc32/v1.40/bin/bin/../../lib/gcc/pic32mx/4.8.3/../../../../pic32mx/lib/no-float\libsupc++.a(eh_terminate.o)
 .text._ZSt14set_unexpectedPFvvE
                0x00000000       0x10 c:/program files/microchip/xc32/v1.40/bin/bin/../../lib/gcc/pic32mx/4.8.3/../../../../pic32mx/lib/no-float\libsupc++.a(eh_terminate.o)
 .rodata._ZN10__cxxabiv1L29__gxx_primary_exception_classE.__gxx_primary_exception_class
                0x00000000        0x8 c:/program files/microchip/xc32/v1.40/bin/bin/../../lib/gcc/pic32mx/4.8.3/../../../../pic32mx/lib/no-float\libsupc++.a(eh_terminate.o)
 .rodata._ZN10__cxxabiv1L31__gxx_dependent_exception_classE.__gxx_dependent_exception_class
                0x00000000        0x8 c:/program files/microchip/xc32/v1.40/bin/bin/../../lib/gcc/pic32mx/4.8.3/../../../../pic32mx/lib/no-float\libsupc++.a(eh_terminate.o)
 .gnu.linkonce.d.DW.ref.__gxx_personality_sj0.DW.ref.__gxx_personality_sj0
                0x00000000        0x4 c:/program files/microchip/xc32/v1.40/bin/bin/../../lib/gcc/pic32mx/4.8.3/../../../../pic32mx/lib/no-float\libsupc++.a(eh_terminate.o)
 .text          0x00000000        0x0 c:/program files/microchip/xc32/v1.40/bin/bin/../../lib/gcc/pic32mx/4.8.3/../../../../pic32mx/lib/no-float\libsupc++.a(eh_throw.o)
 .data          0x00000000        0x0 c:/program files/microchip/xc32/v1.40/bin/bin/../../lib/gcc/pic32mx/4.8.3/../../../../pic32mx/lib/no-float\libsupc++.a(eh_throw.o)
 .bss           0x00000000        0x0 c:/program files/microchip/xc32/v1.40/bin/bin/../../lib/gcc/pic32mx/4.8.3/../../../../pic32mx/lib/no-float\libsupc++.a(eh_throw.o)
 .reginfo       0x00000000       0x18 c:/program files/microchip/xc32/v1.40/bin/bin/../../lib/gcc/pic32mx/4.8.3/../../../../pic32mx/lib/no-float\libsupc++.a(eh_throw.o)
 .text.__cxa_rethrow
                0x00000000       0x8c c:/program files/microchip/xc32/v1.40/bin/bin/../../lib/gcc/pic32mx/4.8.3/../../../../pic32mx/lib/no-float\libsupc++.a(eh_throw.o)
 .rodata._ZN10__cxxabiv1L29__gxx_primary_exception_classE.__gxx_primary_exception_class
                0x00000000        0x8 c:/program files/microchip/xc32/v1.40/bin/bin/../../lib/gcc/pic32mx/4.8.3/../../../../pic32mx/lib/no-float\libsupc++.a(eh_throw.o)
 .rodata._ZN10__cxxabiv1L31__gxx_dependent_exception_classE.__gxx_dependent_exception_class
                0x00000000        0x8 c:/program files/microchip/xc32/v1.40/bin/bin/../../lib/gcc/pic32mx/4.8.3/../../../../pic32mx/lib/no-float\libsupc++.a(eh_throw.o)
 .text          0x00000000        0x0 c:/program files/microchip/xc32/v1.40/bin/bin/../../lib/gcc/pic32mx/4.8.3/../../../../pic32mx/lib/no-float\libsupc++.a(eh_unex_handler.o)
 .data          0x00000000        0x0 c:/program files/microchip/xc32/v1.40/bin/bin/../../lib/gcc/pic32mx/4.8.3/../../../../pic32mx/lib/no-float\libsupc++.a(eh_unex_handler.o)
 .bss           0x00000000        0x0 c:/program files/microchip/xc32/v1.40/bin/bin/../../lib/gcc/pic32mx/4.8.3/../../../../pic32mx/lib/no-float\libsupc++.a(eh_unex_handler.o)
 .reginfo       0x00000000       0x18 c:/program files/microchip/xc32/v1.40/bin/bin/../../lib/gcc/pic32mx/4.8.3/../../../../pic32mx/lib/no-float\libsupc++.a(eh_unex_handler.o)
 .rodata._ZN10__cxxabiv1L29__gxx_primary_exception_classE.__gxx_primary_exception_class
                0x00000000        0x8 c:/program files/microchip/xc32/v1.40/bin/bin/../../lib/gcc/pic32mx/4.8.3/../../../../pic32mx/lib/no-float\libsupc++.a(eh_unex_handler.o)
 .rodata._ZN10__cxxabiv1L31__gxx_dependent_exception_classE.__gxx_dependent_exception_class
                0x00000000        0x8 c:/program files/microchip/xc32/v1.40/bin/bin/../../lib/gcc/pic32mx/4.8.3/../../../../pic32mx/lib/no-float\libsupc++.a(eh_unex_handler.o)
 .text          0x00000000        0x0 c:/program files/microchip/xc32/v1.40/bin/bin/../../lib/gcc/pic32mx/4.8.3/../../../../pic32mx/lib/no-float\libsupc++.a(new_handler.o)
 .data          0x00000000        0x0 c:/program files/microchip/xc32/v1.40/bin/bin/../../lib/gcc/pic32mx/4.8.3/../../../../pic32mx/lib/no-float\libsupc++.a(new_handler.o)
 .bss           0x00000000        0x0 c:/program files/microchip/xc32/v1.40/bin/bin/../../lib/gcc/pic32mx/4.8.3/../../../../pic32mx/lib/no-float\libsupc++.a(new_handler.o)
 .reginfo       0x00000000       0x18 c:/program files/microchip/xc32/v1.40/bin/bin/../../lib/gcc/pic32mx/4.8.3/../../../../pic32mx/lib/no-float\libsupc++.a(new_handler.o)
 .rodata._ZSt7nothrow.nothrow
                0x00000000        0x4 c:/program files/microchip/xc32/v1.40/bin/bin/../../lib/gcc/pic32mx/4.8.3/../../../../pic32mx/lib/no-float\libsupc++.a(new_handler.o)
 .text._ZSt15set_new_handlerPFvvE
                0x00000000       0x10 c:/program files/microchip/xc32/v1.40/bin/bin/../../lib/gcc/pic32mx/4.8.3/../../../../pic32mx/lib/no-float\libsupc++.a(new_handler.o)
 .text          0x00000000        0x0 c:/program files/microchip/xc32/v1.40/bin/bin/../../lib/gcc/pic32mx/4.8.3/../../../../pic32mx/lib/no-float\libsupc++.a(si_class_type_info.o)
 .data          0x00000000        0x0 c:/program files/microchip/xc32/v1.40/bin/bin/../../lib/gcc/pic32mx/4.8.3/../../../../pic32mx/lib/no-float\libsupc++.a(si_class_type_info.o)
 .bss           0x00000000        0x0 c:/program files/microchip/xc32/v1.40/bin/bin/../../lib/gcc/pic32mx/4.8.3/../../../../pic32mx/lib/no-float\libsupc++.a(si_class_type_info.o)
 .reginfo       0x00000000       0x18 c:/program files/microchip/xc32/v1.40/bin/bin/../../lib/gcc/pic32mx/4.8.3/../../../../pic32mx/lib/no-float\libsupc++.a(si_class_type_info.o)
 .text          0x00000000        0x0 c:/program files/microchip/xc32/v1.40/bin/bin/../../lib/gcc/pic32mx/4.8.3/../../../../pic32mx/lib/no-float\libsupc++.a(tinfo.o)
 .data          0x00000000        0x0 c:/program files/microchip/xc32/v1.40/bin/bin/../../lib/gcc/pic32mx/4.8.3/../../../../pic32mx/lib/no-float\libsupc++.a(tinfo.o)
 .bss           0x00000000        0x0 c:/program files/microchip/xc32/v1.40/bin/bin/../../lib/gcc/pic32mx/4.8.3/../../../../pic32mx/lib/no-float\libsupc++.a(tinfo.o)
 .reginfo       0x00000000       0x18 c:/program files/microchip/xc32/v1.40/bin/bin/../../lib/gcc/pic32mx/4.8.3/../../../../pic32mx/lib/no-float\libsupc++.a(tinfo.o)
 .text          0x00000000        0x0 c:/program files/microchip/xc32/v1.40/bin/bin/../../lib/gcc/pic32mx/4.8.3/../../../../pic32mx/lib/no-float\libsupc++.a(class_type_info.o)
 .data          0x00000000        0x0 c:/program files/microchip/xc32/v1.40/bin/bin/../../lib/gcc/pic32mx/4.8.3/../../../../pic32mx/lib/no-float\libsupc++.a(class_type_info.o)
 .bss           0x00000000        0x0 c:/program files/microchip/xc32/v1.40/bin/bin/../../lib/gcc/pic32mx/4.8.3/../../../../pic32mx/lib/no-float\libsupc++.a(class_type_info.o)
 .reginfo       0x00000000       0x18 c:/program files/microchip/xc32/v1.40/bin/bin/../../lib/gcc/pic32mx/4.8.3/../../../../pic32mx/lib/no-float\libsupc++.a(class_type_info.o)
 .rodata._ZN10__cxxabiv112_GLOBAL__N_1L20nonvirtual_base_typeE.nonvirtual_base_type
                0x00000000        0x4 c:/program files/microchip/xc32/v1.40/bin/bin/../../lib/gcc/pic32mx/4.8.3/../../../../pic32mx/lib/no-float\libsupc++.a(class_type_info.o)
 .text          0x00000000        0x0 c:/program files/microchip/xc32/v1.40/bin/bin/../../lib/gcc/pic32mx/4.8.3/../../../../pic32mx/lib/no-float\libsupc++.a(eh_catch.o)
 .data          0x00000000        0x0 c:/program files/microchip/xc32/v1.40/bin/bin/../../lib/gcc/pic32mx/4.8.3/../../../../pic32mx/lib/no-float\libsupc++.a(eh_catch.o)
 .bss           0x00000000        0x0 c:/program files/microchip/xc32/v1.40/bin/bin/../../lib/gcc/pic32mx/4.8.3/../../../../pic32mx/lib/no-float\libsupc++.a(eh_catch.o)
 .reginfo       0x00000000       0x18 c:/program files/microchip/xc32/v1.40/bin/bin/../../lib/gcc/pic32mx/4.8.3/../../../../pic32mx/lib/no-float\libsupc++.a(eh_catch.o)
 .text.__cxa_get_exception_ptr
                0x00000000        0x8 c:/program files/microchip/xc32/v1.40/bin/bin/../../lib/gcc/pic32mx/4.8.3/../../../../pic32mx/lib/no-float\libsupc++.a(eh_catch.o)
 .text.__cxa_end_catch
                0x00000000       0xd0 c:/program files/microchip/xc32/v1.40/bin/bin/../../lib/gcc/pic32mx/4.8.3/../../../../pic32mx/lib/no-float\libsupc++.a(eh_catch.o)
 .text._ZSt18uncaught_exceptionv
                0x00000000       0x24 c:/program files/microchip/xc32/v1.40/bin/bin/../../lib/gcc/pic32mx/4.8.3/../../../../pic32mx/lib/no-float\libsupc++.a(eh_catch.o)
 .rodata._ZN10__cxxabiv1L29__gxx_primary_exception_classE.__gxx_primary_exception_class
                0x00000000        0x8 c:/program files/microchip/xc32/v1.40/bin/bin/../../lib/gcc/pic32mx/4.8.3/../../../../pic32mx/lib/no-float\libsupc++.a(eh_catch.o)
 .rodata._ZN10__cxxabiv1L31__gxx_dependent_exception_classE.__gxx_dependent_exception_class
                0x00000000        0x8 c:/program files/microchip/xc32/v1.40/bin/bin/../../lib/gcc/pic32mx/4.8.3/../../../../pic32mx/lib/no-float\libsupc++.a(eh_catch.o)
 .text          0x00000000        0x0 c:/program files/microchip/xc32/v1.40/bin/bin/../../lib/gcc/pic32mx/4.8.3/../../../../pic32mx/lib/no-float\libsupc++.a(eh_globals.o)
 .data          0x00000000        0x0 c:/program files/microchip/xc32/v1.40/bin/bin/../../lib/gcc/pic32mx/4.8.3/../../../../pic32mx/lib/no-float\libsupc++.a(eh_globals.o)
 .bss           0x00000000        0x0 c:/program files/microchip/xc32/v1.40/bin/bin/../../lib/gcc/pic32mx/4.8.3/../../../../pic32mx/lib/no-float\libsupc++.a(eh_globals.o)
 .reginfo       0x00000000       0x18 c:/program files/microchip/xc32/v1.40/bin/bin/../../lib/gcc/pic32mx/4.8.3/../../../../pic32mx/lib/no-float\libsupc++.a(eh_globals.o)
 .text.__cxa_get_globals_fast
                0x00000000        0xc c:/program files/microchip/xc32/v1.40/bin/bin/../../lib/gcc/pic32mx/4.8.3/../../../../pic32mx/lib/no-float\libsupc++.a(eh_globals.o)
 .rodata._ZN10__cxxabiv1L29__gxx_primary_exception_classE.__gxx_primary_exception_class
                0x00000000        0x8 c:/program files/microchip/xc32/v1.40/bin/bin/../../lib/gcc/pic32mx/4.8.3/../../../../pic32mx/lib/no-float\libsupc++.a(eh_globals.o)
 .rodata._ZN10__cxxabiv1L31__gxx_dependent_exception_classE.__gxx_dependent_exception_class
                0x00000000        0x8 c:/program files/microchip/xc32/v1.40/bin/bin/../../lib/gcc/pic32mx/4.8.3/../../../../pic32mx/lib/no-float\libsupc++.a(eh_globals.o)
 .text          0x00000000        0x0 c:/program files/microchip/xc32/v1.40/bin/bin/../../lib/gcc/pic32mx/4.8.3/../../../../pic32mx/lib/no-float\libsupc++.a(eh_personality.o)
 .data          0x00000000        0x0 c:/program files/microchip/xc32/v1.40/bin/bin/../../lib/gcc/pic32mx/4.8.3/../../../../pic32mx/lib/no-float\libsupc++.a(eh_personality.o)
 .bss           0x00000000        0x0 c:/program files/microchip/xc32/v1.40/bin/bin/../../lib/gcc/pic32mx/4.8.3/../../../../pic32mx/lib/no-float\libsupc++.a(eh_personality.o)
 .reginfo       0x00000000       0x18 c:/program files/microchip/xc32/v1.40/bin/bin/../../lib/gcc/pic32mx/4.8.3/../../../../pic32mx/lib/no-float\libsupc++.a(eh_personality.o)
 .text._ZL28check_compact_exception_specPKSt9type_infoPvPKhij
                0x00000000      0x190 c:/program files/microchip/xc32/v1.40/bin/bin/../../lib/gcc/pic32mx/4.8.3/../../../../pic32mx/lib/no-float\libsupc++.a(eh_personality.o)
 .text.__cxa_call_unexpected
                0x00000000      0x240 c:/program files/microchip/xc32/v1.40/bin/bin/../../lib/gcc/pic32mx/4.8.3/../../../../pic32mx/lib/no-float\libsupc++.a(eh_personality.o)
 .rodata._ZN10__cxxabiv1L29__gxx_primary_exception_classE.__gxx_primary_exception_class
                0x00000000        0x8 c:/program files/microchip/xc32/v1.40/bin/bin/../../lib/gcc/pic32mx/4.8.3/../../../../pic32mx/lib/no-float\libsupc++.a(eh_personality.o)
 .rodata._ZN10__cxxabiv1L31__gxx_dependent_exception_classE.__gxx_dependent_exception_class
                0x00000000        0x8 c:/program files/microchip/xc32/v1.40/bin/bin/../../lib/gcc/pic32mx/4.8.3/../../../../pic32mx/lib/no-float\libsupc++.a(eh_personality.o)
 .gnu.linkonce.d.DW.ref.__gxx_personality_sj0.DW.ref.__gxx_personality_sj0
                0x00000000        0x4 c:/program files/microchip/xc32/v1.40/bin/bin/../../lib/gcc/pic32mx/4.8.3/../../../../pic32mx/lib/no-float\libsupc++.a(eh_personality.o)
 .text          0x00000000        0x0 c:/program files/microchip/xc32/v1.40/bin/bin/../../lib/gcc/pic32mx/4.8.3/../../../../pic32mx/lib/no-float\libsupc++.a(eh_term_handler.o)
 .data          0x00000000        0x0 c:/program files/microchip/xc32/v1.40/bin/bin/../../lib/gcc/pic32mx/4.8.3/../../../../pic32mx/lib/no-float\libsupc++.a(eh_term_handler.o)
 .bss           0x00000000        0x0 c:/program files/microchip/xc32/v1.40/bin/bin/../../lib/gcc/pic32mx/4.8.3/../../../../pic32mx/lib/no-float\libsupc++.a(eh_term_handler.o)
 .reginfo       0x00000000       0x18 c:/program files/microchip/xc32/v1.40/bin/bin/../../lib/gcc/pic32mx/4.8.3/../../../../pic32mx/lib/no-float\libsupc++.a(eh_term_handler.o)
 .rodata._ZN10__cxxabiv1L29__gxx_primary_exception_classE.__gxx_primary_exception_class
                0x00000000        0x8 c:/program files/microchip/xc32/v1.40/bin/bin/../../lib/gcc/pic32mx/4.8.3/../../../../pic32mx/lib/no-float\libsupc++.a(eh_term_handler.o)
 .rodata._ZN10__cxxabiv1L31__gxx_dependent_exception_classE.__gxx_dependent_exception_class
                0x00000000        0x8 c:/program files/microchip/xc32/v1.40/bin/bin/../../lib/gcc/pic32mx/4.8.3/../../../../pic32mx/lib/no-float\libsupc++.a(eh_term_handler.o)
 .text          0x00000000        0x0 c:/program files/microchip/xc32/v1.40/bin/bin/../../lib/gcc/pic32mx/4.8.3/../../../../pic32mx/lib/no-float\libsupc++.a(eh_call.o)
 .data          0x00000000        0x0 c:/program files/microchip/xc32/v1.40/bin/bin/../../lib/gcc/pic32mx/4.8.3/../../../../pic32mx/lib/no-float\libsupc++.a(eh_call.o)
 .bss           0x00000000        0x0 c:/program files/microchip/xc32/v1.40/bin/bin/../../lib/gcc/pic32mx/4.8.3/../../../../pic32mx/lib/no-float\libsupc++.a(eh_call.o)
 .reginfo       0x00000000       0x18 c:/program files/microchip/xc32/v1.40/bin/bin/../../lib/gcc/pic32mx/4.8.3/../../../../pic32mx/lib/no-float\libsupc++.a(eh_call.o)
 .rodata._ZN10__cxxabiv1L29__gxx_primary_exception_classE.__gxx_primary_exception_class
                0x00000000        0x8 c:/program files/microchip/xc32/v1.40/bin/bin/../../lib/gcc/pic32mx/4.8.3/../../../../pic32mx/lib/no-float\libsupc++.a(eh_call.o)
 .rodata._ZN10__cxxabiv1L31__gxx_dependent_exception_classE.__gxx_dependent_exception_class
                0x00000000        0x8 c:/program files/microchip/xc32/v1.40/bin/bin/../../lib/gcc/pic32mx/4.8.3/../../../../pic32mx/lib/no-float\libsupc++.a(eh_call.o)
 .text          0x00000000        0x0 c:/program files/microchip/xc32/v1.40/bin/bin/../../lib/gcc/pic32mx/4.8.3/../../../../pic32mx/lib/no-float\libxcpp.a(abort.o)
 .data          0x00000000        0x0 c:/program files/microchip/xc32/v1.40/bin/bin/../../lib/gcc/pic32mx/4.8.3/../../../../pic32mx/lib/no-float\libxcpp.a(abort.o)
 .bss           0x00000000        0x0 c:/program files/microchip/xc32/v1.40/bin/bin/../../lib/gcc/pic32mx/4.8.3/../../../../pic32mx/lib/no-float\libxcpp.a(abort.o)
 .reginfo       0x00000000       0x18 c:/program files/microchip/xc32/v1.40/bin/bin/../../lib/gcc/pic32mx/4.8.3/../../../../pic32mx/lib/no-float\libxcpp.a(abort.o)
 .text          0x00000000        0x0 c:/program files/microchip/xc32/v1.40/bin/bin/../../lib/gcc/pic32mx/4.8.3/../../../../pic32mx/lib/no-float\libxcpp.a(abs.o)
 .data          0x00000000        0x0 c:/program files/microchip/xc32/v1.40/bin/bin/../../lib/gcc/pic32mx/4.8.3/../../../../pic32mx/lib/no-float\libxcpp.a(abs.o)
 .bss           0x00000000        0x0 c:/program files/microchip/xc32/v1.40/bin/bin/../../lib/gcc/pic32mx/4.8.3/../../../../pic32mx/lib/no-float\libxcpp.a(abs.o)
 .reginfo       0x00000000       0x18 c:/program files/microchip/xc32/v1.40/bin/bin/../../lib/gcc/pic32mx/4.8.3/../../../../pic32mx/lib/no-float\libxcpp.a(abs.o)
 .text.abs      0x00000000       0x10 c:/program files/microchip/xc32/v1.40/bin/bin/../../lib/gcc/pic32mx/4.8.3/../../../../pic32mx/lib/no-float\libxcpp.a(abs.o)
 .text          0x00000000        0x0 c:/program files/microchip/xc32/v1.40/bin/bin/../../lib/gcc/pic32mx/4.8.3/../../../../pic32mx/lib/no-float\libxcpp.a(exit.o)
 .reginfo       0x00000000       0x18 c:/program files/microchip/xc32/v1.40/bin/bin/../../lib/gcc/pic32mx/4.8.3/../../../../pic32mx/lib/no-float\libxcpp.a(exit.o)
 .text._Atrealloc
                0x00000000      0x108 c:/program files/microchip/xc32/v1.40/bin/bin/../../lib/gcc/pic32mx/4.8.3/../../../../pic32mx/lib/no-float\libxcpp.a(exit.o)
 .text.atexit   0x00000000       0x7c c:/program files/microchip/xc32/v1.40/bin/bin/../../lib/gcc/pic32mx/4.8.3/../../../../pic32mx/lib/no-float\libxcpp.a(exit.o)
 .text          0x00000000        0x0 c:/program files/microchip/xc32/v1.40/bin/bin/../../lib/gcc/pic32mx/4.8.3/../../../../pic32mx/lib/no-float\libxcpp.a(free.o)
 .data          0x00000000        0x0 c:/program files/microchip/xc32/v1.40/bin/bin/../../lib/gcc/pic32mx/4.8.3/../../../../pic32mx/lib/no-float\libxcpp.a(free.o)
 .bss           0x00000000        0x0 c:/program files/microchip/xc32/v1.40/bin/bin/../../lib/gcc/pic32mx/4.8.3/../../../../pic32mx/lib/no-float\libxcpp.a(free.o)
 .reginfo       0x00000000       0x18 c:/program files/microchip/xc32/v1.40/bin/bin/../../lib/gcc/pic32mx/4.8.3/../../../../pic32mx/lib/no-float\libxcpp.a(free.o)
 .text          0x00000000        0x0 c:/program files/microchip/xc32/v1.40/bin/bin/../../lib/gcc/pic32mx/4.8.3/../../../../pic32mx/lib/no-float\libxcpp.a(malloc.o)
 .reginfo       0x00000000       0x18 c:/program files/microchip/xc32/v1.40/bin/bin/../../lib/gcc/pic32mx/4.8.3/../../../../pic32mx/lib/no-float\libxcpp.a(malloc.o)
 .text          0x00000000        0x0 c:/program files/microchip/xc32/v1.40/bin/bin/../../lib/gcc/pic32mx/4.8.3/../../../../pic32mx/lib/no-float\libxcpp.a(memcpy.o)
 .data          0x00000000        0x0 c:/program files/microchip/xc32/v1.40/bin/bin/../../lib/gcc/pic32mx/4.8.3/../../../../pic32mx/lib/no-float\libxcpp.a(memcpy.o)
 .bss           0x00000000        0x0 c:/program files/microchip/xc32/v1.40/bin/bin/../../lib/gcc/pic32mx/4.8.3/../../../../pic32mx/lib/no-float\libxcpp.a(memcpy.o)
 .reginfo       0x00000000       0x18 c:/program files/microchip/xc32/v1.40/bin/bin/../../lib/gcc/pic32mx/4.8.3/../../../../pic32mx/lib/no-float\libxcpp.a(memcpy.o)
 .text          0x00000000        0x0 c:/program files/microchip/xc32/v1.40/bin/bin/../../lib/gcc/pic32mx/4.8.3/../../../../pic32mx/lib/no-float\libxcpp.a(memset.o)
 .data          0x00000000        0x0 c:/program files/microchip/xc32/v1.40/bin/bin/../../lib/gcc/pic32mx/4.8.3/../../../../pic32mx/lib/no-float\libxcpp.a(memset.o)
 .bss           0x00000000        0x0 c:/program files/microchip/xc32/v1.40/bin/bin/../../lib/gcc/pic32mx/4.8.3/../../../../pic32mx/lib/no-float\libxcpp.a(memset.o)
 .reginfo       0x00000000       0x18 c:/program files/microchip/xc32/v1.40/bin/bin/../../lib/gcc/pic32mx/4.8.3/../../../../pic32mx/lib/no-float\libxcpp.a(memset.o)
 .text          0x00000000        0x0 c:/program files/microchip/xc32/v1.40/bin/bin/../../lib/gcc/pic32mx/4.8.3/../../../../pic32mx/lib/no-float\libxcpp.a(raise.o)
 .data          0x00000000        0x0 c:/program files/microchip/xc32/v1.40/bin/bin/../../lib/gcc/pic32mx/4.8.3/../../../../pic32mx/lib/no-float\libxcpp.a(raise.o)
 .bss           0x00000000        0x0 c:/program files/microchip/xc32/v1.40/bin/bin/../../lib/gcc/pic32mx/4.8.3/../../../../pic32mx/lib/no-float\libxcpp.a(raise.o)
 .reginfo       0x00000000       0x18 c:/program files/microchip/xc32/v1.40/bin/bin/../../lib/gcc/pic32mx/4.8.3/../../../../pic32mx/lib/no-float\libxcpp.a(raise.o)
 .text          0x00000000        0x0 c:/program files/microchip/xc32/v1.40/bin/bin/../../lib/gcc/pic32mx/4.8.3/../../../../pic32mx/lib/no-float\libxcpp.a(strcmp.o)
 .data          0x00000000        0x0 c:/program files/microchip/xc32/v1.40/bin/bin/../../lib/gcc/pic32mx/4.8.3/../../../../pic32mx/lib/no-float\libxcpp.a(strcmp.o)
 .bss           0x00000000        0x0 c:/program files/microchip/xc32/v1.40/bin/bin/../../lib/gcc/pic32mx/4.8.3/../../../../pic32mx/lib/no-float\libxcpp.a(strcmp.o)
 .reginfo       0x00000000       0x18 c:/program files/microchip/xc32/v1.40/bin/bin/../../lib/gcc/pic32mx/4.8.3/../../../../pic32mx/lib/no-float\libxcpp.a(strcmp.o)
 .text          0x00000000        0x0 c:/program files/microchip/xc32/v1.40/bin/bin/../../lib/gcc/pic32mx/4.8.3/../../../../pic32mx/lib/no-float\libxcpp.a(xexit.o)
 .data          0x00000000        0x0 c:/program files/microchip/xc32/v1.40/bin/bin/../../lib/gcc/pic32mx/4.8.3/../../../../pic32mx/lib/no-float\libxcpp.a(xexit.o)
 .bss           0x00000000        0x0 c:/program files/microchip/xc32/v1.40/bin/bin/../../lib/gcc/pic32mx/4.8.3/../../../../pic32mx/lib/no-float\libxcpp.a(xexit.o)
 .reginfo       0x00000000       0x18 c:/program files/microchip/xc32/v1.40/bin/bin/../../lib/gcc/pic32mx/4.8.3/../../../../pic32mx/lib/no-float\libxcpp.a(xexit.o)
 .text          0x00000000        0x0 c:/program files/microchip/xc32/v1.40/bin/bin/../../lib/gcc/pic32mx/4.8.3/../../../../pic32mx/lib/no-float\libxcpp.a(xgetmem.o)
 .data          0x00000000        0x0 c:/program files/microchip/xc32/v1.40/bin/bin/../../lib/gcc/pic32mx/4.8.3/../../../../pic32mx/lib/no-float\libxcpp.a(xgetmem.o)
 .bss           0x00000000        0x0 c:/program files/microchip/xc32/v1.40/bin/bin/../../lib/gcc/pic32mx/4.8.3/../../../../pic32mx/lib/no-float\libxcpp.a(xgetmem.o)
 .reginfo       0x00000000       0x18 c:/program files/microchip/xc32/v1.40/bin/bin/../../lib/gcc/pic32mx/4.8.3/../../../../pic32mx/lib/no-float\libxcpp.a(xgetmem.o)
 .text          0x00000000        0x0 c:/program files/microchip/xc32/v1.40/bin/bin/../../lib/gcc/pic32mx/4.8.3/../../../../pic32mx/lib/./proc/32MX440F256H\default_isr_vectors.o
 .data          0x00000000        0x0 c:/program files/microchip/xc32/v1.40/bin/bin/../../lib/gcc/pic32mx/4.8.3/../../../../pic32mx/lib/./proc/32MX440F256H\default_isr_vectors.o
 .bss           0x00000000        0x0 c:/program files/microchip/xc32/v1.40/bin/bin/../../lib/gcc/pic32mx/4.8.3/../../../../pic32mx/lib/./proc/32MX440F256H\default_isr_vectors.o
 .reginfo       0x00000000       0x18 c:/program files/microchip/xc32/v1.40/bin/bin/../../lib/gcc/pic32mx/4.8.3/../../../../pic32mx/lib/./proc/32MX440F256H\default_isr_vectors.o
 .discard       0x00000000       0xb8 c:/program files/microchip/xc32/v1.40/bin/bin/../../lib/gcc/pic32mx/4.8.3/../../../../pic32mx/lib/./proc/32MX440F256H\default_isr_vectors.o
 .data          0x00000000        0x0 c:/program files/microchip/xc32/v1.40/bin/bin/../../lib/gcc/pic32mx/4.8.3/../../../../pic32mx/lib/no-float\pic32_software_reset.o
 .bss           0x00000000        0x0 c:/program files/microchip/xc32/v1.40/bin/bin/../../lib/gcc/pic32mx/4.8.3/../../../../pic32mx/lib/no-float\pic32_software_reset.o
 .reginfo       0x00000000       0x18 c:/program files/microchip/xc32/v1.40/bin/bin/../../lib/gcc/pic32mx/4.8.3/../../../../pic32mx/lib/no-float\pic32_software_reset.o
 .text          0x00000000        0x0 c:/program files/microchip/xc32/v1.40/bin/bin/../../lib/gcc/pic32mx/4.8.3/../../../../pic32mx/lib/./proc/32MX440F256H\processor.o
 .data          0x00000000        0x0 c:/program files/microchip/xc32/v1.40/bin/bin/../../lib/gcc/pic32mx/4.8.3/../../../../pic32mx/lib/./proc/32MX440F256H\processor.o
 .bss           0x00000000        0x0 c:/program files/microchip/xc32/v1.40/bin/bin/../../lib/gcc/pic32mx/4.8.3/../../../../pic32mx/lib/./proc/32MX440F256H\processor.o
 .reginfo       0x00000000       0x18 c:/program files/microchip/xc32/v1.40/bin/bin/../../lib/gcc/pic32mx/4.8.3/../../../../pic32mx/lib/./proc/32MX440F256H\processor.o
 .data          0x00000000        0x0 c:/program files/microchip/xc32/v1.40/bin/bin/../../lib/gcc/pic32mx/4.8.3/no-float\libgcc.a(unwind-sjlj.o)
 .reginfo       0x00000000       0x18 c:/program files/microchip/xc32/v1.40/bin/bin/../../lib/gcc/pic32mx/4.8.3/no-float\libgcc.a(unwind-sjlj.o)
 .text          0x00000000        0x0 c:/program files/microchip/xc32/v1.40/bin/bin/../../lib/gcc/pic32mx/4.8.3/../../../../pic32mx/lib/no-float\libpic32.a(sbrk.o)
 .data          0x00000000        0x0 c:/program files/microchip/xc32/v1.40/bin/bin/../../lib/gcc/pic32mx/4.8.3/../../../../pic32mx/lib/no-float\libpic32.a(sbrk.o)
 .reginfo       0x00000000       0x18 c:/program files/microchip/xc32/v1.40/bin/bin/../../lib/gcc/pic32mx/4.8.3/../../../../pic32mx/lib/no-float\libpic32.a(sbrk.o)
 .text.getpagesize
                0x00000000        0x8 c:/program files/microchip/xc32/v1.40/bin/bin/../../lib/gcc/pic32mx/4.8.3/../../../../pic32mx/lib/no-float\libpic32.a(sbrk.o)
 .text          0x00000000        0x0 c:/program files/microchip/xc32/v1.40/bin/bin/../../lib/gcc/pic32mx/4.8.3/../../../../pic32mx/lib/no-float\libpic32.a(default-bootstrap-exception-handler.o)
 .data          0x00000000        0x0 c:/program files/microchip/xc32/v1.40/bin/bin/../../lib/gcc/pic32mx/4.8.3/../../../../pic32mx/lib/no-float\libpic32.a(default-bootstrap-exception-handler.o)
 .bss           0x00000000        0x0 c:/program files/microchip/xc32/v1.40/bin/bin/../../lib/gcc/pic32mx/4.8.3/../../../../pic32mx/lib/no-float\libpic32.a(default-bootstrap-exception-handler.o)
 .reginfo       0x00000000       0x18 c:/program files/microchip/xc32/v1.40/bin/bin/../../lib/gcc/pic32mx/4.8.3/../../../../pic32mx/lib/no-float\libpic32.a(default-bootstrap-exception-handler.o)
 .text          0x00000000        0x0 c:/program files/microchip/xc32/v1.40/bin/bin/../../lib/gcc/pic32mx/4.8.3/../../../../pic32mx/lib/no-float\libpic32.a(default-on-reset.o)
 .data          0x00000000        0x0 c:/program files/microchip/xc32/v1.40/bin/bin/../../lib/gcc/pic32mx/4.8.3/../../../../pic32mx/lib/no-float\libpic32.a(default-on-reset.o)
 .bss           0x00000000        0x0 c:/program files/microchip/xc32/v1.40/bin/bin/../../lib/gcc/pic32mx/4.8.3/../../../../pic32mx/lib/no-float\libpic32.a(default-on-reset.o)
 .reginfo       0x00000000       0x18 c:/program files/microchip/xc32/v1.40/bin/bin/../../lib/gcc/pic32mx/4.8.3/../../../../pic32mx/lib/no-float\libpic32.a(default-on-reset.o)
 .text          0x00000000        0x0 c:/program files/microchip/xc32/v1.40/bin/bin/../../lib/gcc/pic32mx/4.8.3/../../../../pic32mx/lib/no-float\libpic32.a(default-on-bootstrap.o)
 .data          0x00000000        0x0 c:/program files/microchip/xc32/v1.40/bin/bin/../../lib/gcc/pic32mx/4.8.3/../../../../pic32mx/lib/no-float\libpic32.a(default-on-bootstrap.o)
 .bss           0x00000000        0x0 c:/program files/microchip/xc32/v1.40/bin/bin/../../lib/gcc/pic32mx/4.8.3/../../../../pic32mx/lib/no-float\libpic32.a(default-on-bootstrap.o)
 .reginfo       0x00000000       0x18 c:/program files/microchip/xc32/v1.40/bin/bin/../../lib/gcc/pic32mx/4.8.3/../../../../pic32mx/lib/no-float\libpic32.a(default-on-bootstrap.o)
 .data          0x00000000        0x0 c:/program files/microchip/xc32/v1.40/bin/bin/../../lib/gcc/pic32mx/4.8.3/../../../../pic32mx/lib/no-float\libpic32.a(default-nmi-handler.o)
 .bss           0x00000000        0x0 c:/program files/microchip/xc32/v1.40/bin/bin/../../lib/gcc/pic32mx/4.8.3/../../../../pic32mx/lib/no-float\libpic32.a(default-nmi-handler.o)
 .reginfo       0x00000000       0x18 c:/program files/microchip/xc32/v1.40/bin/bin/../../lib/gcc/pic32mx/4.8.3/../../../../pic32mx/lib/no-float\libpic32.a(default-nmi-handler.o)
 .text          0x00000000        0x0 c:/program files/microchip/xc32/v1.40/bin/bin/../../lib/gcc/pic32mx/4.8.3/../../../../pic32mx/lib/no-float\libpic32.a(_exit.o)
 .data          0x00000000        0x0 c:/program files/microchip/xc32/v1.40/bin/bin/../../lib/gcc/pic32mx/4.8.3/../../../../pic32mx/lib/no-float\libpic32.a(_exit.o)
 .bss           0x00000000        0x0 c:/program files/microchip/xc32/v1.40/bin/bin/../../lib/gcc/pic32mx/4.8.3/../../../../pic32mx/lib/no-float\libpic32.a(_exit.o)
 .reginfo       0x00000000       0x18 c:/program files/microchip/xc32/v1.40/bin/bin/../../lib/gcc/pic32mx/4.8.3/../../../../pic32mx/lib/no-float\libpic32.a(_exit.o)
 .text          0x00000000        0x0 c:/program files/microchip/xc32/v1.40/bin/bin/../../lib/gcc/pic32mx/4.8.3/../../../../pic32mx/lib/no-float\libpic32.a(kill.o)
 .data          0x00000000        0x0 c:/program files/microchip/xc32/v1.40/bin/bin/../../lib/gcc/pic32mx/4.8.3/../../../../pic32mx/lib/no-float\libpic32.a(kill.o)
 .bss           0x00000000        0x0 c:/program files/microchip/xc32/v1.40/bin/bin/../../lib/gcc/pic32mx/4.8.3/../../../../pic32mx/lib/no-float\libpic32.a(kill.o)
 .reginfo       0x00000000       0x18 c:/program files/microchip/xc32/v1.40/bin/bin/../../lib/gcc/pic32mx/4.8.3/../../../../pic32mx/lib/no-float\libpic32.a(kill.o)
 .text          0x00000000        0x0 c:/program files/microchip/xc32/v1.40/bin/bin/../../lib/gcc/pic32mx/4.8.3/../../../../pic32mx/lib/no-float\libpic32.a(getpid.o)
 .data          0x00000000        0x0 c:/program files/microchip/xc32/v1.40/bin/bin/../../lib/gcc/pic32mx/4.8.3/../../../../pic32mx/lib/no-float\libpic32.a(getpid.o)
 .bss           0x00000000        0x0 c:/program files/microchip/xc32/v1.40/bin/bin/../../lib/gcc/pic32mx/4.8.3/../../../../pic32mx/lib/no-float\libpic32.a(getpid.o)
 .reginfo       0x00000000       0x18 c:/program files/microchip/xc32/v1.40/bin/bin/../../lib/gcc/pic32mx/4.8.3/../../../../pic32mx/lib/no-float\libpic32.a(getpid.o)
 .text          0x00000000        0x0 c:/program files/microchip/xc32/v1.40/bin/bin/../../lib/gcc/pic32mx/4.8.3/../../../../pic32mx/lib/no-float\libpic32.a(errno.o)
 .data          0x00000000        0x0 c:/program files/microchip/xc32/v1.40/bin/bin/../../lib/gcc/pic32mx/4.8.3/../../../../pic32mx/lib/no-float\libpic32.a(errno.o)
 .reginfo       0x00000000       0x18 c:/program files/microchip/xc32/v1.40/bin/bin/../../lib/gcc/pic32mx/4.8.3/../../../../pic32mx/lib/no-float\libpic32.a(errno.o)
 .text          0x00000000        0x0 c:/program files/microchip/xc32/v1.40/bin/bin/../../lib/gcc/pic32mx/4.8.3/../../../../pic32mx/lib/no-float\libpic32.a(general-exception.o)
 .data          0x00000000        0x0 c:/program files/microchip/xc32/v1.40/bin/bin/../../lib/gcc/pic32mx/4.8.3/../../../../pic32mx/lib/no-float\libpic32.a(general-exception.o)
 .bss           0x00000000        0x0 c:/program files/microchip/xc32/v1.40/bin/bin/../../lib/gcc/pic32mx/4.8.3/../../../../pic32mx/lib/no-float\libpic32.a(general-exception.o)
 .reginfo       0x00000000       0x18 c:/program files/microchip/xc32/v1.40/bin/bin/../../lib/gcc/pic32mx/4.8.3/../../../../pic32mx/lib/no-float\libpic32.a(general-exception.o)
 .text          0x00000000        0x0 c:/program files/microchip/xc32/v1.40/bin/bin/../../lib/gcc/pic32mx/4.8.3/../../../../pic32mx/lib/no-float\libpic32.a(vector0.o)
 .data          0x00000000        0x0 c:/program files/microchip/xc32/v1.40/bin/bin/../../lib/gcc/pic32mx/4.8.3/../../../../pic32mx/lib/no-float\libpic32.a(vector0.o)
 .bss           0x00000000        0x0 c:/program files/microchip/xc32/v1.40/bin/bin/../../lib/gcc/pic32mx/4.8.3/../../../../pic32mx/lib/no-float\libpic32.a(vector0.o)
 .reginfo       0x00000000       0x18 c:/program files/microchip/xc32/v1.40/bin/bin/../../lib/gcc/pic32mx/4.8.3/../../../../pic32mx/lib/no-float\libpic32.a(vector0.o)
 .text          0x00000000        0x0 c:/program files/microchip/xc32/v1.40/bin/bin/../../lib/gcc/pic32mx/4.8.3/../../../../pic32mx/lib/no-float\libpic32.a(vector2.o)
 .data          0x00000000        0x0 c:/program files/microchip/xc32/v1.40/bin/bin/../../lib/gcc/pic32mx/4.8.3/../../../../pic32mx/lib/no-float\libpic32.a(vector2.o)
 .bss           0x00000000        0x0 c:/program files/microchip/xc32/v1.40/bin/bin/../../lib/gcc/pic32mx/4.8.3/../../../../pic32mx/lib/no-float\libpic32.a(vector2.o)
 .reginfo       0x00000000       0x18 c:/program files/microchip/xc32/v1.40/bin/bin/../../lib/gcc/pic32mx/4.8.3/../../../../pic32mx/lib/no-float\libpic32.a(vector2.o)
 .text          0x00000000        0x0 c:/program files/microchip/xc32/v1.40/bin/bin/../../lib/gcc/pic32mx/4.8.3/../../../../pic32mx/lib/no-float\libpic32.a(vector3.o)
 .data          0x00000000        0x0 c:/program files/microchip/xc32/v1.40/bin/bin/../../lib/gcc/pic32mx/4.8.3/../../../../pic32mx/lib/no-float\libpic32.a(vector3.o)
 .bss           0x00000000        0x0 c:/program files/microchip/xc32/v1.40/bin/bin/../../lib/gcc/pic32mx/4.8.3/../../../../pic32mx/lib/no-float\libpic32.a(vector3.o)
 .reginfo       0x00000000       0x18 c:/program files/microchip/xc32/v1.40/bin/bin/../../lib/gcc/pic32mx/4.8.3/../../../../pic32mx/lib/no-float\libpic32.a(vector3.o)
 .text          0x00000000        0x0 c:/program files/microchip/xc32/v1.40/bin/bin/../../lib/gcc/pic32mx/4.8.3/../../../../pic32mx/lib/no-float\libpic32.a(vector5.o)
 .data          0x00000000        0x0 c:/program files/microchip/xc32/v1.40/bin/bin/../../lib/gcc/pic32mx/4.8.3/../../../../pic32mx/lib/no-float\libpic32.a(vector5.o)
 .bss           0x00000000        0x0 c:/program files/microchip/xc32/v1.40/bin/bin/../../lib/gcc/pic32mx/4.8.3/../../../../pic32mx/lib/no-float\libpic32.a(vector5.o)
 .reginfo       0x00000000       0x18 c:/program files/microchip/xc32/v1.40/bin/bin/../../lib/gcc/pic32mx/4.8.3/../../../../pic32mx/lib/no-float\libpic32.a(vector5.o)
 .text          0x00000000        0x0 c:/program files/microchip/xc32/v1.40/bin/bin/../../lib/gcc/pic32mx/4.8.3/../../../../pic32mx/lib/no-float\libpic32.a(vector6.o)
 .data          0x00000000        0x0 c:/program files/microchip/xc32/v1.40/bin/bin/../../lib/gcc/pic32mx/4.8.3/../../../../pic32mx/lib/no-float\libpic32.a(vector6.o)
 .bss           0x00000000        0x0 c:/program files/microchip/xc32/v1.40/bin/bin/../../lib/gcc/pic32mx/4.8.3/../../../../pic32mx/lib/no-float\libpic32.a(vector6.o)
 .reginfo       0x00000000       0x18 c:/program files/microchip/xc32/v1.40/bin/bin/../../lib/gcc/pic32mx/4.8.3/../../../../pic32mx/lib/no-float\libpic32.a(vector6.o)
 .text          0x00000000        0x0 c:/program files/microchip/xc32/v1.40/bin/bin/../../lib/gcc/pic32mx/4.8.3/../../../../pic32mx/lib/no-float\libpic32.a(vector7.o)
 .data          0x00000000        0x0 c:/program files/microchip/xc32/v1.40/bin/bin/../../lib/gcc/pic32mx/4.8.3/../../../../pic32mx/lib/no-float\libpic32.a(vector7.o)
 .bss           0x00000000        0x0 c:/program files/microchip/xc32/v1.40/bin/bin/../../lib/gcc/pic32mx/4.8.3/../../../../pic32mx/lib/no-float\libpic32.a(vector7.o)
 .reginfo       0x00000000       0x18 c:/program files/microchip/xc32/v1.40/bin/bin/../../lib/gcc/pic32mx/4.8.3/../../../../pic32mx/lib/no-float\libpic32.a(vector7.o)
 .text          0x00000000        0x0 c:/program files/microchip/xc32/v1.40/bin/bin/../../lib/gcc/pic32mx/4.8.3/../../../../pic32mx/lib/no-float\libpic32.a(vector8.o)
 .data          0x00000000        0x0 c:/program files/microchip/xc32/v1.40/bin/bin/../../lib/gcc/pic32mx/4.8.3/../../../../pic32mx/lib/no-float\libpic32.a(vector8.o)
 .bss           0x00000000        0x0 c:/program files/microchip/xc32/v1.40/bin/bin/../../lib/gcc/pic32mx/4.8.3/../../../../pic32mx/lib/no-float\libpic32.a(vector8.o)
 .reginfo       0x00000000       0x18 c:/program files/microchip/xc32/v1.40/bin/bin/../../lib/gcc/pic32mx/4.8.3/../../../../pic32mx/lib/no-float\libpic32.a(vector8.o)
 .text          0x00000000        0x0 c:/program files/microchip/xc32/v1.40/bin/bin/../../lib/gcc/pic32mx/4.8.3/../../../../pic32mx/lib/no-float\libpic32.a(vector9.o)
 .data          0x00000000        0x0 c:/program files/microchip/xc32/v1.40/bin/bin/../../lib/gcc/pic32mx/4.8.3/../../../../pic32mx/lib/no-float\libpic32.a(vector9.o)
 .bss           0x00000000        0x0 c:/program files/microchip/xc32/v1.40/bin/bin/../../lib/gcc/pic32mx/4.8.3/../../../../pic32mx/lib/no-float\libpic32.a(vector9.o)
 .reginfo       0x00000000       0x18 c:/program files/microchip/xc32/v1.40/bin/bin/../../lib/gcc/pic32mx/4.8.3/../../../../pic32mx/lib/no-float\libpic32.a(vector9.o)
 .text          0x00000000        0x0 c:/program files/microchip/xc32/v1.40/bin/bin/../../lib/gcc/pic32mx/4.8.3/../../../../pic32mx/lib/no-float\libpic32.a(vector10.o)
 .data          0x00000000        0x0 c:/program files/microchip/xc32/v1.40/bin/bin/../../lib/gcc/pic32mx/4.8.3/../../../../pic32mx/lib/no-float\libpic32.a(vector10.o)
 .bss           0x00000000        0x0 c:/program files/microchip/xc32/v1.40/bin/bin/../../lib/gcc/pic32mx/4.8.3/../../../../pic32mx/lib/no-float\libpic32.a(vector10.o)
 .reginfo       0x00000000       0x18 c:/program files/microchip/xc32/v1.40/bin/bin/../../lib/gcc/pic32mx/4.8.3/../../../../pic32mx/lib/no-float\libpic32.a(vector10.o)
 .text          0x00000000        0x0 c:/program files/microchip/xc32/v1.40/bin/bin/../../lib/gcc/pic32mx/4.8.3/../../../../pic32mx/lib/no-float\libpic32.a(vector11.o)
 .data          0x00000000        0x0 c:/program files/microchip/xc32/v1.40/bin/bin/../../lib/gcc/pic32mx/4.8.3/../../../../pic32mx/lib/no-float\libpic32.a(vector11.o)
 .bss           0x00000000        0x0 c:/program files/microchip/xc32/v1.40/bin/bin/../../lib/gcc/pic32mx/4.8.3/../../../../pic32mx/lib/no-float\libpic32.a(vector11.o)
 .reginfo       0x00000000       0x18 c:/program files/microchip/xc32/v1.40/bin/bin/../../lib/gcc/pic32mx/4.8.3/../../../../pic32mx/lib/no-float\libpic32.a(vector11.o)
 .text          0x00000000        0x0 c:/program files/microchip/xc32/v1.40/bin/bin/../../lib/gcc/pic32mx/4.8.3/../../../../pic32mx/lib/no-float\libpic32.a(vector12.o)
 .data          0x00000000        0x0 c:/program files/microchip/xc32/v1.40/bin/bin/../../lib/gcc/pic32mx/4.8.3/../../../../pic32mx/lib/no-float\libpic32.a(vector12.o)
 .bss           0x00000000        0x0 c:/program files/microchip/xc32/v1.40/bin/bin/../../lib/gcc/pic32mx/4.8.3/../../../../pic32mx/lib/no-float\libpic32.a(vector12.o)
 .reginfo       0x00000000       0x18 c:/program files/microchip/xc32/v1.40/bin/bin/../../lib/gcc/pic32mx/4.8.3/../../../../pic32mx/lib/no-float\libpic32.a(vector12.o)
 .text          0x00000000        0x0 c:/program files/microchip/xc32/v1.40/bin/bin/../../lib/gcc/pic32mx/4.8.3/../../../../pic32mx/lib/no-float\libpic32.a(vector13.o)
 .data          0x00000000        0x0 c:/program files/microchip/xc32/v1.40/bin/bin/../../lib/gcc/pic32mx/4.8.3/../../../../pic32mx/lib/no-float\libpic32.a(vector13.o)
 .bss           0x00000000        0x0 c:/program files/microchip/xc32/v1.40/bin/bin/../../lib/gcc/pic32mx/4.8.3/../../../../pic32mx/lib/no-float\libpic32.a(vector13.o)
 .reginfo       0x00000000       0x18 c:/program files/microchip/xc32/v1.40/bin/bin/../../lib/gcc/pic32mx/4.8.3/../../../../pic32mx/lib/no-float\libpic32.a(vector13.o)
 .text          0x00000000        0x0 c:/program files/microchip/xc32/v1.40/bin/bin/../../lib/gcc/pic32mx/4.8.3/../../../../pic32mx/lib/no-float\libpic32.a(vector14.o)
 .data          0x00000000        0x0 c:/program files/microchip/xc32/v1.40/bin/bin/../../lib/gcc/pic32mx/4.8.3/../../../../pic32mx/lib/no-float\libpic32.a(vector14.o)
 .bss           0x00000000        0x0 c:/program files/microchip/xc32/v1.40/bin/bin/../../lib/gcc/pic32mx/4.8.3/../../../../pic32mx/lib/no-float\libpic32.a(vector14.o)
 .reginfo       0x00000000       0x18 c:/program files/microchip/xc32/v1.40/bin/bin/../../lib/gcc/pic32mx/4.8.3/../../../../pic32mx/lib/no-float\libpic32.a(vector14.o)
 .text          0x00000000        0x0 c:/program files/microchip/xc32/v1.40/bin/bin/../../lib/gcc/pic32mx/4.8.3/../../../../pic32mx/lib/no-float\libpic32.a(vector15.o)
 .data          0x00000000        0x0 c:/program files/microchip/xc32/v1.40/bin/bin/../../lib/gcc/pic32mx/4.8.3/../../../../pic32mx/lib/no-float\libpic32.a(vector15.o)
 .bss           0x00000000        0x0 c:/program files/microchip/xc32/v1.40/bin/bin/../../lib/gcc/pic32mx/4.8.3/../../../../pic32mx/lib/no-float\libpic32.a(vector15.o)
 .reginfo       0x00000000       0x18 c:/program files/microchip/xc32/v1.40/bin/bin/../../lib/gcc/pic32mx/4.8.3/../../../../pic32mx/lib/no-float\libpic32.a(vector15.o)
 .text          0x00000000        0x0 c:/program files/microchip/xc32/v1.40/bin/bin/../../lib/gcc/pic32mx/4.8.3/../../../../pic32mx/lib/no-float\libpic32.a(vector16.o)
 .data          0x00000000        0x0 c:/program files/microchip/xc32/v1.40/bin/bin/../../lib/gcc/pic32mx/4.8.3/../../../../pic32mx/lib/no-float\libpic32.a(vector16.o)
 .bss           0x00000000        0x0 c:/program files/microchip/xc32/v1.40/bin/bin/../../lib/gcc/pic32mx/4.8.3/../../../../pic32mx/lib/no-float\libpic32.a(vector16.o)
 .reginfo       0x00000000       0x18 c:/program files/microchip/xc32/v1.40/bin/bin/../../lib/gcc/pic32mx/4.8.3/../../../../pic32mx/lib/no-float\libpic32.a(vector16.o)
 .text          0x00000000        0x0 c:/program files/microchip/xc32/v1.40/bin/bin/../../lib/gcc/pic32mx/4.8.3/../../../../pic32mx/lib/no-float\libpic32.a(vector17.o)
 .data          0x00000000        0x0 c:/program files/microchip/xc32/v1.40/bin/bin/../../lib/gcc/pic32mx/4.8.3/../../../../pic32mx/lib/no-float\libpic32.a(vector17.o)
 .bss           0x00000000        0x0 c:/program files/microchip/xc32/v1.40/bin/bin/../../lib/gcc/pic32mx/4.8.3/../../../../pic32mx/lib/no-float\libpic32.a(vector17.o)
 .reginfo       0x00000000       0x18 c:/program files/microchip/xc32/v1.40/bin/bin/../../lib/gcc/pic32mx/4.8.3/../../../../pic32mx/lib/no-float\libpic32.a(vector17.o)
 .text          0x00000000        0x0 c:/program files/microchip/xc32/v1.40/bin/bin/../../lib/gcc/pic32mx/4.8.3/../../../../pic32mx/lib/no-float\libpic32.a(vector18.o)
 .data          0x00000000        0x0 c:/program files/microchip/xc32/v1.40/bin/bin/../../lib/gcc/pic32mx/4.8.3/../../../../pic32mx/lib/no-float\libpic32.a(vector18.o)
 .bss           0x00000000        0x0 c:/program files/microchip/xc32/v1.40/bin/bin/../../lib/gcc/pic32mx/4.8.3/../../../../pic32mx/lib/no-float\libpic32.a(vector18.o)
 .reginfo       0x00000000       0x18 c:/program files/microchip/xc32/v1.40/bin/bin/../../lib/gcc/pic32mx/4.8.3/../../../../pic32mx/lib/no-float\libpic32.a(vector18.o)
 .text          0x00000000        0x0 c:/program files/microchip/xc32/v1.40/bin/bin/../../lib/gcc/pic32mx/4.8.3/../../../../pic32mx/lib/no-float\libpic32.a(vector19.o)
 .data          0x00000000        0x0 c:/program files/microchip/xc32/v1.40/bin/bin/../../lib/gcc/pic32mx/4.8.3/../../../../pic32mx/lib/no-float\libpic32.a(vector19.o)
 .bss           0x00000000        0x0 c:/program files/microchip/xc32/v1.40/bin/bin/../../lib/gcc/pic32mx/4.8.3/../../../../pic32mx/lib/no-float\libpic32.a(vector19.o)
 .reginfo       0x00000000       0x18 c:/program files/microchip/xc32/v1.40/bin/bin/../../lib/gcc/pic32mx/4.8.3/../../../../pic32mx/lib/no-float\libpic32.a(vector19.o)
 .text          0x00000000        0x0 c:/program files/microchip/xc32/v1.40/bin/bin/../../lib/gcc/pic32mx/4.8.3/../../../../pic32mx/lib/no-float\libpic32.a(vector20.o)
 .data          0x00000000        0x0 c:/program files/microchip/xc32/v1.40/bin/bin/../../lib/gcc/pic32mx/4.8.3/../../../../pic32mx/lib/no-float\libpic32.a(vector20.o)
 .bss           0x00000000        0x0 c:/program files/microchip/xc32/v1.40/bin/bin/../../lib/gcc/pic32mx/4.8.3/../../../../pic32mx/lib/no-float\libpic32.a(vector20.o)
 .reginfo       0x00000000       0x18 c:/program files/microchip/xc32/v1.40/bin/bin/../../lib/gcc/pic32mx/4.8.3/../../../../pic32mx/lib/no-float\libpic32.a(vector20.o)
 .text          0x00000000        0x0 c:/program files/microchip/xc32/v1.40/bin/bin/../../lib/gcc/pic32mx/4.8.3/../../../../pic32mx/lib/no-float\libpic32.a(vector21.o)
 .data          0x00000000        0x0 c:/program files/microchip/xc32/v1.40/bin/bin/../../lib/gcc/pic32mx/4.8.3/../../../../pic32mx/lib/no-float\libpic32.a(vector21.o)
 .bss           0x00000000        0x0 c:/program files/microchip/xc32/v1.40/bin/bin/../../lib/gcc/pic32mx/4.8.3/../../../../pic32mx/lib/no-float\libpic32.a(vector21.o)
 .reginfo       0x00000000       0x18 c:/program files/microchip/xc32/v1.40/bin/bin/../../lib/gcc/pic32mx/4.8.3/../../../../pic32mx/lib/no-float\libpic32.a(vector21.o)
 .text          0x00000000        0x0 c:/program files/microchip/xc32/v1.40/bin/bin/../../lib/gcc/pic32mx/4.8.3/../../../../pic32mx/lib/no-float\libpic32.a(vector22.o)
 .data          0x00000000        0x0 c:/program files/microchip/xc32/v1.40/bin/bin/../../lib/gcc/pic32mx/4.8.3/../../../../pic32mx/lib/no-float\libpic32.a(vector22.o)
 .bss           0x00000000        0x0 c:/program files/microchip/xc32/v1.40/bin/bin/../../lib/gcc/pic32mx/4.8.3/../../../../pic32mx/lib/no-float\libpic32.a(vector22.o)
 .reginfo       0x00000000       0x18 c:/program files/microchip/xc32/v1.40/bin/bin/../../lib/gcc/pic32mx/4.8.3/../../../../pic32mx/lib/no-float\libpic32.a(vector22.o)
 .text          0x00000000        0x0 c:/program files/microchip/xc32/v1.40/bin/bin/../../lib/gcc/pic32mx/4.8.3/../../../../pic32mx/lib/no-float\libpic32.a(vector23.o)
 .data          0x00000000        0x0 c:/program files/microchip/xc32/v1.40/bin/bin/../../lib/gcc/pic32mx/4.8.3/../../../../pic32mx/lib/no-float\libpic32.a(vector23.o)
 .bss           0x00000000        0x0 c:/program files/microchip/xc32/v1.40/bin/bin/../../lib/gcc/pic32mx/4.8.3/../../../../pic32mx/lib/no-float\libpic32.a(vector23.o)
 .reginfo       0x00000000       0x18 c:/program files/microchip/xc32/v1.40/bin/bin/../../lib/gcc/pic32mx/4.8.3/../../../../pic32mx/lib/no-float\libpic32.a(vector23.o)
 .text          0x00000000        0x0 c:/program files/microchip/xc32/v1.40/bin/bin/../../lib/gcc/pic32mx/4.8.3/../../../../pic32mx/lib/no-float\libpic32.a(vector24.o)
 .data          0x00000000        0x0 c:/program files/microchip/xc32/v1.40/bin/bin/../../lib/gcc/pic32mx/4.8.3/../../../../pic32mx/lib/no-float\libpic32.a(vector24.o)
 .bss           0x00000000        0x0 c:/program files/microchip/xc32/v1.40/bin/bin/../../lib/gcc/pic32mx/4.8.3/../../../../pic32mx/lib/no-float\libpic32.a(vector24.o)
 .reginfo       0x00000000       0x18 c:/program files/microchip/xc32/v1.40/bin/bin/../../lib/gcc/pic32mx/4.8.3/../../../../pic32mx/lib/no-float\libpic32.a(vector24.o)
 .text          0x00000000        0x0 c:/program files/microchip/xc32/v1.40/bin/bin/../../lib/gcc/pic32mx/4.8.3/../../../../pic32mx/lib/no-float\libpic32.a(vector25.o)
 .data          0x00000000        0x0 c:/program files/microchip/xc32/v1.40/bin/bin/../../lib/gcc/pic32mx/4.8.3/../../../../pic32mx/lib/no-float\libpic32.a(vector25.o)
 .bss           0x00000000        0x0 c:/program files/microchip/xc32/v1.40/bin/bin/../../lib/gcc/pic32mx/4.8.3/../../../../pic32mx/lib/no-float\libpic32.a(vector25.o)
 .reginfo       0x00000000       0x18 c:/program files/microchip/xc32/v1.40/bin/bin/../../lib/gcc/pic32mx/4.8.3/../../../../pic32mx/lib/no-float\libpic32.a(vector25.o)
 .text          0x00000000        0x0 c:/program files/microchip/xc32/v1.40/bin/bin/../../lib/gcc/pic32mx/4.8.3/../../../../pic32mx/lib/no-float\libpic32.a(vector26.o)
 .data          0x00000000        0x0 c:/program files/microchip/xc32/v1.40/bin/bin/../../lib/gcc/pic32mx/4.8.3/../../../../pic32mx/lib/no-float\libpic32.a(vector26.o)
 .bss           0x00000000        0x0 c:/program files/microchip/xc32/v1.40/bin/bin/../../lib/gcc/pic32mx/4.8.3/../../../../pic32mx/lib/no-float\libpic32.a(vector26.o)
 .reginfo       0x00000000       0x18 c:/program files/microchip/xc32/v1.40/bin/bin/../../lib/gcc/pic32mx/4.8.3/../../../../pic32mx/lib/no-float\libpic32.a(vector26.o)
 .text          0x00000000        0x0 c:/program files/microchip/xc32/v1.40/bin/bin/../../lib/gcc/pic32mx/4.8.3/../../../../pic32mx/lib/no-float\libpic32.a(vector27.o)
 .data          0x00000000        0x0 c:/program files/microchip/xc32/v1.40/bin/bin/../../lib/gcc/pic32mx/4.8.3/../../../../pic32mx/lib/no-float\libpic32.a(vector27.o)
 .bss           0x00000000        0x0 c:/program files/microchip/xc32/v1.40/bin/bin/../../lib/gcc/pic32mx/4.8.3/../../../../pic32mx/lib/no-float\libpic32.a(vector27.o)
 .reginfo       0x00000000       0x18 c:/program files/microchip/xc32/v1.40/bin/bin/../../lib/gcc/pic32mx/4.8.3/../../../../pic32mx/lib/no-float\libpic32.a(vector27.o)
 .text          0x00000000        0x0 c:/program files/microchip/xc32/v1.40/bin/bin/../../lib/gcc/pic32mx/4.8.3/../../../../pic32mx/lib/no-float\libpic32.a(vector28.o)
 .data          0x00000000        0x0 c:/program files/microchip/xc32/v1.40/bin/bin/../../lib/gcc/pic32mx/4.8.3/../../../../pic32mx/lib/no-float\libpic32.a(vector28.o)
 .bss           0x00000000        0x0 c:/program files/microchip/xc32/v1.40/bin/bin/../../lib/gcc/pic32mx/4.8.3/../../../../pic32mx/lib/no-float\libpic32.a(vector28.o)
 .reginfo       0x00000000       0x18 c:/program files/microchip/xc32/v1.40/bin/bin/../../lib/gcc/pic32mx/4.8.3/../../../../pic32mx/lib/no-float\libpic32.a(vector28.o)
 .text          0x00000000        0x0 c:/program files/microchip/xc32/v1.40/bin/bin/../../lib/gcc/pic32mx/4.8.3/../../../../pic32mx/lib/no-float\libpic32.a(vector29.o)
 .data          0x00000000        0x0 c:/program files/microchip/xc32/v1.40/bin/bin/../../lib/gcc/pic32mx/4.8.3/../../../../pic32mx/lib/no-float\libpic32.a(vector29.o)
 .bss           0x00000000        0x0 c:/program files/microchip/xc32/v1.40/bin/bin/../../lib/gcc/pic32mx/4.8.3/../../../../pic32mx/lib/no-float\libpic32.a(vector29.o)
 .reginfo       0x00000000       0x18 c:/program files/microchip/xc32/v1.40/bin/bin/../../lib/gcc/pic32mx/4.8.3/../../../../pic32mx/lib/no-float\libpic32.a(vector29.o)
 .text          0x00000000        0x0 c:/program files/microchip/xc32/v1.40/bin/bin/../../lib/gcc/pic32mx/4.8.3/../../../../pic32mx/lib/no-float\libpic32.a(vector30.o)
 .data          0x00000000        0x0 c:/program files/microchip/xc32/v1.40/bin/bin/../../lib/gcc/pic32mx/4.8.3/../../../../pic32mx/lib/no-float\libpic32.a(vector30.o)
 .bss           0x00000000        0x0 c:/program files/microchip/xc32/v1.40/bin/bin/../../lib/gcc/pic32mx/4.8.3/../../../../pic32mx/lib/no-float\libpic32.a(vector30.o)
 .reginfo       0x00000000       0x18 c:/program files/microchip/xc32/v1.40/bin/bin/../../lib/gcc/pic32mx/4.8.3/../../../../pic32mx/lib/no-float\libpic32.a(vector30.o)
 .text          0x00000000        0x0 c:/program files/microchip/xc32/v1.40/bin/bin/../../lib/gcc/pic32mx/4.8.3/../../../../pic32mx/lib/no-float\libpic32.a(vector31.o)
 .data          0x00000000        0x0 c:/program files/microchip/xc32/v1.40/bin/bin/../../lib/gcc/pic32mx/4.8.3/../../../../pic32mx/lib/no-float\libpic32.a(vector31.o)
 .bss           0x00000000        0x0 c:/program files/microchip/xc32/v1.40/bin/bin/../../lib/gcc/pic32mx/4.8.3/../../../../pic32mx/lib/no-float\libpic32.a(vector31.o)
 .reginfo       0x00000000       0x18 c:/program files/microchip/xc32/v1.40/bin/bin/../../lib/gcc/pic32mx/4.8.3/../../../../pic32mx/lib/no-float\libpic32.a(vector31.o)
 .text          0x00000000        0x0 c:/program files/microchip/xc32/v1.40/bin/bin/../../lib/gcc/pic32mx/4.8.3/../../../../pic32mx/lib/no-float\libpic32.a(vector32.o)
 .data          0x00000000        0x0 c:/program files/microchip/xc32/v1.40/bin/bin/../../lib/gcc/pic32mx/4.8.3/../../../../pic32mx/lib/no-float\libpic32.a(vector32.o)
 .bss           0x00000000        0x0 c:/program files/microchip/xc32/v1.40/bin/bin/../../lib/gcc/pic32mx/4.8.3/../../../../pic32mx/lib/no-float\libpic32.a(vector32.o)
 .reginfo       0x00000000       0x18 c:/program files/microchip/xc32/v1.40/bin/bin/../../lib/gcc/pic32mx/4.8.3/../../../../pic32mx/lib/no-float\libpic32.a(vector32.o)
 .text          0x00000000        0x0 c:/program files/microchip/xc32/v1.40/bin/bin/../../lib/gcc/pic32mx/4.8.3/../../../../pic32mx/lib/no-float\libpic32.a(vector33.o)
 .data          0x00000000        0x0 c:/program files/microchip/xc32/v1.40/bin/bin/../../lib/gcc/pic32mx/4.8.3/../../../../pic32mx/lib/no-float\libpic32.a(vector33.o)
 .bss           0x00000000        0x0 c:/program files/microchip/xc32/v1.40/bin/bin/../../lib/gcc/pic32mx/4.8.3/../../../../pic32mx/lib/no-float\libpic32.a(vector33.o)
 .reginfo       0x00000000       0x18 c:/program files/microchip/xc32/v1.40/bin/bin/../../lib/gcc/pic32mx/4.8.3/../../../../pic32mx/lib/no-float\libpic32.a(vector33.o)
 .text          0x00000000        0x0 c:/program files/microchip/xc32/v1.40/bin/bin/../../lib/gcc/pic32mx/4.8.3/../../../../pic32mx/lib/no-float\libpic32.a(vector34.o)
 .data          0x00000000        0x0 c:/program files/microchip/xc32/v1.40/bin/bin/../../lib/gcc/pic32mx/4.8.3/../../../../pic32mx/lib/no-float\libpic32.a(vector34.o)
 .bss           0x00000000        0x0 c:/program files/microchip/xc32/v1.40/bin/bin/../../lib/gcc/pic32mx/4.8.3/../../../../pic32mx/lib/no-float\libpic32.a(vector34.o)
 .reginfo       0x00000000       0x18 c:/program files/microchip/xc32/v1.40/bin/bin/../../lib/gcc/pic32mx/4.8.3/../../../../pic32mx/lib/no-float\libpic32.a(vector34.o)
 .text          0x00000000        0x0 c:/program files/microchip/xc32/v1.40/bin/bin/../../lib/gcc/pic32mx/4.8.3/../../../../pic32mx/lib/no-float\libpic32.a(vector35.o)
 .data          0x00000000        0x0 c:/program files/microchip/xc32/v1.40/bin/bin/../../lib/gcc/pic32mx/4.8.3/../../../../pic32mx/lib/no-float\libpic32.a(vector35.o)
 .bss           0x00000000        0x0 c:/program files/microchip/xc32/v1.40/bin/bin/../../lib/gcc/pic32mx/4.8.3/../../../../pic32mx/lib/no-float\libpic32.a(vector35.o)
 .reginfo       0x00000000       0x18 c:/program files/microchip/xc32/v1.40/bin/bin/../../lib/gcc/pic32mx/4.8.3/../../../../pic32mx/lib/no-float\libpic32.a(vector35.o)
 .text          0x00000000        0x0 c:/program files/microchip/xc32/v1.40/bin/bin/../../lib/gcc/pic32mx/4.8.3/../../../../pic32mx/lib/no-float\libpic32.a(vector36.o)
 .data          0x00000000        0x0 c:/program files/microchip/xc32/v1.40/bin/bin/../../lib/gcc/pic32mx/4.8.3/../../../../pic32mx/lib/no-float\libpic32.a(vector36.o)
 .bss           0x00000000        0x0 c:/program files/microchip/xc32/v1.40/bin/bin/../../lib/gcc/pic32mx/4.8.3/../../../../pic32mx/lib/no-float\libpic32.a(vector36.o)
 .reginfo       0x00000000       0x18 c:/program files/microchip/xc32/v1.40/bin/bin/../../lib/gcc/pic32mx/4.8.3/../../../../pic32mx/lib/no-float\libpic32.a(vector36.o)
 .text          0x00000000        0x0 c:/program files/microchip/xc32/v1.40/bin/bin/../../lib/gcc/pic32mx/4.8.3/../../../../pic32mx/lib/no-float\libpic32.a(vector37.o)
 .data          0x00000000        0x0 c:/program files/microchip/xc32/v1.40/bin/bin/../../lib/gcc/pic32mx/4.8.3/../../../../pic32mx/lib/no-float\libpic32.a(vector37.o)
 .bss           0x00000000        0x0 c:/program files/microchip/xc32/v1.40/bin/bin/../../lib/gcc/pic32mx/4.8.3/../../../../pic32mx/lib/no-float\libpic32.a(vector37.o)
 .reginfo       0x00000000       0x18 c:/program files/microchip/xc32/v1.40/bin/bin/../../lib/gcc/pic32mx/4.8.3/../../../../pic32mx/lib/no-float\libpic32.a(vector37.o)
 .text          0x00000000        0x0 c:/program files/microchip/xc32/v1.40/bin/bin/../../lib/gcc/pic32mx/4.8.3/../../../../pic32mx/lib/no-float\libpic32.a(vector38.o)
 .data          0x00000000        0x0 c:/program files/microchip/xc32/v1.40/bin/bin/../../lib/gcc/pic32mx/4.8.3/../../../../pic32mx/lib/no-float\libpic32.a(vector38.o)
 .bss           0x00000000        0x0 c:/program files/microchip/xc32/v1.40/bin/bin/../../lib/gcc/pic32mx/4.8.3/../../../../pic32mx/lib/no-float\libpic32.a(vector38.o)
 .reginfo       0x00000000       0x18 c:/program files/microchip/xc32/v1.40/bin/bin/../../lib/gcc/pic32mx/4.8.3/../../../../pic32mx/lib/no-float\libpic32.a(vector38.o)
 .text          0x00000000        0x0 c:/program files/microchip/xc32/v1.40/bin/bin/../../lib/gcc/pic32mx/4.8.3/../../../../pic32mx/lib/no-float\libpic32.a(vector39.o)
 .data          0x00000000        0x0 c:/program files/microchip/xc32/v1.40/bin/bin/../../lib/gcc/pic32mx/4.8.3/../../../../pic32mx/lib/no-float\libpic32.a(vector39.o)
 .bss           0x00000000        0x0 c:/program files/microchip/xc32/v1.40/bin/bin/../../lib/gcc/pic32mx/4.8.3/../../../../pic32mx/lib/no-float\libpic32.a(vector39.o)
 .reginfo       0x00000000       0x18 c:/program files/microchip/xc32/v1.40/bin/bin/../../lib/gcc/pic32mx/4.8.3/../../../../pic32mx/lib/no-float\libpic32.a(vector39.o)
 .text          0x00000000        0x0 c:/program files/microchip/xc32/v1.40/bin/bin/../../lib/gcc/pic32mx/4.8.3/../../../../pic32mx/lib/no-float\libpic32.a(vector40.o)
 .data          0x00000000        0x0 c:/program files/microchip/xc32/v1.40/bin/bin/../../lib/gcc/pic32mx/4.8.3/../../../../pic32mx/lib/no-float\libpic32.a(vector40.o)
 .bss           0x00000000        0x0 c:/program files/microchip/xc32/v1.40/bin/bin/../../lib/gcc/pic32mx/4.8.3/../../../../pic32mx/lib/no-float\libpic32.a(vector40.o)
 .reginfo       0x00000000       0x18 c:/program files/microchip/xc32/v1.40/bin/bin/../../lib/gcc/pic32mx/4.8.3/../../../../pic32mx/lib/no-float\libpic32.a(vector40.o)
 .text          0x00000000        0x0 c:/program files/microchip/xc32/v1.40/bin/bin/../../lib/gcc/pic32mx/4.8.3/../../../../pic32mx/lib/no-float\libpic32.a(vector41.o)
 .data          0x00000000        0x0 c:/program files/microchip/xc32/v1.40/bin/bin/../../lib/gcc/pic32mx/4.8.3/../../../../pic32mx/lib/no-float\libpic32.a(vector41.o)
 .bss           0x00000000        0x0 c:/program files/microchip/xc32/v1.40/bin/bin/../../lib/gcc/pic32mx/4.8.3/../../../../pic32mx/lib/no-float\libpic32.a(vector41.o)
 .reginfo       0x00000000       0x18 c:/program files/microchip/xc32/v1.40/bin/bin/../../lib/gcc/pic32mx/4.8.3/../../../../pic32mx/lib/no-float\libpic32.a(vector41.o)
 .text          0x00000000        0x0 c:/program files/microchip/xc32/v1.40/bin/bin/../../lib/gcc/pic32mx/4.8.3/../../../../pic32mx/lib/no-float\libpic32.a(vector42.o)
 .data          0x00000000        0x0 c:/program files/microchip/xc32/v1.40/bin/bin/../../lib/gcc/pic32mx/4.8.3/../../../../pic32mx/lib/no-float\libpic32.a(vector42.o)
 .bss           0x00000000        0x0 c:/program files/microchip/xc32/v1.40/bin/bin/../../lib/gcc/pic32mx/4.8.3/../../../../pic32mx/lib/no-float\libpic32.a(vector42.o)
 .reginfo       0x00000000       0x18 c:/program files/microchip/xc32/v1.40/bin/bin/../../lib/gcc/pic32mx/4.8.3/../../../../pic32mx/lib/no-float\libpic32.a(vector42.o)
 .text          0x00000000        0x0 c:/program files/microchip/xc32/v1.40/bin/bin/../../lib/gcc/pic32mx/4.8.3/../../../../pic32mx/lib/no-float\libpic32.a(vector43.o)
 .data          0x00000000        0x0 c:/program files/microchip/xc32/v1.40/bin/bin/../../lib/gcc/pic32mx/4.8.3/../../../../pic32mx/lib/no-float\libpic32.a(vector43.o)
 .bss           0x00000000        0x0 c:/program files/microchip/xc32/v1.40/bin/bin/../../lib/gcc/pic32mx/4.8.3/../../../../pic32mx/lib/no-float\libpic32.a(vector43.o)
 .reginfo       0x00000000       0x18 c:/program files/microchip/xc32/v1.40/bin/bin/../../lib/gcc/pic32mx/4.8.3/../../../../pic32mx/lib/no-float\libpic32.a(vector43.o)
 .text          0x00000000        0x0 c:/program files/microchip/xc32/v1.40/bin/bin/../../lib/gcc/pic32mx/4.8.3/../../../../pic32mx/lib/no-float\libpic32.a(vector44.o)
 .data          0x00000000        0x0 c:/program files/microchip/xc32/v1.40/bin/bin/../../lib/gcc/pic32mx/4.8.3/../../../../pic32mx/lib/no-float\libpic32.a(vector44.o)
 .bss           0x00000000        0x0 c:/program files/microchip/xc32/v1.40/bin/bin/../../lib/gcc/pic32mx/4.8.3/../../../../pic32mx/lib/no-float\libpic32.a(vector44.o)
 .reginfo       0x00000000       0x18 c:/program files/microchip/xc32/v1.40/bin/bin/../../lib/gcc/pic32mx/4.8.3/../../../../pic32mx/lib/no-float\libpic32.a(vector44.o)
 .text          0x00000000        0x0 c:/program files/microchip/xc32/v1.40/bin/bin/../../lib/gcc/pic32mx/4.8.3/../../../../pic32mx/lib/no-float\libpic32.a(default-general-exception-handler.o)
 .data          0x00000000        0x0 c:/program files/microchip/xc32/v1.40/bin/bin/../../lib/gcc/pic32mx/4.8.3/../../../../pic32mx/lib/no-float\libpic32.a(default-general-exception-handler.o)
 .bss           0x00000000        0x0 c:/program files/microchip/xc32/v1.40/bin/bin/../../lib/gcc/pic32mx/4.8.3/../../../../pic32mx/lib/no-float\libpic32.a(default-general-exception-handler.o)
 .reginfo       0x00000000       0x18 c:/program files/microchip/xc32/v1.40/bin/bin/../../lib/gcc/pic32mx/4.8.3/../../../../pic32mx/lib/no-float\libpic32.a(default-general-exception-handler.o)
 .text          0x00000000        0x0 c:/program files/microchip/xc32/v1.40/bin/bin/../../lib/gcc/pic32mx/4.8.3/../../../../pic32mx/lib/no-float\libpic32.a(defaultinterrupt.o)
 .data          0x00000000        0x0 c:/program files/microchip/xc32/v1.40/bin/bin/../../lib/gcc/pic32mx/4.8.3/../../../../pic32mx/lib/no-float\libpic32.a(defaultinterrupt.o)
 .bss           0x00000000        0x0 c:/program files/microchip/xc32/v1.40/bin/bin/../../lib/gcc/pic32mx/4.8.3/../../../../pic32mx/lib/no-float\libpic32.a(defaultinterrupt.o)
 .reginfo       0x00000000       0x18 c:/program files/microchip/xc32/v1.40/bin/bin/../../lib/gcc/pic32mx/4.8.3/../../../../pic32mx/lib/no-float\libpic32.a(defaultinterrupt.o)
 .data          0x00000000        0x4 c:/program files/microchip/xc32/v1.40/bin/bin/../../lib/gcc/pic32mx/4.8.3/no-float/crtend.o
 .bss           0x00000000        0x0 c:/program files/microchip/xc32/v1.40/bin/bin/../../lib/gcc/pic32mx/4.8.3/no-float/crtend.o
 .reginfo       0x00000000       0x18 c:/program files/microchip/xc32/v1.40/bin/bin/../../lib/gcc/pic32mx/4.8.3/no-float/crtend.o
 .text          0x00000000        0x0 c:/program files/microchip/xc32/v1.40/bin/bin/../../lib/gcc/pic32mx/4.8.3/no-float/crtn.o
 .data          0x00000000        0x0 c:/program files/microchip/xc32/v1.40/bin/bin/../../lib/gcc/pic32mx/4.8.3/no-float/crtn.o
 .bss           0x00000000        0x0 c:/program files/microchip/xc32/v1.40/bin/bin/../../lib/gcc/pic32mx/4.8.3/no-float/crtn.o
 .reginfo       0x00000000       0x18 c:/program files/microchip/xc32/v1.40/bin/bin/../../lib/gcc/pic32mx/4.8.3/no-float/crtn.o

Memory Configuration

Name             Origin             Length             Attributes
kseg0_program_mem 0x9d000000         0x00040000         xr
kseg0_boot_mem   0x9fc00490         0x00000970
exception_mem    0x9fc01000         0x00001000
kseg1_boot_mem   0xbfc00000         0x00000490
debug_exec_mem   0xbfc02000         0x00000ff0
config3          0xbfc02ff0         0x00000004
config2          0xbfc02ff4         0x00000004
config1          0xbfc02ff8         0x00000004
config0          0xbfc02ffc         0x00000004
kseg1_data_mem   0xa0000000         0x00008000         w !x
sfrs             0xbf800000         0x00100000
configsfrs       0xbfc02ff0         0x00000010
*default*        0x00000000         0xffffffff

Linker script and memory map

LOAD c:/program files/microchip/xc32/v1.40/bin/bin/../../lib/gcc/pic32mx/4.8.3/../../../../pic32mx/lib/./proc/32MX440F256H/cpprt0_mips32r2.o
LOAD c:/program files/microchip/xc32/v1.40/bin/bin/../../lib/gcc/pic32mx/4.8.3/no-float/crti.o
LOAD c:/program files/microchip/xc32/v1.40/bin/bin/../../lib/gcc/pic32mx/4.8.3/no-float/crtbegin.o
LOAD build/PINGUINO/production/_ext/1472/Main.o
LOAD build/PINGUINO/production/_ext/1472/rtos_hooks.o
LOAD build/PINGUINO/production/_ext/1472/Config.o
LOAD build/PINGUINO/production/_ext/55825582/halSYS.o
LOAD build/PINGUINO/production/_ext/1705198617/system_init.o
LOAD build/PINGUINO/production/_ext/1705198617/app.o
LOAD build/PINGUINO/production/_ext/2012494728/eosUsbClient.o
LOAD build/PINGUINO/production/_ext/863068963/eosAppLoop.o
LOAD build/PINGUINO/production/_ext/1935080774/eosTask.o
LOAD build/PINGUINO/production/_ext/1315484212/eosApplication.o
LOAD build/PINGUINO/production/_ext/2129976512/tasks.o
LOAD build/PINGUINO/production/_ext/2129976512/queue.o
LOAD build/PINGUINO/production/_ext/2129976512/timers.o
LOAD build/PINGUINO/production/_ext/1298945782/port.o
LOAD build/PINGUINO/production/_ext/1298945782/port_asm.o
LOAD build/PINGUINO/production/_ext/696550819/heap_4.o
LOAD build/PINGUINO/production/_ext/2129976512/list.o
LOAD build/PINGUINO/production/_ext/1643514105/drv_usbfs.o
LOAD build/PINGUINO/production/_ext/1643514105/drv_usbfs_device.o
LOAD build/PINGUINO/production/_ext/1712295097/sys_int_pic32.o
LOAD build/PINGUINO/production/_ext/1663442938/usb_device_cdc.o
LOAD build/PINGUINO/production/_ext/1663442938/usb_device.o
LOAD build/PINGUINO/production/_ext/1663442938/usb_device_cdc_acm.o
LOAD ..\..\..\..\..\..\..\..\..\..\microchip\harmony\v1_07_01\bin\framework\peripheral\PIC32MX440F256H_peripherals.a
                0x00000001                __MPLAB_BUILD = 0x1
                0x00000800                _min_heap_size = 0x800
                0x00000400                _min_stack_size = 0x400
LOAD c:/program files/microchip/xc32/v1.40/bin/bin/../../lib/gcc/pic32mx/4.8.3/../../../../pic32mx/lib/no-float\libsupc++.a
LOAD c:/program files/microchip/xc32/v1.40/bin/bin/../../lib/gcc/pic32mx/4.8.3/../../../../pic32mx/lib/no-float\libxcpp.a
LOAD c:/program files/microchip/xc32/v1.40/bin/bin/../../lib/gcc/pic32mx/4.8.3/../../../../pic32mx/lib/./proc/32MX440F256H\default_isr_vectors.o
LOAD c:/program files/microchip/xc32/v1.40/bin/bin/../../lib/gcc/pic32mx/4.8.3/../../../../pic32mx/lib/no-float\pic32_software_reset.o
                0x00000400                PROVIDE (_min_stack_size, 0x400)
LOAD c:/program files/microchip/xc32/v1.40/bin/bin/../../lib/gcc/pic32mx/4.8.3/../../../../pic32mx/lib/./proc/32MX440F256H\processor.o
START GROUP
LOAD libmchp_peripheral.a
END GROUP
START GROUP
LOAD libmchp_peripheral_32MX440F256H.a
END GROUP
                0x00000001                PROVIDE (_vector_spacing, 0x1)
                0x9fc01000                _ebase_address = 0x9fc01000
                0xbfc00000                _RESET_ADDR = 0xbfc00000
                0xbfc00380                _BEV_EXCPT_ADDR = 0xbfc00380
                0xbfc00480                _DBG_EXCPT_ADDR = 0xbfc00480
                0xbfc02000                _DBG_CODE_ADDR = 0xbfc02000
                0x00000ff0                _DBG_CODE_SIZE = 0xff0
                0x9fc01180                _GEN_EXCPT_ADDR = (_ebase_address + 0x180)

.config_BFC02FF0
 *(.config_BFC02FF0)

.config_BFC02FF4
                0xbfc02ff4        0x4
 *(.config_BFC02FF4)
 .config_BFC02FF4
                0xbfc02ff4        0x4 build/PINGUINO/production/_ext/1472/Config.o

.config_BFC02FF8
                0xbfc02ff8        0x4
 *(.config_BFC02FF8)
 .config_BFC02FF8
                0xbfc02ff8        0x4 build/PINGUINO/production/_ext/1472/Config.o

.config_BFC02FFC
                0xbfc02ffc        0x4
 *(.config_BFC02FFC)
 .config_BFC02FFC
                0xbfc02ffc        0x4 build/PINGUINO/production/_ext/1472/Config.o
                0xbfc02000                PROVIDE (_DBG_CODE_ADDR, 0xbfc02000)
                0x00000ff0                PROVIDE (_DBG_CODE_SIZE, 0xff0)

.reset          0xbfc00000      0x1f4
 *(.reset)
 .reset         0xbfc00000        0x8 c:/program files/microchip/xc32/v1.40/bin/bin/../../lib/gcc/pic32mx/4.8.3/../../../../pic32mx/lib/./proc/32MX440F256H/cpprt0_mips32r2.o
                0xbfc00000                _reset
 *(.reset.startup)
 .reset.startup
                0xbfc00008      0x1ec c:/program files/microchip/xc32/v1.40/bin/bin/../../lib/gcc/pic32mx/4.8.3/../../../../pic32mx/lib/./proc/32MX440F256H/cpprt0_mips32r2.o

.bev_excpt      0xbfc00380       0x10
 *(.bev_handler)
 .bev_handler   0xbfc00380       0x10 c:/program files/microchip/xc32/v1.40/bin/bin/../../lib/gcc/pic32mx/4.8.3/../../../../pic32mx/lib/./proc/32MX440F256H/cpprt0_mips32r2.o

.dbg_excpt      0xbfc00480        0x0
                0xbfc00480                . = (. + DEFINED (_DEBUGGER)?0x8:0x0)

.dbg_code       0xbfc02000        0x0
                0xbfc02000                . = (. + DEFINED (_DEBUGGER)?_DBG_CODE_SIZE:0x0)

.app_excpt      0x9fc01180       0x10
 *(.gen_handler)
 .gen_handler   0x9fc01180       0x10 c:/program files/microchip/xc32/v1.40/bin/bin/../../lib/gcc/pic32mx/4.8.3/../../../../pic32mx/lib/./proc/32MX440F256H/cpprt0_mips32r2.o

.vector_0       0x9fc01200        0x8
 *(.vector_0)
 .vector_0      0x9fc01200        0x8 c:/program files/microchip/xc32/v1.40/bin/bin/../../lib/gcc/pic32mx/4.8.3/../../../../pic32mx/lib/no-float\libpic32.a(vector0.o)
                0x9fc01200                __vector_dispatch_0
                0x00000001                ASSERT (((_vector_spacing == 0x0) || (SIZEOF (.vector_0) <= (_vector_spacing << 0x5))), function at exception vector 0 too large)

.vector_1       0x9fc01220        0x8
 *(.vector_1)
 .vector_1      0x9fc01220        0x8 build/PINGUINO/production/_ext/1298945782/port.o
                0x9fc01220                __vector_dispatch_1
                0x00000001                ASSERT (((_vector_spacing == 0x0) || (SIZEOF (.vector_1) <= (_vector_spacing << 0x5))), function at exception vector 1 too large)

.vector_2       0x9fc01240        0x8
 *(.vector_2)
 .vector_2      0x9fc01240        0x8 c:/program files/microchip/xc32/v1.40/bin/bin/../../lib/gcc/pic32mx/4.8.3/../../../../pic32mx/lib/no-float\libpic32.a(vector2.o)
                0x9fc01240                __vector_dispatch_2
                0x00000001                ASSERT (((_vector_spacing == 0x0) || (SIZEOF (.vector_2) <= (_vector_spacing << 0x5))), function at exception vector 2 too large)

.vector_3       0x9fc01260        0x8
 *(.vector_3)
 .vector_3      0x9fc01260        0x8 c:/program files/microchip/xc32/v1.40/bin/bin/../../lib/gcc/pic32mx/4.8.3/../../../../pic32mx/lib/no-float\libpic32.a(vector3.o)
                0x9fc01260                __vector_dispatch_3
                0x00000001                ASSERT (((_vector_spacing == 0x0) || (SIZEOF (.vector_3) <= (_vector_spacing << 0x5))), function at exception vector 3 too large)

.vector_4       0x9fc01280        0x8
 *(.vector_4)
 .vector_4      0x9fc01280        0x8 build/PINGUINO/production/_ext/1298945782/port.o
                0x9fc01280                __vector_dispatch_4
                0x00000001                ASSERT (((_vector_spacing == 0x0) || (SIZEOF (.vector_4) <= (_vector_spacing << 0x5))), function at exception vector 4 too large)

.vector_5       0x9fc012a0        0x8
 *(.vector_5)
 .vector_5      0x9fc012a0        0x8 c:/program files/microchip/xc32/v1.40/bin/bin/../../lib/gcc/pic32mx/4.8.3/../../../../pic32mx/lib/no-float\libpic32.a(vector5.o)
                0x9fc012a0                __vector_dispatch_5
                0x00000001                ASSERT (((_vector_spacing == 0x0) || (SIZEOF (.vector_5) <= (_vector_spacing << 0x5))), function at exception vector 5 too large)

.vector_6       0x9fc012c0        0x8
 *(.vector_6)
 .vector_6      0x9fc012c0        0x8 c:/program files/microchip/xc32/v1.40/bin/bin/../../lib/gcc/pic32mx/4.8.3/../../../../pic32mx/lib/no-float\libpic32.a(vector6.o)
                0x9fc012c0                __vector_dispatch_6
                0x00000001                ASSERT (((_vector_spacing == 0x0) || (SIZEOF (.vector_6) <= (_vector_spacing << 0x5))), function at exception vector 6 too large)

.vector_7       0x9fc012e0        0x8
 *(.vector_7)
 .vector_7      0x9fc012e0        0x8 c:/program files/microchip/xc32/v1.40/bin/bin/../../lib/gcc/pic32mx/4.8.3/../../../../pic32mx/lib/no-float\libpic32.a(vector7.o)
                0x9fc012e0                __vector_dispatch_7
                0x00000001                ASSERT (((_vector_spacing == 0x0) || (SIZEOF (.vector_7) <= (_vector_spacing << 0x5))), function at exception vector 7 too large)

.vector_8       0x9fc01300        0x8
 *(.vector_8)
 .vector_8      0x9fc01300        0x8 c:/program files/microchip/xc32/v1.40/bin/bin/../../lib/gcc/pic32mx/4.8.3/../../../../pic32mx/lib/no-float\libpic32.a(vector8.o)
                0x9fc01300                __vector_dispatch_8
                0x00000001                ASSERT (((_vector_spacing == 0x0) || (SIZEOF (.vector_8) <= (_vector_spacing << 0x5))), function at exception vector 8 too large)

.vector_9       0x9fc01320        0x8
 *(.vector_9)
 .vector_9      0x9fc01320        0x8 c:/program files/microchip/xc32/v1.40/bin/bin/../../lib/gcc/pic32mx/4.8.3/../../../../pic32mx/lib/no-float\libpic32.a(vector9.o)
                0x9fc01320                __vector_dispatch_9
                0x00000001                ASSERT (((_vector_spacing == 0x0) || (SIZEOF (.vector_9) <= (_vector_spacing << 0x5))), function at exception vector 9 too large)

.vector_10      0x9fc01340        0x8
 *(.vector_10)
 .vector_10     0x9fc01340        0x8 c:/program files/microchip/xc32/v1.40/bin/bin/../../lib/gcc/pic32mx/4.8.3/../../../../pic32mx/lib/no-float\libpic32.a(vector10.o)
                0x9fc01340                __vector_dispatch_10
                0x00000001                ASSERT (((_vector_spacing == 0x0) || (SIZEOF (.vector_10) <= (_vector_spacing << 0x5))), function at exception vector 10 too large)

.vector_11      0x9fc01360        0x8
 *(.vector_11)
 .vector_11     0x9fc01360        0x8 c:/program files/microchip/xc32/v1.40/bin/bin/../../lib/gcc/pic32mx/4.8.3/../../../../pic32mx/lib/no-float\libpic32.a(vector11.o)
                0x9fc01360                __vector_dispatch_11
                0x00000001                ASSERT (((_vector_spacing == 0x0) || (SIZEOF (.vector_11) <= (_vector_spacing << 0x5))), function at exception vector 11 too large)

.vector_12      0x9fc01380        0x8
 *(.vector_12)
 .vector_12     0x9fc01380        0x8 c:/program files/microchip/xc32/v1.40/bin/bin/../../lib/gcc/pic32mx/4.8.3/../../../../pic32mx/lib/no-float\libpic32.a(vector12.o)
                0x9fc01380                __vector_dispatch_12
                0x00000001                ASSERT (((_vector_spacing == 0x0) || (SIZEOF (.vector_12) <= (_vector_spacing << 0x5))), function at exception vector 12 too large)

.vector_13      0x9fc013a0        0x8
 *(.vector_13)
 .vector_13     0x9fc013a0        0x8 c:/program files/microchip/xc32/v1.40/bin/bin/../../lib/gcc/pic32mx/4.8.3/../../../../pic32mx/lib/no-float\libpic32.a(vector13.o)
                0x9fc013a0                __vector_dispatch_13
                0x00000001                ASSERT (((_vector_spacing == 0x0) || (SIZEOF (.vector_13) <= (_vector_spacing << 0x5))), function at exception vector 13 too large)

.vector_14      0x9fc013c0        0x8
 *(.vector_14)
 .vector_14     0x9fc013c0        0x8 c:/program files/microchip/xc32/v1.40/bin/bin/../../lib/gcc/pic32mx/4.8.3/../../../../pic32mx/lib/no-float\libpic32.a(vector14.o)
                0x9fc013c0                __vector_dispatch_14
                0x00000001                ASSERT (((_vector_spacing == 0x0) || (SIZEOF (.vector_14) <= (_vector_spacing << 0x5))), function at exception vector 14 too large)

.vector_15      0x9fc013e0        0x8
 *(.vector_15)
 .vector_15     0x9fc013e0        0x8 c:/program files/microchip/xc32/v1.40/bin/bin/../../lib/gcc/pic32mx/4.8.3/../../../../pic32mx/lib/no-float\libpic32.a(vector15.o)
                0x9fc013e0                __vector_dispatch_15
                0x00000001                ASSERT (((_vector_spacing == 0x0) || (SIZEOF (.vector_15) <= (_vector_spacing << 0x5))), function at exception vector 15 too large)

.vector_16      0x9fc01400        0x8
 *(.vector_16)
 .vector_16     0x9fc01400        0x8 c:/program files/microchip/xc32/v1.40/bin/bin/../../lib/gcc/pic32mx/4.8.3/../../../../pic32mx/lib/no-float\libpic32.a(vector16.o)
                0x9fc01400                __vector_dispatch_16
                0x00000001                ASSERT (((_vector_spacing == 0x0) || (SIZEOF (.vector_16) <= (_vector_spacing << 0x5))), function at exception vector 16 too large)

.vector_17      0x9fc01420        0x8
 *(.vector_17)
 .vector_17     0x9fc01420        0x8 c:/program files/microchip/xc32/v1.40/bin/bin/../../lib/gcc/pic32mx/4.8.3/../../../../pic32mx/lib/no-float\libpic32.a(vector17.o)
                0x9fc01420                __vector_dispatch_17
                0x00000001                ASSERT (((_vector_spacing == 0x0) || (SIZEOF (.vector_17) <= (_vector_spacing << 0x5))), function at exception vector 17 too large)

.vector_18      0x9fc01440        0x8
 *(.vector_18)
 .vector_18     0x9fc01440        0x8 c:/program files/microchip/xc32/v1.40/bin/bin/../../lib/gcc/pic32mx/4.8.3/../../../../pic32mx/lib/no-float\libpic32.a(vector18.o)
                0x9fc01440                __vector_dispatch_18
                0x00000001                ASSERT (((_vector_spacing == 0x0) || (SIZEOF (.vector_18) <= (_vector_spacing << 0x5))), function at exception vector 18 too large)

.vector_19      0x9fc01460        0x8
 *(.vector_19)
 .vector_19     0x9fc01460        0x8 c:/program files/microchip/xc32/v1.40/bin/bin/../../lib/gcc/pic32mx/4.8.3/../../../../pic32mx/lib/no-float\libpic32.a(vector19.o)
                0x9fc01460                __vector_dispatch_19
                0x00000001                ASSERT (((_vector_spacing == 0x0) || (SIZEOF (.vector_19) <= (_vector_spacing << 0x5))), function at exception vector 19 too large)

.vector_20      0x9fc01480        0x8
 *(.vector_20)
 .vector_20     0x9fc01480        0x8 c:/program files/microchip/xc32/v1.40/bin/bin/../../lib/gcc/pic32mx/4.8.3/../../../../pic32mx/lib/no-float\libpic32.a(vector20.o)
                0x9fc01480                __vector_dispatch_20
                0x00000001                ASSERT (((_vector_spacing == 0x0) || (SIZEOF (.vector_20) <= (_vector_spacing << 0x5))), function at exception vector 20 too large)

.vector_21      0x9fc014a0        0x8
 *(.vector_21)
 .vector_21     0x9fc014a0        0x8 c:/program files/microchip/xc32/v1.40/bin/bin/../../lib/gcc/pic32mx/4.8.3/../../../../pic32mx/lib/no-float\libpic32.a(vector21.o)
                0x9fc014a0                __vector_dispatch_21
                0x00000001                ASSERT (((_vector_spacing == 0x0) || (SIZEOF (.vector_21) <= (_vector_spacing << 0x5))), function at exception vector 21 too large)

.vector_22      0x9fc014c0        0x8
 *(.vector_22)
 .vector_22     0x9fc014c0        0x8 c:/program files/microchip/xc32/v1.40/bin/bin/../../lib/gcc/pic32mx/4.8.3/../../../../pic32mx/lib/no-float\libpic32.a(vector22.o)
                0x9fc014c0                __vector_dispatch_22
                0x00000001                ASSERT (((_vector_spacing == 0x0) || (SIZEOF (.vector_22) <= (_vector_spacing << 0x5))), function at exception vector 22 too large)

.vector_23      0x9fc014e0        0x8
 *(.vector_23)
 .vector_23     0x9fc014e0        0x8 c:/program files/microchip/xc32/v1.40/bin/bin/../../lib/gcc/pic32mx/4.8.3/../../../../pic32mx/lib/no-float\libpic32.a(vector23.o)
                0x9fc014e0                __vector_dispatch_23
                0x00000001                ASSERT (((_vector_spacing == 0x0) || (SIZEOF (.vector_23) <= (_vector_spacing << 0x5))), function at exception vector 23 too large)

.vector_24      0x9fc01500        0x8
 *(.vector_24)
 .vector_24     0x9fc01500        0x8 c:/program files/microchip/xc32/v1.40/bin/bin/../../lib/gcc/pic32mx/4.8.3/../../../../pic32mx/lib/no-float\libpic32.a(vector24.o)
                0x9fc01500                __vector_dispatch_24
                0x00000001                ASSERT (((_vector_spacing == 0x0) || (SIZEOF (.vector_24) <= (_vector_spacing << 0x5))), function at exception vector 24 too large)

.vector_25      0x9fc01520        0x8
 *(.vector_25)
 .vector_25     0x9fc01520        0x8 c:/program files/microchip/xc32/v1.40/bin/bin/../../lib/gcc/pic32mx/4.8.3/../../../../pic32mx/lib/no-float\libpic32.a(vector25.o)
                0x9fc01520                __vector_dispatch_25
                0x00000001                ASSERT (((_vector_spacing == 0x0) || (SIZEOF (.vector_25) <= (_vector_spacing << 0x5))), function at exception vector 25 too large)

.vector_26      0x9fc01540        0x8
 *(.vector_26)
 .vector_26     0x9fc01540        0x8 c:/program files/microchip/xc32/v1.40/bin/bin/../../lib/gcc/pic32mx/4.8.3/../../../../pic32mx/lib/no-float\libpic32.a(vector26.o)
                0x9fc01540                __vector_dispatch_26
                0x00000001                ASSERT (((_vector_spacing == 0x0) || (SIZEOF (.vector_26) <= (_vector_spacing << 0x5))), function at exception vector 26 too large)

.vector_27      0x9fc01560        0x8
 *(.vector_27)
 .vector_27     0x9fc01560        0x8 c:/program files/microchip/xc32/v1.40/bin/bin/../../lib/gcc/pic32mx/4.8.3/../../../../pic32mx/lib/no-float\libpic32.a(vector27.o)
                0x9fc01560                __vector_dispatch_27
                0x00000001                ASSERT (((_vector_spacing == 0x0) || (SIZEOF (.vector_27) <= (_vector_spacing << 0x5))), function at exception vector 27 too large)

.vector_28      0x9fc01580        0x8
 *(.vector_28)
 .vector_28     0x9fc01580        0x8 c:/program files/microchip/xc32/v1.40/bin/bin/../../lib/gcc/pic32mx/4.8.3/../../../../pic32mx/lib/no-float\libpic32.a(vector28.o)
                0x9fc01580                __vector_dispatch_28
                0x00000001                ASSERT (((_vector_spacing == 0x0) || (SIZEOF (.vector_28) <= (_vector_spacing << 0x5))), function at exception vector 28 too large)

.vector_29      0x9fc015a0        0x8
 *(.vector_29)
 .vector_29     0x9fc015a0        0x8 c:/program files/microchip/xc32/v1.40/bin/bin/../../lib/gcc/pic32mx/4.8.3/../../../../pic32mx/lib/no-float\libpic32.a(vector29.o)
                0x9fc015a0                __vector_dispatch_29
                0x00000001                ASSERT (((_vector_spacing == 0x0) || (SIZEOF (.vector_29) <= (_vector_spacing << 0x5))), function at exception vector 29 too large)

.vector_30      0x9fc015c0        0x8
 *(.vector_30)
 .vector_30     0x9fc015c0        0x8 c:/program files/microchip/xc32/v1.40/bin/bin/../../lib/gcc/pic32mx/4.8.3/../../../../pic32mx/lib/no-float\libpic32.a(vector30.o)
                0x9fc015c0                __vector_dispatch_30
                0x00000001                ASSERT (((_vector_spacing == 0x0) || (SIZEOF (.vector_30) <= (_vector_spacing << 0x5))), function at exception vector 30 too large)

.vector_31      0x9fc015e0        0x8
 *(.vector_31)
 .vector_31     0x9fc015e0        0x8 c:/program files/microchip/xc32/v1.40/bin/bin/../../lib/gcc/pic32mx/4.8.3/../../../../pic32mx/lib/no-float\libpic32.a(vector31.o)
                0x9fc015e0                __vector_dispatch_31
                0x00000001                ASSERT (((_vector_spacing == 0x0) || (SIZEOF (.vector_31) <= (_vector_spacing << 0x5))), function at exception vector 31 too large)

.vector_32      0x9fc01600        0x8
 *(.vector_32)
 .vector_32     0x9fc01600        0x8 c:/program files/microchip/xc32/v1.40/bin/bin/../../lib/gcc/pic32mx/4.8.3/../../../../pic32mx/lib/no-float\libpic32.a(vector32.o)
                0x9fc01600                __vector_dispatch_32
                0x00000001                ASSERT (((_vector_spacing == 0x0) || (SIZEOF (.vector_32) <= (_vector_spacing << 0x5))), function at exception vector 32 too large)

.vector_33      0x9fc01620        0x8
 *(.vector_33)
 .vector_33     0x9fc01620        0x8 c:/program files/microchip/xc32/v1.40/bin/bin/../../lib/gcc/pic32mx/4.8.3/../../../../pic32mx/lib/no-float\libpic32.a(vector33.o)
                0x9fc01620                __vector_dispatch_33
                0x00000001                ASSERT (((_vector_spacing == 0x0) || (SIZEOF (.vector_33) <= (_vector_spacing << 0x5))), function at exception vector 33 too large)

.vector_34      0x9fc01640        0x8
 *(.vector_34)
 .vector_34     0x9fc01640        0x8 c:/program files/microchip/xc32/v1.40/bin/bin/../../lib/gcc/pic32mx/4.8.3/../../../../pic32mx/lib/no-float\libpic32.a(vector34.o)
                0x9fc01640                __vector_dispatch_34
                0x00000001                ASSERT (((_vector_spacing == 0x0) || (SIZEOF (.vector_34) <= (_vector_spacing << 0x5))), function at exception vector 34 too large)

.vector_35      0x9fc01660        0x8
 *(.vector_35)
 .vector_35     0x9fc01660        0x8 c:/program files/microchip/xc32/v1.40/bin/bin/../../lib/gcc/pic32mx/4.8.3/../../../../pic32mx/lib/no-float\libpic32.a(vector35.o)
                0x9fc01660                __vector_dispatch_35
                0x00000001                ASSERT (((_vector_spacing == 0x0) || (SIZEOF (.vector_35) <= (_vector_spacing << 0x5))), function at exception vector 35 too large)

.vector_36      0x9fc01680        0x8
 *(.vector_36)
 .vector_36     0x9fc01680        0x8 c:/program files/microchip/xc32/v1.40/bin/bin/../../lib/gcc/pic32mx/4.8.3/../../../../pic32mx/lib/no-float\libpic32.a(vector36.o)
                0x9fc01680                __vector_dispatch_36
                0x00000001                ASSERT (((_vector_spacing == 0x0) || (SIZEOF (.vector_36) <= (_vector_spacing << 0x5))), function at exception vector 36 too large)

.vector_37      0x9fc016a0        0x8
 *(.vector_37)
 .vector_37     0x9fc016a0        0x8 c:/program files/microchip/xc32/v1.40/bin/bin/../../lib/gcc/pic32mx/4.8.3/../../../../pic32mx/lib/no-float\libpic32.a(vector37.o)
                0x9fc016a0                __vector_dispatch_37
                0x00000001                ASSERT (((_vector_spacing == 0x0) || (SIZEOF (.vector_37) <= (_vector_spacing << 0x5))), function at exception vector 37 too large)

.vector_38      0x9fc016c0        0x8
 *(.vector_38)
 .vector_38     0x9fc016c0        0x8 c:/program files/microchip/xc32/v1.40/bin/bin/../../lib/gcc/pic32mx/4.8.3/../../../../pic32mx/lib/no-float\libpic32.a(vector38.o)
                0x9fc016c0                __vector_dispatch_38
                0x00000001                ASSERT (((_vector_spacing == 0x0) || (SIZEOF (.vector_38) <= (_vector_spacing << 0x5))), function at exception vector 38 too large)

.vector_39      0x9fc016e0        0x8
 *(.vector_39)
 .vector_39     0x9fc016e0        0x8 c:/program files/microchip/xc32/v1.40/bin/bin/../../lib/gcc/pic32mx/4.8.3/../../../../pic32mx/lib/no-float\libpic32.a(vector39.o)
                0x9fc016e0                __vector_dispatch_39
                0x00000001                ASSERT (((_vector_spacing == 0x0) || (SIZEOF (.vector_39) <= (_vector_spacing << 0x5))), function at exception vector 39 too large)

.vector_40      0x9fc01700        0x8
 *(.vector_40)
 .vector_40     0x9fc01700        0x8 c:/program files/microchip/xc32/v1.40/bin/bin/../../lib/gcc/pic32mx/4.8.3/../../../../pic32mx/lib/no-float\libpic32.a(vector40.o)
                0x9fc01700                __vector_dispatch_40
                0x00000001                ASSERT (((_vector_spacing == 0x0) || (SIZEOF (.vector_40) <= (_vector_spacing << 0x5))), function at exception vector 40 too large)

.vector_41      0x9fc01720        0x8
 *(.vector_41)
 .vector_41     0x9fc01720        0x8 c:/program files/microchip/xc32/v1.40/bin/bin/../../lib/gcc/pic32mx/4.8.3/../../../../pic32mx/lib/no-float\libpic32.a(vector41.o)
                0x9fc01720                __vector_dispatch_41
                0x00000001                ASSERT (((_vector_spacing == 0x0) || (SIZEOF (.vector_41) <= (_vector_spacing << 0x5))), function at exception vector 41 too large)

.vector_42      0x9fc01740        0x8
 *(.vector_42)
 .vector_42     0x9fc01740        0x8 c:/program files/microchip/xc32/v1.40/bin/bin/../../lib/gcc/pic32mx/4.8.3/../../../../pic32mx/lib/no-float\libpic32.a(vector42.o)
                0x9fc01740                __vector_dispatch_42
                0x00000001                ASSERT (((_vector_spacing == 0x0) || (SIZEOF (.vector_42) <= (_vector_spacing << 0x5))), function at exception vector 42 too large)

.vector_43      0x9fc01760        0x8
 *(.vector_43)
 .vector_43     0x9fc01760        0x8 c:/program files/microchip/xc32/v1.40/bin/bin/../../lib/gcc/pic32mx/4.8.3/../../../../pic32mx/lib/no-float\libpic32.a(vector43.o)
                0x9fc01760                __vector_dispatch_43
                0x00000001                ASSERT (((_vector_spacing == 0x0) || (SIZEOF (.vector_43) <= (_vector_spacing << 0x5))), function at exception vector 43 too large)

.vector_44      0x9fc01780        0x8
 *(.vector_44)
 .vector_44     0x9fc01780        0x8 c:/program files/microchip/xc32/v1.40/bin/bin/../../lib/gcc/pic32mx/4.8.3/../../../../pic32mx/lib/no-float\libpic32.a(vector44.o)
                0x9fc01780                __vector_dispatch_44
                0x00000001                ASSERT (((_vector_spacing == 0x0) || (SIZEOF (.vector_44) <= (_vector_spacing << 0x5))), function at exception vector 44 too large)

.vector_45      0x9fc017a0        0x8
 *(.vector_45)
 .vector_45     0x9fc017a0        0x8 build/PINGUINO/production/_ext/1705198617/system_init.o
                0x9fc017a0                __vector_dispatch_45
                0x00000001                ASSERT (((_vector_spacing == 0x0) || (SIZEOF (.vector_45) <= (_vector_spacing << 0x5))), function at exception vector 45 too large)

.vector_46      0x9fc017c0        0x0
 *(.vector_46)
                0x00000001                ASSERT (((_vector_spacing == 0x0) || (SIZEOF (.vector_46) <= (_vector_spacing << 0x5))), function at exception vector 46 too large)

.vector_47      0x9fc017e0        0x0
 *(.vector_47)
                0x00000001                ASSERT (((_vector_spacing == 0x0) || (SIZEOF (.vector_47) <= (_vector_spacing << 0x5))), function at exception vector 47 too large)

.vector_48      0x9fc01800        0x0
 *(.vector_48)
                0x00000001                ASSERT (((_vector_spacing == 0x0) || (SIZEOF (.vector_48) <= (_vector_spacing << 0x5))), function at exception vector 48 too large)

.vector_49      0x9fc01820        0x0
 *(.vector_49)
                0x00000001                ASSERT (((_vector_spacing == 0x0) || (SIZEOF (.vector_49) <= (_vector_spacing << 0x5))), function at exception vector 49 too large)

.vector_50      0x9fc01840        0x0
 *(.vector_50)
                0x00000001                ASSERT (((_vector_spacing == 0x0) || (SIZEOF (.vector_50) <= (_vector_spacing << 0x5))), function at exception vector 50 too large)

.vector_51      0x9fc01860        0x0
 *(.vector_51)
                0x00000001                ASSERT (((_vector_spacing == 0x0) || (SIZEOF (.vector_51) <= (_vector_spacing << 0x5))), function at exception vector 51 too large)

.vector_52      0x9fc01880        0x0
 *(.vector_52)
                0x00000001                ASSERT (((_vector_spacing == 0x0) || (SIZEOF (.vector_52) <= (_vector_spacing << 0x5))), function at exception vector 52 too large)

.vector_53      0x9fc018a0        0x0
 *(.vector_53)
                0x00000001                ASSERT (((_vector_spacing == 0x0) || (SIZEOF (.vector_53) <= (_vector_spacing << 0x5))), function at exception vector 53 too large)

.vector_54      0x9fc018c0        0x0
 *(.vector_54)
                0x00000001                ASSERT (((_vector_spacing == 0x0) || (SIZEOF (.vector_54) <= (_vector_spacing << 0x5))), function at exception vector 54 too large)

.vector_55      0x9fc018e0        0x0
 *(.vector_55)
                0x00000001                ASSERT (((_vector_spacing == 0x0) || (SIZEOF (.vector_55) <= (_vector_spacing << 0x5))), function at exception vector 55 too large)

.vector_56      0x9fc01900        0x0
 *(.vector_56)
                0x00000001                ASSERT (((_vector_spacing == 0x0) || (SIZEOF (.vector_56) <= (_vector_spacing << 0x5))), function at exception vector 56 too large)

.vector_57      0x9fc01920        0x0
 *(.vector_57)
                0x00000001                ASSERT (((_vector_spacing == 0x0) || (SIZEOF (.vector_57) <= (_vector_spacing << 0x5))), function at exception vector 57 too large)

.vector_58      0x9fc01940        0x0
 *(.vector_58)
                0x00000001                ASSERT (((_vector_spacing == 0x0) || (SIZEOF (.vector_58) <= (_vector_spacing << 0x5))), function at exception vector 58 too large)

.vector_59      0x9fc01960        0x0
 *(.vector_59)
                0x00000001                ASSERT (((_vector_spacing == 0x0) || (SIZEOF (.vector_59) <= (_vector_spacing << 0x5))), function at exception vector 59 too large)

.vector_60      0x9fc01980        0x0
 *(.vector_60)
                0x00000001                ASSERT (((_vector_spacing == 0x0) || (SIZEOF (.vector_60) <= (_vector_spacing << 0x5))), function at exception vector 60 too large)

.vector_61      0x9fc019a0        0x0
 *(.vector_61)
                0x00000001                ASSERT (((_vector_spacing == 0x0) || (SIZEOF (.vector_61) <= (_vector_spacing << 0x5))), function at exception vector 61 too large)

.vector_62      0x9fc019c0        0x0
 *(.vector_62)
                0x00000001                ASSERT (((_vector_spacing == 0x0) || (SIZEOF (.vector_62) <= (_vector_spacing << 0x5))), function at exception vector 62 too large)

.vector_63      0x9fc019e0        0x0
 *(.vector_63)
                0x00000001                ASSERT (((_vector_spacing == 0x0) || (SIZEOF (.vector_63) <= (_vector_spacing << 0x5))), function at exception vector 63 too large)

.startup
 *(.startup)

.text           0x9d000000      0x624
 *(.stub .gnu.linkonce.t.*)
 .gnu.linkonce.t._ZN3eos11Application9onExecuteEv
                0x9d000000       0x24 build/PINGUINO/production/_ext/1472/Main.o
                0x9d000000                eos::Application::onExecute()
 .gnu.linkonce.t._ZN3eos11Application12onInitializeEv
                0x9d000024       0x24 build/PINGUINO/production/_ext/1472/Main.o
                0x9d000024                eos::Application::onInitialize()
 .gnu.linkonce.t._ZN3eos11Application11onTerminateEv
                0x9d000048       0x24 build/PINGUINO/production/_ext/1472/Main.o
                0x9d000048                eos::Application::onTerminate()
 .gnu.linkonce.t._ZN16MyAppLoopServiceC1Ev
                0x9d00006c       0x4c build/PINGUINO/production/_ext/1472/Main.o
                0x9d00006c                MyAppLoopService::MyAppLoopService()
 .gnu.linkonce.t._ZN3eos8IRunableC2Ev
                0x9d0000b8       0x34 build/PINGUINO/production/_ext/2012494728/eosUsbClient.o
                0x9d0000b8                eos::IRunable::IRunable()
 *(.text.*personality*)
 .text.__gxx_personality_sj0
                0x9d0000ec      0x538 c:/program files/microchip/xc32/v1.40/bin/bin/../../lib/gcc/pic32mx/4.8.3/../../../../pic32mx/lib/no-float\libsupc++.a(eh_personality.o)
                0x9d0000ec                __gxx_personality_sj0
 *(.mips16.fn.*)
 *(.mips16.call.*)
 *(.gnu.warning)
                0x9d000624                . = ALIGN (0x4)

.init           0x9d000624       0x24
 *crti.o(.init)
 .init          0x9d000624        0x8 c:/program files/microchip/xc32/v1.40/bin/bin/../../lib/gcc/pic32mx/4.8.3/no-float/crti.o
                0x9d000624                _init
 *crtbegin.o(.init)
 .init          0x9d00062c        0x8 c:/program files/microchip/xc32/v1.40/bin/bin/../../lib/gcc/pic32mx/4.8.3/no-float/crtbegin.o
 *(EXCLUDE_FILE(*crtn.o *crtend?.o *crtend.o) .init)
 *crtend.o(.init)
 .init          0x9d000634        0x8 c:/program files/microchip/xc32/v1.40/bin/bin/../../lib/gcc/pic32mx/4.8.3/no-float/crtend.o
 *crtn.o(.init)
 .init          0x9d00063c        0xc c:/program files/microchip/xc32/v1.40/bin/bin/../../lib/gcc/pic32mx/4.8.3/no-float/crtn.o
                0x9d000648                . = ALIGN (0x4)

.fini           0x9d000648       0x1c
 *(.fini)
 .fini          0x9d000648        0x8 c:/program files/microchip/xc32/v1.40/bin/bin/../../lib/gcc/pic32mx/4.8.3/no-float/crti.o
                0x9d000648                _fini
 .fini          0x9d000650        0x8 c:/program files/microchip/xc32/v1.40/bin/bin/../../lib/gcc/pic32mx/4.8.3/no-float/crtbegin.o
 .fini          0x9d000658        0xc c:/program files/microchip/xc32/v1.40/bin/bin/../../lib/gcc/pic32mx/4.8.3/no-float/crtn.o
                0x9d000664                . = ALIGN (0x4)

.preinit_array  0x9d000664        0x0
                0x9d000664                PROVIDE (__preinit_array_start, .)
 *(.preinit_array)
                0x9d000664                PROVIDE (__preinit_array_end, .)
                0x9d000664                . = ALIGN (0x4)

.init_array     0x9d000664        0x0
                0x9d000664                PROVIDE (__init_array_start, .)
 *(SORT(.init_array.*))
 *(.init_array)
                0x9d000664                PROVIDE (__init_array_end, .)
                0x9d000664                . = ALIGN (0x4)

.fini_array     0x9d000664        0x0
                0x9d000664                PROVIDE (__fini_array_start, .)
 *(SORT(.fini_array.*))
 *(.fini_array)
                0x9d000664                PROVIDE (__fini_array_end, .)
                0x9d000664                . = ALIGN (0x4)

.ctors          0x9d000664        0x8
 *crtbegin.o(.ctors)
 .ctors         0x9d000664        0x4 c:/program files/microchip/xc32/v1.40/bin/bin/../../lib/gcc/pic32mx/4.8.3/no-float/crtbegin.o
 *crtbegin?.o(.ctors)
 *(EXCLUDE_FILE(*crtend?.o *crtend.o) .ctors)
 *(SORT(.ctors.*))
 *(.ctors)
 .ctors         0x9d000668        0x4 c:/program files/microchip/xc32/v1.40/bin/bin/../../lib/gcc/pic32mx/4.8.3/no-float/crtend.o
                0x9d00066c                . = ALIGN (0x4)

.dtors          0x9d00066c        0x8
 *crtbegin.o(.dtors)
 .dtors         0x9d00066c        0x4 c:/program files/microchip/xc32/v1.40/bin/bin/../../lib/gcc/pic32mx/4.8.3/no-float/crtbegin.o
 *crtbegin?.o(.dtors)
 *(EXCLUDE_FILE(*crtend?.o *crtend.o) .dtors)
 *(SORT(.dtors.*))
 *(.dtors)
 .dtors         0x9d000670        0x4 c:/program files/microchip/xc32/v1.40/bin/bin/../../lib/gcc/pic32mx/4.8.3/no-float/crtend.o
                0x9d000670                __DTOR_END__
                0x9d000674                . = ALIGN (0x4)

.rodata         0x9d000674      0x21c
 *(.gnu.linkonce.r.*)
 .gnu.linkonce.r._ZTV16MyAppLoopService
                0x9d000674       0x14 build/PINGUINO/production/_ext/1472/Main.o
                0x9d000674                vtable for MyAppLoopService
 .gnu.linkonce.r._ZTV13MyApplication
                0x9d000688       0x14 build/PINGUINO/production/_ext/1472/Main.o
                0x9d000688                vtable for MyApplication
 .gnu.linkonce.r._ZTVN3eos16UsbClientServiceE
                0x9d00069c        0xc build/PINGUINO/production/_ext/2012494728/eosUsbClient.o
                0x9d00069c                vtable for eos::UsbClientService
 .gnu.linkonce.r._ZTVN3eos8IRunableE
                0x9d0006a8        0xc build/PINGUINO/production/_ext/2012494728/eosUsbClient.o
                0x9d0006a8                vtable for eos::IRunable
 .gnu.linkonce.r._ZTVN3eos14AppLoopServiceE
                0x9d0006b4       0x14 build/PINGUINO/production/_ext/863068963/eosAppLoop.o
                0x9d0006b4                vtable for eos::AppLoopService
 .gnu.linkonce.r._ZTVN3eos4TaskE
                0x9d0006c8       0x10 build/PINGUINO/production/_ext/1935080774/eosTask.o
                0x9d0006c8                vtable for eos::Task
 .gnu.linkonce.r._ZTVN3eos11ApplicationE
                0x9d0006d8       0x14 build/PINGUINO/production/_ext/1315484212/eosApplication.o
                0x9d0006d8                vtable for eos::Application
 .gnu.linkonce.r._ZTVSt9bad_alloc._ZTVSt9bad_alloc
                0x9d0006ec       0x14 c:/program files/microchip/xc32/v1.40/bin/bin/../../lib/gcc/pic32mx/4.8.3/../../../../pic32mx/lib/no-float\libsupc++.a(bad_alloc.o)
                0x9d0006ec                vtable for std::bad_alloc
 .gnu.linkonce.r._ZTISt9bad_alloc._ZTISt9bad_alloc
                0x9d000700        0xc c:/program files/microchip/xc32/v1.40/bin/bin/../../lib/gcc/pic32mx/4.8.3/../../../../pic32mx/lib/no-float\libsupc++.a(bad_alloc.o)
                0x9d000700                typeinfo for std::bad_alloc
 .gnu.linkonce.r._ZTSSt9bad_alloc._ZTSSt9bad_alloc
                0x9d00070c       0x10 c:/program files/microchip/xc32/v1.40/bin/bin/../../lib/gcc/pic32mx/4.8.3/../../../../pic32mx/lib/no-float\libsupc++.a(bad_alloc.o)
                0x9d00070c                typeinfo name for std::bad_alloc
 .gnu.linkonce.r._ZTVSt9exception._ZTVSt9exception
                0x9d00071c       0x14 c:/program files/microchip/xc32/v1.40/bin/bin/../../lib/gcc/pic32mx/4.8.3/../../../../pic32mx/lib/no-float\libsupc++.a(eh_exception.o)
                0x9d00071c                vtable for std::exception
 .gnu.linkonce.r._ZTIN10__cxxabiv119__foreign_exceptionE._ZTIN10__cxxabiv119__foreign_exceptionE
                0x9d000730        0x8 c:/program files/microchip/xc32/v1.40/bin/bin/../../lib/gcc/pic32mx/4.8.3/../../../../pic32mx/lib/no-float\libsupc++.a(eh_exception.o)
                0x9d000730                typeinfo for __cxxabiv1::__foreign_exception
 .gnu.linkonce.r._ZTSN10__cxxabiv119__foreign_exceptionE._ZTSN10__cxxabiv119__foreign_exceptionE
                0x9d000738       0x24 c:/program files/microchip/xc32/v1.40/bin/bin/../../lib/gcc/pic32mx/4.8.3/../../../../pic32mx/lib/no-float\libsupc++.a(eh_exception.o)
                0x9d000738                typeinfo name for __cxxabiv1::__foreign_exception
 .gnu.linkonce.r._ZTIN10__cxxabiv115__forced_unwindE._ZTIN10__cxxabiv115__forced_unwindE
                0x9d00075c        0x8 c:/program files/microchip/xc32/v1.40/bin/bin/../../lib/gcc/pic32mx/4.8.3/../../../../pic32mx/lib/no-float\libsupc++.a(eh_exception.o)
                0x9d00075c                typeinfo for __cxxabiv1::__forced_unwind
 .gnu.linkonce.r._ZTSN10__cxxabiv115__forced_unwindE._ZTSN10__cxxabiv115__forced_unwindE
                0x9d000764       0x20 c:/program files/microchip/xc32/v1.40/bin/bin/../../lib/gcc/pic32mx/4.8.3/../../../../pic32mx/lib/no-float\libsupc++.a(eh_exception.o)
                0x9d000764                typeinfo name for __cxxabiv1::__forced_unwind
 .gnu.linkonce.r._ZTISt9exception._ZTISt9exception
                0x9d000784        0x8 c:/program files/microchip/xc32/v1.40/bin/bin/../../lib/gcc/pic32mx/4.8.3/../../../../pic32mx/lib/no-float\libsupc++.a(eh_exception.o)
                0x9d000784                typeinfo for std::exception
 .gnu.linkonce.r._ZTSSt9exception._ZTSSt9exception
                0x9d00078c       0x10 c:/program files/microchip/xc32/v1.40/bin/bin/../../lib/gcc/pic32mx/4.8.3/../../../../pic32mx/lib/no-float\libsupc++.a(eh_exception.o)
                0x9d00078c                typeinfo name for std::exception
 .gnu.linkonce.r._ZTVN10__cxxabiv120__si_class_type_infoE._ZTVN10__cxxabiv120__si_class_type_infoE
                0x9d00079c       0x2c c:/program files/microchip/xc32/v1.40/bin/bin/../../lib/gcc/pic32mx/4.8.3/../../../../pic32mx/lib/no-float\libsupc++.a(si_class_type_info.o)
                0x9d00079c                vtable for __cxxabiv1::__si_class_type_info
 .gnu.linkonce.r._ZTIN10__cxxabiv120__si_class_type_infoE._ZTIN10__cxxabiv120__si_class_type_infoE
                0x9d0007c8        0xc c:/program files/microchip/xc32/v1.40/bin/bin/../../lib/gcc/pic32mx/4.8.3/../../../../pic32mx/lib/no-float\libsupc++.a(si_class_type_info.o)
                0x9d0007c8                typeinfo for __cxxabiv1::__si_class_type_info
 .gnu.linkonce.r._ZTSN10__cxxabiv120__si_class_type_infoE._ZTSN10__cxxabiv120__si_class_type_infoE
                0x9d0007d4       0x28 c:/program files/microchip/xc32/v1.40/bin/bin/../../lib/gcc/pic32mx/4.8.3/../../../../pic32mx/lib/no-float\libsupc++.a(si_class_type_info.o)
                0x9d0007d4                typeinfo name for __cxxabiv1::__si_class_type_info
 .gnu.linkonce.r._ZTVSt9type_info._ZTVSt9type_info
                0x9d0007fc       0x20 c:/program files/microchip/xc32/v1.40/bin/bin/../../lib/gcc/pic32mx/4.8.3/../../../../pic32mx/lib/no-float\libsupc++.a(tinfo.o)
                0x9d0007fc                vtable for std::type_info
 .gnu.linkonce.r._ZTISt9type_info._ZTISt9type_info
                0x9d00081c        0x8 c:/program files/microchip/xc32/v1.40/bin/bin/../../lib/gcc/pic32mx/4.8.3/../../../../pic32mx/lib/no-float\libsupc++.a(tinfo.o)
                0x9d00081c                typeinfo for std::type_info
 .gnu.linkonce.r._ZTSSt9type_info._ZTSSt9type_info
                0x9d000824       0x10 c:/program files/microchip/xc32/v1.40/bin/bin/../../lib/gcc/pic32mx/4.8.3/../../../../pic32mx/lib/no-float\libsupc++.a(tinfo.o)
                0x9d000824                typeinfo name for std::type_info
 .gnu.linkonce.r._ZTVN10__cxxabiv117__class_type_infoE._ZTVN10__cxxabiv117__class_type_infoE
                0x9d000834       0x2c c:/program files/microchip/xc32/v1.40/bin/bin/../../lib/gcc/pic32mx/4.8.3/../../../../pic32mx/lib/no-float\libsupc++.a(class_type_info.o)
                0x9d000834                vtable for __cxxabiv1::__class_type_info
 .gnu.linkonce.r._ZTIN10__cxxabiv117__class_type_infoE._ZTIN10__cxxabiv117__class_type_infoE
                0x9d000860        0xc c:/program files/microchip/xc32/v1.40/bin/bin/../../lib/gcc/pic32mx/4.8.3/../../../../pic32mx/lib/no-float\libsupc++.a(class_type_info.o)
                0x9d000860                typeinfo for __cxxabiv1::__class_type_info
 .gnu.linkonce.r._ZTSN10__cxxabiv117__class_type_infoE._ZTSN10__cxxabiv117__class_type_infoE
                0x9d00086c       0x24 c:/program files/microchip/xc32/v1.40/bin/bin/../../lib/gcc/pic32mx/4.8.3/../../../../pic32mx/lib/no-float\libsupc++.a(class_type_info.o)
                0x9d00086c                typeinfo name for __cxxabiv1::__class_type_info
 *(.rodata1)
                0x9d000890                . = ALIGN (0x4)

.sdata2         0x9d000890        0x0
 *(.sdata2 .sdata2.* .gnu.linkonce.s2.*)
                0x9d000890                . = ALIGN (0x4)

.sbss2          0x9d000890        0x0
 *(.sbss2 .sbss2.* .gnu.linkonce.sb2.*)
                0x9d000890                . = ALIGN (0x4)

.eh_frame_hdr
 *(.eh_frame_hdr)
                0x9d000890                . = ALIGN (0x4)

.eh_frame
 *(.eh_frame)
                0x9d000890                . = ALIGN (0x4)

.gcc_except_table
 *(.gcc_except_table .gcc_except_table.*)
                0x9d000890                . = ALIGN (0x4)

.dbg_data       0xa0000000        0x0
                0xa0000000                . = (. + DEFINED (_DEBUGGER)?0x200:0x0)

.jcr            0xa0000000        0x4
 *(.jcr)
 .jcr           0xa0000000        0x0 c:/program files/microchip/xc32/v1.40/bin/bin/../../lib/gcc/pic32mx/4.8.3/no-float/crtbegin.o
 .jcr           0xa0000000        0x4 c:/program files/microchip/xc32/v1.40/bin/bin/../../lib/gcc/pic32mx/4.8.3/no-float/crtend.o
                0xa0000004                . = ALIGN (0x4)

.eh_frame       0xa0000004        0x4
 *(.eh_frame)
 .eh_frame      0xa0000004        0x0 c:/program files/microchip/xc32/v1.40/bin/bin/../../lib/gcc/pic32mx/4.8.3/no-float/crtbegin.o
 .eh_frame      0xa0000004        0x4 c:/program files/microchip/xc32/v1.40/bin/bin/../../lib/gcc/pic32mx/4.8.3/no-float/crtend.o
                0xa0000008                . = ALIGN (0x4)

.gcc_except_table
                0xa0000008       0x30
 *(.gcc_except_table .gcc_except_table.*)
 .gcc_except_table
                0xa0000008       0x10 c:/program files/microchip/xc32/v1.40/bin/bin/../../lib/gcc/pic32mx/4.8.3/../../../../pic32mx/lib/no-float\libsupc++.a(eh_terminate.o)
 .gcc_except_table
                0xa0000018       0x20 c:/program files/microchip/xc32/v1.40/bin/bin/../../lib/gcc/pic32mx/4.8.3/../../../../pic32mx/lib/no-float\libsupc++.a(eh_personality.o)
                0xa0000038                . = ALIGN (0x4)

.persist        0xa0000038        0x0
                0xa0000038                _persist_begin = .
 *(.persist .persist.*)
 *(.pbss .pbss.*)
                0xa0000038                . = ALIGN (0x4)
                0xa0000038                _persist_end = .

.data           0xa0000038        0x0
 *(.gnu.linkonce.d.*)
 *(.data1)
                0xa0000038                . = ALIGN (0x4)
                0xa0000038                . = .
                0xa0008030                _gp = (ALIGN (0x10) + 0x7ff0)

.got            0xa0000038        0x0
 *(.got.plt)
 *(.got)
                0xa0000038                . = ALIGN (0x4)

.sdata          0xa0000038        0xc
                0xa0000038                _sdata_begin = .
 *(.sdata .sdata.* .gnu.linkonce.s.*)
 .sdata         0xa0000038        0x4 c:/program files/microchip/xc32/v1.40/bin/bin/../../lib/gcc/pic32mx/4.8.3/no-float/crtbegin.o
                0xa0000038                __dso_handle
 .sdata         0xa000003c        0x4 build/PINGUINO/production/_ext/1935080774/eosTask.o
 .sdata         0xa0000040        0x4 build/PINGUINO/production/_ext/1298945782/port.o
                0xa0000040                uxInterruptNesting
                0xa0000044                . = ALIGN (0x4)
                0xa0000044                _sdata_end = .

.lit8
 *(.lit8)

.lit4
 *(.lit4)
                0xa0000044                . = ALIGN (0x4)
                0xa0000044                _data_end = .
                0xa0000044                _bss_begin = .

.sbss           0xa0000044       0x78
                0xa0000044                _sbss_begin = .
 *(.dynsbss)
 *(.sbss .sbss.* .gnu.linkonce.sb.*)
 .sbss          0xa0000044       0x3c build/PINGUINO/production/_ext/2129976512/tasks.o
                0xa0000044                pxCurrentTCB
 .sbss          0xa0000080       0x14 build/PINGUINO/production/_ext/2129976512/timers.o
 .sbss          0xa0000094        0x4 build/PINGUINO/production/_ext/1298945782/port.o
                0xa0000094                uxSavedTaskStackPointer
 .sbss          0xa0000098       0x18 build/PINGUINO/production/_ext/696550819/heap_4.o
 *(.scommon)
 .scommon       0xa00000b0        0x8 build/PINGUINO/production/_ext/1705198617/system_init.o
                0xa00000b0                drvUSBObject
                0xa00000b4                usbDevObject0
 .scommon       0xa00000b8        0x2 build/PINGUINO/production/_ext/1663442938/usb_device_cdc.o
                0xa00000b8                gUSBDeviceCdcCommonDataObj
                0xa00000ba                _sbss_end = .
                0xa00000bc                . = ALIGN (0x4)
 *fill*         0xa00000ba        0x2 

.bss            0xa0000200      0x248
 *(.dynbss)
 *(COMMON)
 COMMON         0xa0000200       0x60 build/PINGUINO/production/_ext/1705198617/system_init.o
                0xa0000200                endPointTable
 COMMON         0xa0000260       0x74 build/PINGUINO/production/_ext/1705198617/app.o
                0xa0000260                readBuffer
                0xa00002a0                appData
 COMMON         0xa00002d4       0xc8 build/PINGUINO/production/_ext/1643514105/drv_usbfs.o
                0xa00002d4                gDrvUSBGroup
 COMMON         0xa000039c       0xac build/PINGUINO/production/_ext/1663442938/usb_device_cdc.o
                0xa000039c                gUSBDeviceCDCInstance
                0xa00003dc                gUSBDeviceCDCIRP
                0xa0000448                . = ALIGN ((. != 0x0)?0x4:0x1)
                0xa0000448                . = ALIGN (0x4)
                0xa0000448                _end = .
                0xa0000448                _bss_end = .
                0x00008000                _bmxdudba_address = 0x8000
                0x00008000                _bmxdupba_address = 0x8000

/DISCARD/
 *(.pdr)
 *(.rel.dyn)
 *(.note.GNU-stack)
 *(.note.GNU-stack)
 *(.gnu_debuglink)
 *(.gnu.lto_*)
 *(.discard)

.gptab.sdata
 *(.gptab.data)
 *(.gptab.sdata)

.gptab.sbss
 *(.gptab.bss)
 *(.gptab.sbss)

.mdebug.abi32   0xa0000448        0x0
 *(.mdebug.abi32)
 .mdebug.abi32  0xa0000448        0x0 c:/program files/microchip/xc32/v1.40/bin/bin/../../lib/gcc/pic32mx/4.8.3/no-float/crtbegin.o
 .mdebug.abi32  0xa0000448        0x0 build/PINGUINO/production/_ext/1472/Main.o
 .mdebug.abi32  0xa0000448        0x0 build/PINGUINO/production/_ext/1472/rtos_hooks.o
 .mdebug.abi32  0xa0000448        0x0 build/PINGUINO/production/_ext/1472/Config.o
 .mdebug.abi32  0xa0000448        0x0 build/PINGUINO/production/_ext/55825582/halSYS.o
 .mdebug.abi32  0xa0000448        0x0 build/PINGUINO/production/_ext/1705198617/system_init.o
 .mdebug.abi32  0xa0000448        0x0 build/PINGUINO/production/_ext/1705198617/app.o
 .mdebug.abi32  0xa0000448        0x0 build/PINGUINO/production/_ext/2012494728/eosUsbClient.o
 .mdebug.abi32  0xa0000448        0x0 build/PINGUINO/production/_ext/863068963/eosAppLoop.o
 .mdebug.abi32  0xa0000448        0x0 build/PINGUINO/production/_ext/1935080774/eosTask.o
 .mdebug.abi32  0xa0000448        0x0 build/PINGUINO/production/_ext/1315484212/eosApplication.o
 .mdebug.abi32  0xa0000448        0x0 build/PINGUINO/production/_ext/2129976512/tasks.o
 .mdebug.abi32  0xa0000448        0x0 build/PINGUINO/production/_ext/2129976512/queue.o
 .mdebug.abi32  0xa0000448        0x0 build/PINGUINO/production/_ext/2129976512/timers.o
 .mdebug.abi32  0xa0000448        0x0 build/PINGUINO/production/_ext/1298945782/port.o
 .mdebug.abi32  0xa0000448        0x0 build/PINGUINO/production/_ext/696550819/heap_4.o
 .mdebug.abi32  0xa0000448        0x0 build/PINGUINO/production/_ext/2129976512/list.o
 .mdebug.abi32  0xa0000448        0x0 build/PINGUINO/production/_ext/1643514105/drv_usbfs.o
 .mdebug.abi32  0xa0000448        0x0 build/PINGUINO/production/_ext/1643514105/drv_usbfs_device.o
 .mdebug.abi32  0xa0000448        0x0 build/PINGUINO/production/_ext/1712295097/sys_int_pic32.o
 .mdebug.abi32  0xa0000448        0x0 build/PINGUINO/production/_ext/1663442938/usb_device_cdc.o
 .mdebug.abi32  0xa0000448        0x0 build/PINGUINO/production/_ext/1663442938/usb_device.o
 .mdebug.abi32  0xa0000448        0x0 build/PINGUINO/production/_ext/1663442938/usb_device_cdc_acm.o
 .mdebug.abi32  0xa0000448        0x0 ..\..\..\..\..\..\..\..\..\..\microchip\harmony\v1_07_01\bin\framework\peripheral\PIC32MX440F256H_peripherals.a(peripheral.o)
 .mdebug.abi32  0xa0000448        0x0 c:/program files/microchip/xc32/v1.40/bin/bin/../../lib/gcc/pic32mx/4.8.3/../../../../pic32mx/lib/no-float\libsupc++.a(del_op.o)
 .mdebug.abi32  0xa0000448        0x0 c:/program files/microchip/xc32/v1.40/bin/bin/../../lib/gcc/pic32mx/4.8.3/../../../../pic32mx/lib/no-float\libsupc++.a(new_op.o)
 .mdebug.abi32  0xa0000448        0x0 c:/program files/microchip/xc32/v1.40/bin/bin/../../lib/gcc/pic32mx/4.8.3/../../../../pic32mx/lib/no-float\libsupc++.a(pure.o)
 .mdebug.abi32  0xa0000448        0x0 c:/program files/microchip/xc32/v1.40/bin/bin/../../lib/gcc/pic32mx/4.8.3/../../../../pic32mx/lib/no-float\libsupc++.a(bad_alloc.o)
 .mdebug.abi32  0xa0000448        0x0 c:/program files/microchip/xc32/v1.40/bin/bin/../../lib/gcc/pic32mx/4.8.3/../../../../pic32mx/lib/no-float\libsupc++.a(eh_alloc.o)
 .mdebug.abi32  0xa0000448        0x0 c:/program files/microchip/xc32/v1.40/bin/bin/../../lib/gcc/pic32mx/4.8.3/../../../../pic32mx/lib/no-float\libsupc++.a(eh_exception.o)
 .mdebug.abi32  0xa0000448        0x0 c:/program files/microchip/xc32/v1.40/bin/bin/../../lib/gcc/pic32mx/4.8.3/../../../../pic32mx/lib/no-float\libsupc++.a(eh_terminate.o)
 .mdebug.abi32  0xa0000448        0x0 c:/program files/microchip/xc32/v1.40/bin/bin/../../lib/gcc/pic32mx/4.8.3/../../../../pic32mx/lib/no-float\libsupc++.a(eh_throw.o)
 .mdebug.abi32  0xa0000448        0x0 c:/program files/microchip/xc32/v1.40/bin/bin/../../lib/gcc/pic32mx/4.8.3/../../../../pic32mx/lib/no-float\libsupc++.a(eh_unex_handler.o)
 .mdebug.abi32  0xa0000448        0x0 c:/program files/microchip/xc32/v1.40/bin/bin/../../lib/gcc/pic32mx/4.8.3/../../../../pic32mx/lib/no-float\libsupc++.a(new_handler.o)
 .mdebug.abi32  0xa0000448        0x0 c:/program files/microchip/xc32/v1.40/bin/bin/../../lib/gcc/pic32mx/4.8.3/../../../../pic32mx/lib/no-float\libsupc++.a(si_class_type_info.o)
 .mdebug.abi32  0xa0000448        0x0 c:/program files/microchip/xc32/v1.40/bin/bin/../../lib/gcc/pic32mx/4.8.3/../../../../pic32mx/lib/no-float\libsupc++.a(tinfo.o)
 .mdebug.abi32  0xa0000448        0x0 c:/program files/microchip/xc32/v1.40/bin/bin/../../lib/gcc/pic32mx/4.8.3/../../../../pic32mx/lib/no-float\libsupc++.a(class_type_info.o)
 .mdebug.abi32  0xa0000448        0x0 c:/program files/microchip/xc32/v1.40/bin/bin/../../lib/gcc/pic32mx/4.8.3/../../../../pic32mx/lib/no-float\libsupc++.a(eh_catch.o)
 .mdebug.abi32  0xa0000448        0x0 c:/program files/microchip/xc32/v1.40/bin/bin/../../lib/gcc/pic32mx/4.8.3/../../../../pic32mx/lib/no-float\libsupc++.a(eh_globals.o)
 .mdebug.abi32  0xa0000448        0x0 c:/program files/microchip/xc32/v1.40/bin/bin/../../lib/gcc/pic32mx/4.8.3/../../../../pic32mx/lib/no-float\libsupc++.a(eh_personality.o)
 .mdebug.abi32  0xa0000448        0x0 c:/program files/microchip/xc32/v1.40/bin/bin/../../lib/gcc/pic32mx/4.8.3/../../../../pic32mx/lib/no-float\libsupc++.a(eh_term_handler.o)
 .mdebug.abi32  0xa0000448        0x0 c:/program files/microchip/xc32/v1.40/bin/bin/../../lib/gcc/pic32mx/4.8.3/../../../../pic32mx/lib/no-float\libsupc++.a(eh_call.o)
 .mdebug.abi32  0xa0000448        0x0 c:/program files/microchip/xc32/v1.40/bin/bin/../../lib/gcc/pic32mx/4.8.3/../../../../pic32mx/lib/no-float\libxcpp.a(abort.o)
 .mdebug.abi32  0xa0000448        0x0 c:/program files/microchip/xc32/v1.40/bin/bin/../../lib/gcc/pic32mx/4.8.3/../../../../pic32mx/lib/no-float\libxcpp.a(abs.o)
 .mdebug.abi32  0xa0000448        0x0 c:/program files/microchip/xc32/v1.40/bin/bin/../../lib/gcc/pic32mx/4.8.3/../../../../pic32mx/lib/no-float\libxcpp.a(exit.o)
 .mdebug.abi32  0xa0000448        0x0 c:/program files/microchip/xc32/v1.40/bin/bin/../../lib/gcc/pic32mx/4.8.3/../../../../pic32mx/lib/no-float\libxcpp.a(free.o)
 .mdebug.abi32  0xa0000448        0x0 c:/program files/microchip/xc32/v1.40/bin/bin/../../lib/gcc/pic32mx/4.8.3/../../../../pic32mx/lib/no-float\libxcpp.a(malloc.o)
 .mdebug.abi32  0xa0000448        0x0 c:/program files/microchip/xc32/v1.40/bin/bin/../../lib/gcc/pic32mx/4.8.3/../../../../pic32mx/lib/no-float\libxcpp.a(memcpy.o)
 .mdebug.abi32  0xa0000448        0x0 c:/program files/microchip/xc32/v1.40/bin/bin/../../lib/gcc/pic32mx/4.8.3/../../../../pic32mx/lib/no-float\libxcpp.a(memset.o)
 .mdebug.abi32  0xa0000448        0x0 c:/program files/microchip/xc32/v1.40/bin/bin/../../lib/gcc/pic32mx/4.8.3/../../../../pic32mx/lib/no-float\libxcpp.a(raise.o)
 .mdebug.abi32  0xa0000448        0x0 c:/program files/microchip/xc32/v1.40/bin/bin/../../lib/gcc/pic32mx/4.8.3/../../../../pic32mx/lib/no-float\libxcpp.a(strcmp.o)
 .mdebug.abi32  0xa0000448        0x0 c:/program files/microchip/xc32/v1.40/bin/bin/../../lib/gcc/pic32mx/4.8.3/../../../../pic32mx/lib/no-float\libxcpp.a(xexit.o)
 .mdebug.abi32  0xa0000448        0x0 c:/program files/microchip/xc32/v1.40/bin/bin/../../lib/gcc/pic32mx/4.8.3/../../../../pic32mx/lib/no-float\libxcpp.a(xgetmem.o)
 .mdebug.abi32  0xa0000448        0x0 c:/program files/microchip/xc32/v1.40/bin/bin/../../lib/gcc/pic32mx/4.8.3/no-float\libgcc.a(unwind-sjlj.o)
 .mdebug.abi32  0xa0000448        0x0 c:/program files/microchip/xc32/v1.40/bin/bin/../../lib/gcc/pic32mx/4.8.3/../../../../pic32mx/lib/no-float\libpic32.a(sbrk.o)
 .mdebug.abi32  0xa0000448        0x0 c:/program files/microchip/xc32/v1.40/bin/bin/../../lib/gcc/pic32mx/4.8.3/../../../../pic32mx/lib/no-float\libpic32.a(default-bootstrap-exception-handler.o)
 .mdebug.abi32  0xa0000448        0x0 c:/program files/microchip/xc32/v1.40/bin/bin/../../lib/gcc/pic32mx/4.8.3/../../../../pic32mx/lib/no-float\libpic32.a(default-on-reset.o)
 .mdebug.abi32  0xa0000448        0x0 c:/program files/microchip/xc32/v1.40/bin/bin/../../lib/gcc/pic32mx/4.8.3/../../../../pic32mx/lib/no-float\libpic32.a(default-on-bootstrap.o)
 .mdebug.abi32  0xa0000448        0x0 c:/program files/microchip/xc32/v1.40/bin/bin/../../lib/gcc/pic32mx/4.8.3/../../../../pic32mx/lib/no-float\libpic32.a(_exit.o)
 .mdebug.abi32  0xa0000448        0x0 c:/program files/microchip/xc32/v1.40/bin/bin/../../lib/gcc/pic32mx/4.8.3/../../../../pic32mx/lib/no-float\libpic32.a(kill.o)
 .mdebug.abi32  0xa0000448        0x0 c:/program files/microchip/xc32/v1.40/bin/bin/../../lib/gcc/pic32mx/4.8.3/../../../../pic32mx/lib/no-float\libpic32.a(getpid.o)
 .mdebug.abi32  0xa0000448        0x0 c:/program files/microchip/xc32/v1.40/bin/bin/../../lib/gcc/pic32mx/4.8.3/../../../../pic32mx/lib/no-float\libpic32.a(errno.o)
 .mdebug.abi32  0xa0000448        0x0 c:/program files/microchip/xc32/v1.40/bin/bin/../../lib/gcc/pic32mx/4.8.3/../../../../pic32mx/lib/no-float\libpic32.a(default-general-exception-handler.o)
 .mdebug.abi32  0xa0000448        0x0 c:/program files/microchip/xc32/v1.40/bin/bin/../../lib/gcc/pic32mx/4.8.3/../../../../pic32mx/lib/no-float\libpic32.a(defaultinterrupt.o)
 .mdebug.abi32  0xa0000448        0x0 c:/program files/microchip/xc32/v1.40/bin/bin/../../lib/gcc/pic32mx/4.8.3/no-float/crtend.o

.mdebug.abiN32
 *(.mdebug.abiN32)

.mdebug.abi64
 *(.mdebug.abi64)

.mdebug.abiO64
 *(.mdebug.abiO64)

.mdebug.eabi32
 *(.mdebug.eabi32)

.mdebug.eabi64
 *(.mdebug.eabi64)

.gcc_compiled_long32
 *(.gcc_compiled_long32)

.gcc_compiled_long64
 *(.gcc_compiled_long64)

.stab
 *(.stab)

.stabstr
 *(.stabstr)

.stab.excl
 *(.stab.excl)

.stab.exclstr
 *(.stab.exclstr)

.stab.index
 *(.stab.index)

.stab.indexstr
 *(.stab.indexstr)

.comment        0x00000000       0x87
 *(.comment)
 .comment       0x00000000       0x3c c:/program files/microchip/xc32/v1.40/bin/bin/../../lib/gcc/pic32mx/4.8.3/no-float/crtbegin.o
                                 0x3d (size before relaxing)
 .comment       0x00000000       0x3d build/PINGUINO/production/_ext/1472/Main.o
 .comment       0x00000000       0x3d build/PINGUINO/production/_ext/1472/rtos_hooks.o
 .comment       0x00000000       0x3d build/PINGUINO/production/_ext/1472/Config.o
 .comment       0x00000000       0x3d build/PINGUINO/production/_ext/55825582/halSYS.o
 .comment       0x00000000       0x3d build/PINGUINO/production/_ext/1705198617/system_init.o
 .comment       0x00000000       0x3d build/PINGUINO/production/_ext/1705198617/app.o
 .comment       0x00000000       0x3d build/PINGUINO/production/_ext/2012494728/eosUsbClient.o
 .comment       0x00000000       0x3d build/PINGUINO/production/_ext/863068963/eosAppLoop.o
 .comment       0x00000000       0x3d build/PINGUINO/production/_ext/1935080774/eosTask.o
 .comment       0x00000000       0x3d build/PINGUINO/production/_ext/1315484212/eosApplication.o
 .comment       0x00000000       0x3d build/PINGUINO/production/_ext/2129976512/tasks.o
 .comment       0x00000000       0x3d build/PINGUINO/production/_ext/2129976512/queue.o
 .comment       0x00000000       0x3d build/PINGUINO/production/_ext/2129976512/timers.o
 .comment       0x00000000       0x3d build/PINGUINO/production/_ext/1298945782/port.o
 .comment       0x00000000       0x3d build/PINGUINO/production/_ext/696550819/heap_4.o
 .comment       0x00000000       0x3d build/PINGUINO/production/_ext/2129976512/list.o
 .comment       0x00000000       0x3d build/PINGUINO/production/_ext/1643514105/drv_usbfs.o
 .comment       0x00000000       0x3d build/PINGUINO/production/_ext/1643514105/drv_usbfs_device.o
 .comment       0x00000000       0x3d build/PINGUINO/production/_ext/1712295097/sys_int_pic32.o
 .comment       0x00000000       0x3d build/PINGUINO/production/_ext/1663442938/usb_device_cdc.o
 .comment       0x00000000       0x3d build/PINGUINO/production/_ext/1663442938/usb_device.o
 .comment       0x00000000       0x3d build/PINGUINO/production/_ext/1663442938/usb_device_cdc_acm.o
 .comment       0x00000000       0x3d ..\..\..\..\..\..\..\..\..\..\microchip\harmony\v1_07_01\bin\framework\peripheral\PIC32MX440F256H_peripherals.a(peripheral.o)
 .comment       0x00000000       0x3d c:/program files/microchip/xc32/v1.40/bin/bin/../../lib/gcc/pic32mx/4.8.3/../../../../pic32mx/lib/no-float\libsupc++.a(del_op.o)
 .comment       0x00000000       0x3d c:/program files/microchip/xc32/v1.40/bin/bin/../../lib/gcc/pic32mx/4.8.3/../../../../pic32mx/lib/no-float\libsupc++.a(new_op.o)
 .comment       0x00000000       0x3d c:/program files/microchip/xc32/v1.40/bin/bin/../../lib/gcc/pic32mx/4.8.3/../../../../pic32mx/lib/no-float\libsupc++.a(pure.o)
 .comment       0x00000000       0x3d c:/program files/microchip/xc32/v1.40/bin/bin/../../lib/gcc/pic32mx/4.8.3/../../../../pic32mx/lib/no-float\libsupc++.a(bad_alloc.o)
 .comment       0x00000000       0x3d c:/program files/microchip/xc32/v1.40/bin/bin/../../lib/gcc/pic32mx/4.8.3/../../../../pic32mx/lib/no-float\libsupc++.a(eh_alloc.o)
 .comment       0x00000000       0x3d c:/program files/microchip/xc32/v1.40/bin/bin/../../lib/gcc/pic32mx/4.8.3/../../../../pic32mx/lib/no-float\libsupc++.a(eh_exception.o)
 .comment       0x00000000       0x3d c:/program files/microchip/xc32/v1.40/bin/bin/../../lib/gcc/pic32mx/4.8.3/../../../../pic32mx/lib/no-float\libsupc++.a(eh_terminate.o)
 .comment       0x00000000       0x3d c:/program files/microchip/xc32/v1.40/bin/bin/../../lib/gcc/pic32mx/4.8.3/../../../../pic32mx/lib/no-float\libsupc++.a(eh_throw.o)
 .comment       0x00000000       0x3d c:/program files/microchip/xc32/v1.40/bin/bin/../../lib/gcc/pic32mx/4.8.3/../../../../pic32mx/lib/no-float\libsupc++.a(eh_unex_handler.o)
 .comment       0x00000000       0x3d c:/program files/microchip/xc32/v1.40/bin/bin/../../lib/gcc/pic32mx/4.8.3/../../../../pic32mx/lib/no-float\libsupc++.a(new_handler.o)
 .comment       0x00000000       0x3d c:/program files/microchip/xc32/v1.40/bin/bin/../../lib/gcc/pic32mx/4.8.3/../../../../pic32mx/lib/no-float\libsupc++.a(si_class_type_info.o)
 .comment       0x00000000       0x3d c:/program files/microchip/xc32/v1.40/bin/bin/../../lib/gcc/pic32mx/4.8.3/../../../../pic32mx/lib/no-float\libsupc++.a(tinfo.o)
 .comment       0x00000000       0x3d c:/program files/microchip/xc32/v1.40/bin/bin/../../lib/gcc/pic32mx/4.8.3/../../../../pic32mx/lib/no-float\libsupc++.a(class_type_info.o)
 .comment       0x00000000       0x3d c:/program files/microchip/xc32/v1.40/bin/bin/../../lib/gcc/pic32mx/4.8.3/../../../../pic32mx/lib/no-float\libsupc++.a(eh_catch.o)
 .comment       0x00000000       0x3d c:/program files/microchip/xc32/v1.40/bin/bin/../../lib/gcc/pic32mx/4.8.3/../../../../pic32mx/lib/no-float\libsupc++.a(eh_globals.o)
 .comment       0x00000000       0x3d c:/program files/microchip/xc32/v1.40/bin/bin/../../lib/gcc/pic32mx/4.8.3/../../../../pic32mx/lib/no-float\libsupc++.a(eh_personality.o)
 .comment       0x00000000       0x3d c:/program files/microchip/xc32/v1.40/bin/bin/../../lib/gcc/pic32mx/4.8.3/../../../../pic32mx/lib/no-float\libsupc++.a(eh_term_handler.o)
 .comment       0x00000000       0x3d c:/program files/microchip/xc32/v1.40/bin/bin/../../lib/gcc/pic32mx/4.8.3/../../../../pic32mx/lib/no-float\libsupc++.a(eh_call.o)
 .comment       0x00000000       0x3d c:/program files/microchip/xc32/v1.40/bin/bin/../../lib/gcc/pic32mx/4.8.3/../../../../pic32mx/lib/no-float\libxcpp.a(abort.o)
 .comment       0x00000000       0x3d c:/program files/microchip/xc32/v1.40/bin/bin/../../lib/gcc/pic32mx/4.8.3/../../../../pic32mx/lib/no-float\libxcpp.a(abs.o)
 .comment       0x00000000       0x3d c:/program files/microchip/xc32/v1.40/bin/bin/../../lib/gcc/pic32mx/4.8.3/../../../../pic32mx/lib/no-float\libxcpp.a(exit.o)
 .comment       0x00000000       0x3d c:/program files/microchip/xc32/v1.40/bin/bin/../../lib/gcc/pic32mx/4.8.3/../../../../pic32mx/lib/no-float\libxcpp.a(free.o)
 .comment       0x00000000       0x3d c:/program files/microchip/xc32/v1.40/bin/bin/../../lib/gcc/pic32mx/4.8.3/../../../../pic32mx/lib/no-float\libxcpp.a(malloc.o)
 .comment       0x00000000       0x3d c:/program files/microchip/xc32/v1.40/bin/bin/../../lib/gcc/pic32mx/4.8.3/../../../../pic32mx/lib/no-float\libxcpp.a(memcpy.o)
 .comment       0x00000000       0x3d c:/program files/microchip/xc32/v1.40/bin/bin/../../lib/gcc/pic32mx/4.8.3/../../../../pic32mx/lib/no-float\libxcpp.a(memset.o)
 .comment       0x00000000       0x3d c:/program files/microchip/xc32/v1.40/bin/bin/../../lib/gcc/pic32mx/4.8.3/../../../../pic32mx/lib/no-float\libxcpp.a(raise.o)
 .comment       0x00000000       0x3d c:/program files/microchip/xc32/v1.40/bin/bin/../../lib/gcc/pic32mx/4.8.3/../../../../pic32mx/lib/no-float\libxcpp.a(strcmp.o)
 .comment       0x00000000       0x3d c:/program files/microchip/xc32/v1.40/bin/bin/../../lib/gcc/pic32mx/4.8.3/../../../../pic32mx/lib/no-float\libxcpp.a(xexit.o)
 .comment       0x00000000       0x3d c:/program files/microchip/xc32/v1.40/bin/bin/../../lib/gcc/pic32mx/4.8.3/../../../../pic32mx/lib/no-float\libxcpp.a(xgetmem.o)
 .comment       0x00000000       0x3d c:/program files/microchip/xc32/v1.40/bin/bin/../../lib/gcc/pic32mx/4.8.3/no-float\libgcc.a(unwind-sjlj.o)
 .comment       0x0000003c       0x4b c:/program files/microchip/xc32/v1.40/bin/bin/../../lib/gcc/pic32mx/4.8.3/../../../../pic32mx/lib/no-float\libpic32.a(sbrk.o)
                                 0x88 (size before relaxing)
 .comment       0x00000000       0x3d c:/program files/microchip/xc32/v1.40/bin/bin/../../lib/gcc/pic32mx/4.8.3/../../../../pic32mx/lib/no-float\libpic32.a(default-bootstrap-exception-handler.o)
 .comment       0x00000000       0x3d c:/program files/microchip/xc32/v1.40/bin/bin/../../lib/gcc/pic32mx/4.8.3/../../../../pic32mx/lib/no-float\libpic32.a(default-on-reset.o)
 .comment       0x00000000       0x3d c:/program files/microchip/xc32/v1.40/bin/bin/../../lib/gcc/pic32mx/4.8.3/../../../../pic32mx/lib/no-float\libpic32.a(default-on-bootstrap.o)
 .comment       0x00000000       0x3d c:/program files/microchip/xc32/v1.40/bin/bin/../../lib/gcc/pic32mx/4.8.3/../../../../pic32mx/lib/no-float\libpic32.a(_exit.o)
 .comment       0x00000000       0x3d c:/program files/microchip/xc32/v1.40/bin/bin/../../lib/gcc/pic32mx/4.8.3/../../../../pic32mx/lib/no-float\libpic32.a(kill.o)
 .comment       0x00000000       0x3d c:/program files/microchip/xc32/v1.40/bin/bin/../../lib/gcc/pic32mx/4.8.3/../../../../pic32mx/lib/no-float\libpic32.a(getpid.o)
 .comment       0x00000000       0x3d c:/program files/microchip/xc32/v1.40/bin/bin/../../lib/gcc/pic32mx/4.8.3/../../../../pic32mx/lib/no-float\libpic32.a(errno.o)
 .comment       0x00000000       0x3d c:/program files/microchip/xc32/v1.40/bin/bin/../../lib/gcc/pic32mx/4.8.3/../../../../pic32mx/lib/no-float\libpic32.a(default-general-exception-handler.o)
 .comment       0x00000000       0x3d c:/program files/microchip/xc32/v1.40/bin/bin/../../lib/gcc/pic32mx/4.8.3/../../../../pic32mx/lib/no-float\libpic32.a(defaultinterrupt.o)
 .comment       0x00000000       0x3d c:/program files/microchip/xc32/v1.40/bin/bin/../../lib/gcc/pic32mx/4.8.3/no-float/crtend.o

.debug
 *(.debug)

.line
 *(.line)

.debug_srcinfo
 *(.debug_srcinfo)

.debug_sfnames
 *(.debug_sfnames)

.debug_aranges  0x00000000      0xce8
 *(.debug_aranges)
 .debug_aranges
                0x00000000       0x58 build/PINGUINO/production/_ext/1472/Main.o
 .debug_aranges
                0x00000058       0x40 build/PINGUINO/production/_ext/1472/rtos_hooks.o
 .debug_aranges
                0x00000098       0x18 build/PINGUINO/production/_ext/1472/Config.o
 .debug_aranges
                0x000000b0       0x28 build/PINGUINO/production/_ext/55825582/halSYS.o
 .debug_aranges
                0x000000d8       0x30 build/PINGUINO/production/_ext/1705198617/system_init.o
 .debug_aranges
                0x00000108       0x40 build/PINGUINO/production/_ext/1705198617/app.o
 .debug_aranges
                0x00000148       0x30 build/PINGUINO/production/_ext/2012494728/eosUsbClient.o
 .debug_aranges
                0x00000178       0x40 build/PINGUINO/production/_ext/863068963/eosAppLoop.o
 .debug_aranges
                0x000001b8       0x70 build/PINGUINO/production/_ext/1935080774/eosTask.o
 .debug_aranges
                0x00000228       0x40 build/PINGUINO/production/_ext/1315484212/eosApplication.o
 .debug_aranges
                0x00000268      0x1b0 build/PINGUINO/production/_ext/2129976512/tasks.o
 .debug_aranges
                0x00000418       0xd8 build/PINGUINO/production/_ext/2129976512/queue.o
 .debug_aranges
                0x000004f0       0xb8 build/PINGUINO/production/_ext/2129976512/timers.o
 .debug_aranges
                0x000005a8       0x58 build/PINGUINO/production/_ext/1298945782/port.o
 .debug_aranges
                0x00000600       0x20 build/PINGUINO/production/_ext/1298945782/port_asm.o
 .debug_aranges
                0x00000620       0x50 build/PINGUINO/production/_ext/696550819/heap_4.o
 .debug_aranges
                0x00000670       0x40 build/PINGUINO/production/_ext/2129976512/list.o
 .debug_aranges
                0x000006b0       0x70 build/PINGUINO/production/_ext/1643514105/drv_usbfs.o
 .debug_aranges
                0x00000720       0xb8 build/PINGUINO/production/_ext/1643514105/drv_usbfs_device.o
 .debug_aranges
                0x000007d8       0x48 build/PINGUINO/production/_ext/1712295097/sys_int_pic32.o
 .debug_aranges
                0x00000820       0x88 build/PINGUINO/production/_ext/1663442938/usb_device_cdc.o
 .debug_aranges
                0x000008a8      0x150 build/PINGUINO/production/_ext/1663442938/usb_device.o
 .debug_aranges
                0x000009f8       0x20 build/PINGUINO/production/_ext/1663442938/usb_device_cdc_acm.o
 .debug_aranges
                0x00000a18       0x20 c:/program files/microchip/xc32/v1.40/bin/bin/../../lib/gcc/pic32mx/4.8.3/../../../../pic32mx/lib/no-float\libxcpp.a(abort.o)
 .debug_aranges
                0x00000a38       0x20 c:/program files/microchip/xc32/v1.40/bin/bin/../../lib/gcc/pic32mx/4.8.3/../../../../pic32mx/lib/no-float\libxcpp.a(abs.o)
 .debug_aranges
                0x00000a58       0x30 c:/program files/microchip/xc32/v1.40/bin/bin/../../lib/gcc/pic32mx/4.8.3/../../../../pic32mx/lib/no-float\libxcpp.a(exit.o)
 .debug_aranges
                0x00000a88       0x20 c:/program files/microchip/xc32/v1.40/bin/bin/../../lib/gcc/pic32mx/4.8.3/../../../../pic32mx/lib/no-float\libxcpp.a(free.o)
 .debug_aranges
                0x00000aa8       0x20 c:/program files/microchip/xc32/v1.40/bin/bin/../../lib/gcc/pic32mx/4.8.3/../../../../pic32mx/lib/no-float\libxcpp.a(malloc.o)
 .debug_aranges
                0x00000ac8       0x20 c:/program files/microchip/xc32/v1.40/bin/bin/../../lib/gcc/pic32mx/4.8.3/../../../../pic32mx/lib/no-float\libxcpp.a(memcpy.o)
 .debug_aranges
                0x00000ae8       0x20 c:/program files/microchip/xc32/v1.40/bin/bin/../../lib/gcc/pic32mx/4.8.3/../../../../pic32mx/lib/no-float\libxcpp.a(memset.o)
 .debug_aranges
                0x00000b08       0x20 c:/program files/microchip/xc32/v1.40/bin/bin/../../lib/gcc/pic32mx/4.8.3/../../../../pic32mx/lib/no-float\libxcpp.a(raise.o)
 .debug_aranges
                0x00000b28       0x20 c:/program files/microchip/xc32/v1.40/bin/bin/../../lib/gcc/pic32mx/4.8.3/../../../../pic32mx/lib/no-float\libxcpp.a(strcmp.o)
 .debug_aranges
                0x00000b48       0x20 c:/program files/microchip/xc32/v1.40/bin/bin/../../lib/gcc/pic32mx/4.8.3/../../../../pic32mx/lib/no-float\libxcpp.a(xexit.o)
 .debug_aranges
                0x00000b68       0x20 c:/program files/microchip/xc32/v1.40/bin/bin/../../lib/gcc/pic32mx/4.8.3/../../../../pic32mx/lib/no-float\libxcpp.a(xgetmem.o)
 .debug_aranges
                0x00000b88       0x20 c:/program files/microchip/xc32/v1.40/bin/bin/../../lib/gcc/pic32mx/4.8.3/no-float\libgcc.a(unwind-sjlj.o)
 .debug_aranges
                0x00000ba8       0x40 c:/program files/microchip/xc32/v1.40/bin/bin/../../lib/gcc/pic32mx/4.8.3/../../../../pic32mx/lib/no-float\libpic32.a(sbrk.o)
 .debug_aranges
                0x00000be8       0x20 c:/program files/microchip/xc32/v1.40/bin/bin/../../lib/gcc/pic32mx/4.8.3/../../../../pic32mx/lib/no-float\libpic32.a(default-bootstrap-exception-handler.o)
 .debug_aranges
                0x00000c08       0x20 c:/program files/microchip/xc32/v1.40/bin/bin/../../lib/gcc/pic32mx/4.8.3/../../../../pic32mx/lib/no-float\libpic32.a(default-on-reset.o)
 .debug_aranges
                0x00000c28       0x20 c:/program files/microchip/xc32/v1.40/bin/bin/../../lib/gcc/pic32mx/4.8.3/../../../../pic32mx/lib/no-float\libpic32.a(default-on-bootstrap.o)
 .debug_aranges
                0x00000c48       0x20 c:/program files/microchip/xc32/v1.40/bin/bin/../../lib/gcc/pic32mx/4.8.3/../../../../pic32mx/lib/no-float\libpic32.a(_exit.o)
 .debug_aranges
                0x00000c68       0x20 c:/program files/microchip/xc32/v1.40/bin/bin/../../lib/gcc/pic32mx/4.8.3/../../../../pic32mx/lib/no-float\libpic32.a(kill.o)
 .debug_aranges
                0x00000c88       0x20 c:/program files/microchip/xc32/v1.40/bin/bin/../../lib/gcc/pic32mx/4.8.3/../../../../pic32mx/lib/no-float\libpic32.a(getpid.o)
 .debug_aranges
                0x00000ca8       0x20 c:/program files/microchip/xc32/v1.40/bin/bin/../../lib/gcc/pic32mx/4.8.3/../../../../pic32mx/lib/no-float\libpic32.a(default-general-exception-handler.o)
 .debug_aranges
                0x00000cc8       0x20 c:/program files/microchip/xc32/v1.40/bin/bin/../../lib/gcc/pic32mx/4.8.3/../../../../pic32mx/lib/no-float\libpic32.a(defaultinterrupt.o)

.debug_pubnames
 *(.debug_pubnames)

.debug_info     0x00000000    0x2287d
 *(.debug_info .gnu.linkonce.wi.*)
 .debug_info    0x00000000      0xa78 build/PINGUINO/production/_ext/1472/Main.o
 .debug_info    0x00000a78      0x2eb build/PINGUINO/production/_ext/1472/rtos_hooks.o
 .debug_info    0x00000d63      0x39d build/PINGUINO/production/_ext/1472/Config.o
 .debug_info    0x00001100      0x609 build/PINGUINO/production/_ext/55825582/halSYS.o
 .debug_info    0x00001709     0x3f4c build/PINGUINO/production/_ext/1705198617/system_init.o
 .debug_info    0x00005655     0x31b8 build/PINGUINO/production/_ext/1705198617/app.o
 .debug_info    0x0000880d      0x7df build/PINGUINO/production/_ext/2012494728/eosUsbClient.o
 .debug_info    0x00008fec      0x7bd build/PINGUINO/production/_ext/863068963/eosAppLoop.o
 .debug_info    0x000097a9      0x965 build/PINGUINO/production/_ext/1935080774/eosTask.o
 .debug_info    0x0000a10e      0x6a8 build/PINGUINO/production/_ext/1315484212/eosApplication.o
 .debug_info    0x0000a7b6     0x1ed4 build/PINGUINO/production/_ext/2129976512/tasks.o
 .debug_info    0x0000c68a     0x10fd build/PINGUINO/production/_ext/2129976512/queue.o
 .debug_info    0x0000d787      0xe39 build/PINGUINO/production/_ext/2129976512/timers.o
 .debug_info    0x0000e5c0      0xd02 build/PINGUINO/production/_ext/1298945782/port.o
 .debug_info    0x0000f2c2       0xe3 build/PINGUINO/production/_ext/1298945782/port_asm.o
 .debug_info    0x0000f3a5      0x5b2 build/PINGUINO/production/_ext/696550819/heap_4.o
 .debug_info    0x0000f957      0x4a0 build/PINGUINO/production/_ext/2129976512/list.o
 .debug_info    0x0000fdf7     0x2430 build/PINGUINO/production/_ext/1643514105/drv_usbfs.o
 .debug_info    0x00012227     0x3516 build/PINGUINO/production/_ext/1643514105/drv_usbfs_device.o
 .debug_info    0x0001573d      0xb03 build/PINGUINO/production/_ext/1712295097/sys_int_pic32.o
 .debug_info    0x00016240     0x490f build/PINGUINO/production/_ext/1663442938/usb_device_cdc.o
 .debug_info    0x0001ab4f     0x4ae7 build/PINGUINO/production/_ext/1663442938/usb_device.o
 .debug_info    0x0001f636     0x115c build/PINGUINO/production/_ext/1663442938/usb_device_cdc_acm.o
 .debug_info    0x00020792       0xa5 c:/program files/microchip/xc32/v1.40/bin/bin/../../lib/gcc/pic32mx/4.8.3/../../../../pic32mx/lib/no-float\libxcpp.a(abort.o)
 .debug_info    0x00020837       0xa1 c:/program files/microchip/xc32/v1.40/bin/bin/../../lib/gcc/pic32mx/4.8.3/../../../../pic32mx/lib/no-float\libxcpp.a(abs.o)
 .debug_info    0x000208d8       0xd3 c:/program files/microchip/xc32/v1.40/bin/bin/../../lib/gcc/pic32mx/4.8.3/../../../../pic32mx/lib/no-float\libxcpp.a(exit.o)
 .debug_info    0x000209ab       0xa3 c:/program files/microchip/xc32/v1.40/bin/bin/../../lib/gcc/pic32mx/4.8.3/../../../../pic32mx/lib/no-float\libxcpp.a(free.o)
 .debug_info    0x00020a4e       0xb3 c:/program files/microchip/xc32/v1.40/bin/bin/../../lib/gcc/pic32mx/4.8.3/../../../../pic32mx/lib/no-float\libxcpp.a(malloc.o)
 .debug_info    0x00020b01       0xa7 c:/program files/microchip/xc32/v1.40/bin/bin/../../lib/gcc/pic32mx/4.8.3/../../../../pic32mx/lib/no-float\libxcpp.a(memcpy.o)
 .debug_info    0x00020ba8       0xa7 c:/program files/microchip/xc32/v1.40/bin/bin/../../lib/gcc/pic32mx/4.8.3/../../../../pic32mx/lib/no-float\libxcpp.a(memset.o)
 .debug_info    0x00020c4f       0xa5 c:/program files/microchip/xc32/v1.40/bin/bin/../../lib/gcc/pic32mx/4.8.3/../../../../pic32mx/lib/no-float\libxcpp.a(raise.o)
 .debug_info    0x00020cf4       0xa7 c:/program files/microchip/xc32/v1.40/bin/bin/../../lib/gcc/pic32mx/4.8.3/../../../../pic32mx/lib/no-float\libxcpp.a(strcmp.o)
 .debug_info    0x00020d9b       0xa5 c:/program files/microchip/xc32/v1.40/bin/bin/../../lib/gcc/pic32mx/4.8.3/../../../../pic32mx/lib/no-float\libxcpp.a(xexit.o)
 .debug_info    0x00020e40       0xa9 c:/program files/microchip/xc32/v1.40/bin/bin/../../lib/gcc/pic32mx/4.8.3/../../../../pic32mx/lib/no-float\libxcpp.a(xgetmem.o)
 .debug_info    0x00020ee9     0x1255 c:/program files/microchip/xc32/v1.40/bin/bin/../../lib/gcc/pic32mx/4.8.3/no-float\libgcc.a(unwind-sjlj.o)
 .debug_info    0x0002213e      0x11a c:/program files/microchip/xc32/v1.40/bin/bin/../../lib/gcc/pic32mx/4.8.3/../../../../pic32mx/lib/no-float\libpic32.a(sbrk.o)
 .debug_info    0x00022258       0xe3 c:/program files/microchip/xc32/v1.40/bin/bin/../../lib/gcc/pic32mx/4.8.3/../../../../pic32mx/lib/no-float\libpic32.a(default-bootstrap-exception-handler.o)
 .debug_info    0x0002233b       0xbd c:/program files/microchip/xc32/v1.40/bin/bin/../../lib/gcc/pic32mx/4.8.3/../../../../pic32mx/lib/no-float\libpic32.a(default-on-reset.o)
 .debug_info    0x000223f8       0xc5 c:/program files/microchip/xc32/v1.40/bin/bin/../../lib/gcc/pic32mx/4.8.3/../../../../pic32mx/lib/no-float\libpic32.a(default-on-bootstrap.o)
 .debug_info    0x000224bd       0xae c:/program files/microchip/xc32/v1.40/bin/bin/../../lib/gcc/pic32mx/4.8.3/../../../../pic32mx/lib/no-float\libpic32.a(_exit.o)
 .debug_info    0x0002256b       0xac c:/program files/microchip/xc32/v1.40/bin/bin/../../lib/gcc/pic32mx/4.8.3/../../../../pic32mx/lib/no-float\libpic32.a(kill.o)
 .debug_info    0x00022617       0xb0 c:/program files/microchip/xc32/v1.40/bin/bin/../../lib/gcc/pic32mx/4.8.3/../../../../pic32mx/lib/no-float\libpic32.a(getpid.o)
 .debug_info    0x000226c7       0xdf c:/program files/microchip/xc32/v1.40/bin/bin/../../lib/gcc/pic32mx/4.8.3/../../../../pic32mx/lib/no-float\libpic32.a(default-general-exception-handler.o)
 .debug_info    0x000227a6       0xd7 c:/program files/microchip/xc32/v1.40/bin/bin/../../lib/gcc/pic32mx/4.8.3/../../../../pic32mx/lib/no-float\libpic32.a(defaultinterrupt.o)

.debug_abbrev   0x00000000     0x33bf
 *(.debug_abbrev)
 .debug_abbrev  0x00000000      0x2c3 build/PINGUINO/production/_ext/1472/Main.o
 .debug_abbrev  0x000002c3       0xce build/PINGUINO/production/_ext/1472/rtos_hooks.o
 .debug_abbrev  0x00000391       0xbe build/PINGUINO/production/_ext/1472/Config.o
 .debug_abbrev  0x0000044f       0xe6 build/PINGUINO/production/_ext/55825582/halSYS.o
 .debug_abbrev  0x00000535      0x1fc build/PINGUINO/production/_ext/1705198617/system_init.o
 .debug_abbrev  0x00000731      0x261 build/PINGUINO/production/_ext/1705198617/app.o
 .debug_abbrev  0x00000992      0x283 build/PINGUINO/production/_ext/2012494728/eosUsbClient.o
 .debug_abbrev  0x00000c15      0x27f build/PINGUINO/production/_ext/863068963/eosAppLoop.o
 .debug_abbrev  0x00000e94      0x278 build/PINGUINO/production/_ext/1935080774/eosTask.o
 .debug_abbrev  0x0000110c      0x1fc build/PINGUINO/production/_ext/1315484212/eosApplication.o
 .debug_abbrev  0x00001308      0x256 build/PINGUINO/production/_ext/2129976512/tasks.o
 .debug_abbrev  0x0000155e      0x175 build/PINGUINO/production/_ext/2129976512/queue.o
 .debug_abbrev  0x000016d3      0x1a2 build/PINGUINO/production/_ext/2129976512/timers.o
 .debug_abbrev  0x00001875      0x276 build/PINGUINO/production/_ext/1298945782/port.o
 .debug_abbrev  0x00001aeb       0x14 build/PINGUINO/production/_ext/1298945782/port_asm.o
 .debug_abbrev  0x00001aff      0x158 build/PINGUINO/production/_ext/696550819/heap_4.o
 .debug_abbrev  0x00001c57       0xe2 build/PINGUINO/production/_ext/2129976512/list.o
 .debug_abbrev  0x00001d39      0x327 build/PINGUINO/production/_ext/1643514105/drv_usbfs.o
 .debug_abbrev  0x00002060      0x2ec build/PINGUINO/production/_ext/1643514105/drv_usbfs_device.o
 .debug_abbrev  0x0000234c      0x11b build/PINGUINO/production/_ext/1712295097/sys_int_pic32.o
 .debug_abbrev  0x00002467      0x391 build/PINGUINO/production/_ext/1663442938/usb_device_cdc.o
 .debug_abbrev  0x000027f8      0x353 build/PINGUINO/production/_ext/1663442938/usb_device.o
 .debug_abbrev  0x00002b4b      0x168 build/PINGUINO/production/_ext/1663442938/usb_device_cdc_acm.o
 .debug_abbrev  0x00002cb3       0x28 c:/program files/microchip/xc32/v1.40/bin/bin/../../lib/gcc/pic32mx/4.8.3/../../../../pic32mx/lib/no-float\libxcpp.a(abort.o)
 .debug_abbrev  0x00002cdb       0x28 c:/program files/microchip/xc32/v1.40/bin/bin/../../lib/gcc/pic32mx/4.8.3/../../../../pic32mx/lib/no-float\libxcpp.a(abs.o)
 .debug_abbrev  0x00002d03       0x28 c:/program files/microchip/xc32/v1.40/bin/bin/../../lib/gcc/pic32mx/4.8.3/../../../../pic32mx/lib/no-float\libxcpp.a(exit.o)
 .debug_abbrev  0x00002d2b       0x28 c:/program files/microchip/xc32/v1.40/bin/bin/../../lib/gcc/pic32mx/4.8.3/../../../../pic32mx/lib/no-float\libxcpp.a(free.o)
 .debug_abbrev  0x00002d53       0x35 c:/program files/microchip/xc32/v1.40/bin/bin/../../lib/gcc/pic32mx/4.8.3/../../../../pic32mx/lib/no-float\libxcpp.a(malloc.o)
 .debug_abbrev  0x00002d88       0x28 c:/program files/microchip/xc32/v1.40/bin/bin/../../lib/gcc/pic32mx/4.8.3/../../../../pic32mx/lib/no-float\libxcpp.a(memcpy.o)
 .debug_abbrev  0x00002db0       0x28 c:/program files/microchip/xc32/v1.40/bin/bin/../../lib/gcc/pic32mx/4.8.3/../../../../pic32mx/lib/no-float\libxcpp.a(memset.o)
 .debug_abbrev  0x00002dd8       0x28 c:/program files/microchip/xc32/v1.40/bin/bin/../../lib/gcc/pic32mx/4.8.3/../../../../pic32mx/lib/no-float\libxcpp.a(raise.o)
 .debug_abbrev  0x00002e00       0x28 c:/program files/microchip/xc32/v1.40/bin/bin/../../lib/gcc/pic32mx/4.8.3/../../../../pic32mx/lib/no-float\libxcpp.a(strcmp.o)
 .debug_abbrev  0x00002e28       0x28 c:/program files/microchip/xc32/v1.40/bin/bin/../../lib/gcc/pic32mx/4.8.3/../../../../pic32mx/lib/no-float\libxcpp.a(xexit.o)
 .debug_abbrev  0x00002e50       0x28 c:/program files/microchip/xc32/v1.40/bin/bin/../../lib/gcc/pic32mx/4.8.3/../../../../pic32mx/lib/no-float\libxcpp.a(xgetmem.o)
 .debug_abbrev  0x00002e78      0x3b3 c:/program files/microchip/xc32/v1.40/bin/bin/../../lib/gcc/pic32mx/4.8.3/no-float\libgcc.a(unwind-sjlj.o)
 .debug_abbrev  0x0000322b       0x54 c:/program files/microchip/xc32/v1.40/bin/bin/../../lib/gcc/pic32mx/4.8.3/../../../../pic32mx/lib/no-float\libpic32.a(sbrk.o)
 .debug_abbrev  0x0000327f       0x28 c:/program files/microchip/xc32/v1.40/bin/bin/../../lib/gcc/pic32mx/4.8.3/../../../../pic32mx/lib/no-float\libpic32.a(default-bootstrap-exception-handler.o)
 .debug_abbrev  0x000032a7       0x28 c:/program files/microchip/xc32/v1.40/bin/bin/../../lib/gcc/pic32mx/4.8.3/../../../../pic32mx/lib/no-float\libpic32.a(default-on-reset.o)
 .debug_abbrev  0x000032cf       0x28 c:/program files/microchip/xc32/v1.40/bin/bin/../../lib/gcc/pic32mx/4.8.3/../../../../pic32mx/lib/no-float\libpic32.a(default-on-bootstrap.o)
 .debug_abbrev  0x000032f7       0x28 c:/program files/microchip/xc32/v1.40/bin/bin/../../lib/gcc/pic32mx/4.8.3/../../../../pic32mx/lib/no-float\libpic32.a(_exit.o)
 .debug_abbrev  0x0000331f       0x28 c:/program files/microchip/xc32/v1.40/bin/bin/../../lib/gcc/pic32mx/4.8.3/../../../../pic32mx/lib/no-float\libpic32.a(kill.o)
 .debug_abbrev  0x00003347       0x28 c:/program files/microchip/xc32/v1.40/bin/bin/../../lib/gcc/pic32mx/4.8.3/../../../../pic32mx/lib/no-float\libpic32.a(getpid.o)
 .debug_abbrev  0x0000336f       0x28 c:/program files/microchip/xc32/v1.40/bin/bin/../../lib/gcc/pic32mx/4.8.3/../../../../pic32mx/lib/no-float\libpic32.a(default-general-exception-handler.o)
 .debug_abbrev  0x00003397       0x28 c:/program files/microchip/xc32/v1.40/bin/bin/../../lib/gcc/pic32mx/4.8.3/../../../../pic32mx/lib/no-float\libpic32.a(defaultinterrupt.o)

.debug_line     0x00000000     0x63da
 *(.debug_line)
 .debug_line    0x00000000      0x302 build/PINGUINO/production/_ext/1472/Main.o
 .debug_line    0x00000302      0x169 build/PINGUINO/production/_ext/1472/rtos_hooks.o
 .debug_line    0x0000046b       0xc5 build/PINGUINO/production/_ext/1472/Config.o
 .debug_line    0x00000530      0x337 build/PINGUINO/production/_ext/55825582/halSYS.o
 .debug_line    0x00000867      0x49c build/PINGUINO/production/_ext/1705198617/system_init.o
 .debug_line    0x00000d03      0x3e9 build/PINGUINO/production/_ext/1705198617/app.o
 .debug_line    0x000010ec      0x207 build/PINGUINO/production/_ext/2012494728/eosUsbClient.o
 .debug_line    0x000012f3      0x224 build/PINGUINO/production/_ext/863068963/eosAppLoop.o
 .debug_line    0x00001517      0x2e8 build/PINGUINO/production/_ext/1935080774/eosTask.o
 .debug_line    0x000017ff      0x1cf build/PINGUINO/production/_ext/1315484212/eosApplication.o
 .debug_line    0x000019ce      0x8e1 build/PINGUINO/production/_ext/2129976512/tasks.o
 .debug_line    0x000022af      0x55a build/PINGUINO/production/_ext/2129976512/queue.o
 .debug_line    0x00002809      0x3e2 build/PINGUINO/production/_ext/2129976512/timers.o
 .debug_line    0x00002beb      0x233 build/PINGUINO/production/_ext/1298945782/port.o
 .debug_line    0x00002e1e      0x125 build/PINGUINO/production/_ext/1298945782/port_asm.o
 .debug_line    0x00002f43      0x215 build/PINGUINO/production/_ext/696550819/heap_4.o
 .debug_line    0x00003158      0x1d4 build/PINGUINO/production/_ext/2129976512/list.o
 .debug_line    0x0000332c      0x609 build/PINGUINO/production/_ext/1643514105/drv_usbfs.o
 .debug_line    0x00003935      0x924 build/PINGUINO/production/_ext/1643514105/drv_usbfs_device.o
 .debug_line    0x00004259      0x2b9 build/PINGUINO/production/_ext/1712295097/sys_int_pic32.o
 .debug_line    0x00004512      0x701 build/PINGUINO/production/_ext/1663442938/usb_device_cdc.o
 .debug_line    0x00004c13      0x999 build/PINGUINO/production/_ext/1663442938/usb_device.o
 .debug_line    0x000055ac      0x28a build/PINGUINO/production/_ext/1663442938/usb_device_cdc_acm.o
 .debug_line    0x00005836       0x70 c:/program files/microchip/xc32/v1.40/bin/bin/../../lib/gcc/pic32mx/4.8.3/../../../../pic32mx/lib/no-float\libxcpp.a(abort.o)
 .debug_line    0x000058a6       0x6e c:/program files/microchip/xc32/v1.40/bin/bin/../../lib/gcc/pic32mx/4.8.3/../../../../pic32mx/lib/no-float\libxcpp.a(abs.o)
 .debug_line    0x00005914       0x6f c:/program files/microchip/xc32/v1.40/bin/bin/../../lib/gcc/pic32mx/4.8.3/../../../../pic32mx/lib/no-float\libxcpp.a(exit.o)
 .debug_line    0x00005983       0x6f c:/program files/microchip/xc32/v1.40/bin/bin/../../lib/gcc/pic32mx/4.8.3/../../../../pic32mx/lib/no-float\libxcpp.a(free.o)
 .debug_line    0x000059f2       0x71 c:/program files/microchip/xc32/v1.40/bin/bin/../../lib/gcc/pic32mx/4.8.3/../../../../pic32mx/lib/no-float\libxcpp.a(malloc.o)
 .debug_line    0x00005a63       0x71 c:/program files/microchip/xc32/v1.40/bin/bin/../../lib/gcc/pic32mx/4.8.3/../../../../pic32mx/lib/no-float\libxcpp.a(memcpy.o)
 .debug_line    0x00005ad4       0x71 c:/program files/microchip/xc32/v1.40/bin/bin/../../lib/gcc/pic32mx/4.8.3/../../../../pic32mx/lib/no-float\libxcpp.a(memset.o)
 .debug_line    0x00005b45       0x70 c:/program files/microchip/xc32/v1.40/bin/bin/../../lib/gcc/pic32mx/4.8.3/../../../../pic32mx/lib/no-float\libxcpp.a(raise.o)
 .debug_line    0x00005bb5       0x71 c:/program files/microchip/xc32/v1.40/bin/bin/../../lib/gcc/pic32mx/4.8.3/../../../../pic32mx/lib/no-float\libxcpp.a(strcmp.o)
 .debug_line    0x00005c26       0x70 c:/program files/microchip/xc32/v1.40/bin/bin/../../lib/gcc/pic32mx/4.8.3/../../../../pic32mx/lib/no-float\libxcpp.a(xexit.o)
 .debug_line    0x00005c96       0x72 c:/program files/microchip/xc32/v1.40/bin/bin/../../lib/gcc/pic32mx/4.8.3/../../../../pic32mx/lib/no-float\libxcpp.a(xgetmem.o)
 .debug_line    0x00005d08      0x221 c:/program files/microchip/xc32/v1.40/bin/bin/../../lib/gcc/pic32mx/4.8.3/no-float\libgcc.a(unwind-sjlj.o)
 .debug_line    0x00005f29       0x78 c:/program files/microchip/xc32/v1.40/bin/bin/../../lib/gcc/pic32mx/4.8.3/../../../../pic32mx/lib/no-float\libpic32.a(sbrk.o)
 .debug_line    0x00005fa1       0x97 c:/program files/microchip/xc32/v1.40/bin/bin/../../lib/gcc/pic32mx/4.8.3/../../../../pic32mx/lib/no-float\libpic32.a(default-bootstrap-exception-handler.o)
 .debug_line    0x00006038       0x84 c:/program files/microchip/xc32/v1.40/bin/bin/../../lib/gcc/pic32mx/4.8.3/../../../../pic32mx/lib/no-float\libpic32.a(default-on-reset.o)
 .debug_line    0x000060bc       0x88 c:/program files/microchip/xc32/v1.40/bin/bin/../../lib/gcc/pic32mx/4.8.3/../../../../pic32mx/lib/no-float\libpic32.a(default-on-bootstrap.o)
 .debug_line    0x00006144       0x79 c:/program files/microchip/xc32/v1.40/bin/bin/../../lib/gcc/pic32mx/4.8.3/../../../../pic32mx/lib/no-float\libpic32.a(_exit.o)
 .debug_line    0x000061bd       0x78 c:/program files/microchip/xc32/v1.40/bin/bin/../../lib/gcc/pic32mx/4.8.3/../../../../pic32mx/lib/no-float\libpic32.a(kill.o)
 .debug_line    0x00006235       0x7a c:/program files/microchip/xc32/v1.40/bin/bin/../../lib/gcc/pic32mx/4.8.3/../../../../pic32mx/lib/no-float\libpic32.a(getpid.o)
 .debug_line    0x000062af        0x0 c:/program files/microchip/xc32/v1.40/bin/bin/../../lib/gcc/pic32mx/4.8.3/../../../../pic32mx/lib/no-float\libpic32.a(errno.o)
 .debug_line    0x000062af       0x95 c:/program files/microchip/xc32/v1.40/bin/bin/../../lib/gcc/pic32mx/4.8.3/../../../../pic32mx/lib/no-float\libpic32.a(default-general-exception-handler.o)
 .debug_line    0x00006344       0x96 c:/program files/microchip/xc32/v1.40/bin/bin/../../lib/gcc/pic32mx/4.8.3/../../../../pic32mx/lib/no-float\libpic32.a(defaultinterrupt.o)

.debug_frame    0x00000000     0x1ed0
 *(.debug_frame)
 .debug_frame   0x00000000      0x108 build/PINGUINO/production/_ext/1472/Main.o
 .debug_frame   0x00000108       0x78 build/PINGUINO/production/_ext/1472/rtos_hooks.o
 .debug_frame   0x00000180       0x40 build/PINGUINO/production/_ext/55825582/halSYS.o
 .debug_frame   0x000001c0       0x94 build/PINGUINO/production/_ext/1705198617/system_init.o
 .debug_frame   0x00000254       0x80 build/PINGUINO/production/_ext/1705198617/app.o
 .debug_frame   0x000002d4       0x68 build/PINGUINO/production/_ext/2012494728/eosUsbClient.o
 .debug_frame   0x0000033c       0xa0 build/PINGUINO/production/_ext/863068963/eosAppLoop.o
 .debug_frame   0x000003dc      0x16c build/PINGUINO/production/_ext/1935080774/eosTask.o
 .debug_frame   0x00000548       0xa4 build/PINGUINO/production/_ext/1315484212/eosApplication.o
 .debug_frame   0x000005ec      0x4b8 build/PINGUINO/production/_ext/2129976512/tasks.o
 .debug_frame   0x00000aa4      0x250 build/PINGUINO/production/_ext/2129976512/queue.o
 .debug_frame   0x00000cf4      0x1f0 build/PINGUINO/production/_ext/2129976512/timers.o
 .debug_frame   0x00000ee4       0xd0 build/PINGUINO/production/_ext/1298945782/port.o
 .debug_frame   0x00000fb4       0xa0 build/PINGUINO/production/_ext/696550819/heap_4.o
 .debug_frame   0x00001054       0x78 build/PINGUINO/production/_ext/2129976512/list.o
 .debug_frame   0x000010cc      0x100 build/PINGUINO/production/_ext/1643514105/drv_usbfs.o
 .debug_frame   0x000011cc      0x1e0 build/PINGUINO/production/_ext/1643514105/drv_usbfs_device.o
 .debug_frame   0x000013ac       0xa0 build/PINGUINO/production/_ext/1712295097/sys_int_pic32.o
 .debug_frame   0x0000144c      0x148 build/PINGUINO/production/_ext/1663442938/usb_device_cdc.o
 .debug_frame   0x00001594      0x3b8 build/PINGUINO/production/_ext/1663442938/usb_device.o
 .debug_frame   0x0000194c       0x28 build/PINGUINO/production/_ext/1663442938/usb_device_cdc_acm.o
 .debug_frame   0x00001974       0x28 c:/program files/microchip/xc32/v1.40/bin/bin/../../lib/gcc/pic32mx/4.8.3/../../../../pic32mx/lib/no-float\libxcpp.a(abort.o)
 .debug_frame   0x0000199c       0x20 c:/program files/microchip/xc32/v1.40/bin/bin/../../lib/gcc/pic32mx/4.8.3/../../../../pic32mx/lib/no-float\libxcpp.a(abs.o)
 .debug_frame   0x000019bc       0x68 c:/program files/microchip/xc32/v1.40/bin/bin/../../lib/gcc/pic32mx/4.8.3/../../../../pic32mx/lib/no-float\libxcpp.a(exit.o)
 .debug_frame   0x00001a24       0x20 c:/program files/microchip/xc32/v1.40/bin/bin/../../lib/gcc/pic32mx/4.8.3/../../../../pic32mx/lib/no-float\libxcpp.a(free.o)
 .debug_frame   0x00001a44       0x30 c:/program files/microchip/xc32/v1.40/bin/bin/../../lib/gcc/pic32mx/4.8.3/../../../../pic32mx/lib/no-float\libxcpp.a(malloc.o)
 .debug_frame   0x00001a74       0x20 c:/program files/microchip/xc32/v1.40/bin/bin/../../lib/gcc/pic32mx/4.8.3/../../../../pic32mx/lib/no-float\libxcpp.a(memcpy.o)
 .debug_frame   0x00001a94       0x20 c:/program files/microchip/xc32/v1.40/bin/bin/../../lib/gcc/pic32mx/4.8.3/../../../../pic32mx/lib/no-float\libxcpp.a(memset.o)
 .debug_frame   0x00001ab4       0x28 c:/program files/microchip/xc32/v1.40/bin/bin/../../lib/gcc/pic32mx/4.8.3/../../../../pic32mx/lib/no-float\libxcpp.a(raise.o)
 .debug_frame   0x00001adc       0x20 c:/program files/microchip/xc32/v1.40/bin/bin/../../lib/gcc/pic32mx/4.8.3/../../../../pic32mx/lib/no-float\libxcpp.a(strcmp.o)
 .debug_frame   0x00001afc       0x28 c:/program files/microchip/xc32/v1.40/bin/bin/../../lib/gcc/pic32mx/4.8.3/../../../../pic32mx/lib/no-float\libxcpp.a(xexit.o)
 .debug_frame   0x00001b24       0x2c c:/program files/microchip/xc32/v1.40/bin/bin/../../lib/gcc/pic32mx/4.8.3/../../../../pic32mx/lib/no-float\libxcpp.a(xgetmem.o)
 .debug_frame   0x00001b50      0x1e4 c:/program files/microchip/xc32/v1.40/bin/bin/../../lib/gcc/pic32mx/4.8.3/no-float\libgcc.a(unwind-sjlj.o)
 .debug_frame   0x00001d34       0x84 c:/program files/microchip/xc32/v1.40/bin/bin/../../lib/gcc/pic32mx/4.8.3/../../../../pic32mx/lib/no-float\libpic32.a(sbrk.o)
 .debug_frame   0x00001db8       0x2c c:/program files/microchip/xc32/v1.40/bin/bin/../../lib/gcc/pic32mx/4.8.3/../../../../pic32mx/lib/no-float\libpic32.a(default-bootstrap-exception-handler.o)
 .debug_frame   0x00001de4       0x20 c:/program files/microchip/xc32/v1.40/bin/bin/../../lib/gcc/pic32mx/4.8.3/../../../../pic32mx/lib/no-float\libpic32.a(default-on-reset.o)
 .debug_frame   0x00001e04       0x20 c:/program files/microchip/xc32/v1.40/bin/bin/../../lib/gcc/pic32mx/4.8.3/../../../../pic32mx/lib/no-float\libpic32.a(default-on-bootstrap.o)
 .debug_frame   0x00001e24       0x20 c:/program files/microchip/xc32/v1.40/bin/bin/../../lib/gcc/pic32mx/4.8.3/../../../../pic32mx/lib/no-float\libpic32.a(_exit.o)
 .debug_frame   0x00001e44       0x20 c:/program files/microchip/xc32/v1.40/bin/bin/../../lib/gcc/pic32mx/4.8.3/../../../../pic32mx/lib/no-float\libpic32.a(kill.o)
 .debug_frame   0x00001e64       0x20 c:/program files/microchip/xc32/v1.40/bin/bin/../../lib/gcc/pic32mx/4.8.3/../../../../pic32mx/lib/no-float\libpic32.a(getpid.o)
 .debug_frame   0x00001e84       0x2c c:/program files/microchip/xc32/v1.40/bin/bin/../../lib/gcc/pic32mx/4.8.3/../../../../pic32mx/lib/no-float\libpic32.a(default-general-exception-handler.o)
 .debug_frame   0x00001eb0       0x20 c:/program files/microchip/xc32/v1.40/bin/bin/../../lib/gcc/pic32mx/4.8.3/../../../../pic32mx/lib/no-float\libpic32.a(defaultinterrupt.o)

.debug_str      0x00000000      0xc35
 *(.debug_str)
 .debug_str     0x00000000       0x43 build/PINGUINO/production/_ext/1472/Main.o
 .debug_str     0x00000043        0x9 build/PINGUINO/production/_ext/1472/rtos_hooks.o
 .debug_str     0x0000004c        0xa build/PINGUINO/production/_ext/1472/Config.o
 .debug_str     0x00000056        0x0 build/PINGUINO/production/_ext/55825582/halSYS.o
 .debug_str     0x00000056       0xee build/PINGUINO/production/_ext/1705198617/system_init.o
 .debug_str     0x00000144       0xaf build/PINGUINO/production/_ext/1705198617/app.o
 .debug_str     0x000001f3       0x2e build/PINGUINO/production/_ext/2012494728/eosUsbClient.o
 .debug_str     0x00000221       0x22 build/PINGUINO/production/_ext/863068963/eosAppLoop.o
 .debug_str     0x00000243        0xa build/PINGUINO/production/_ext/1935080774/eosTask.o
 .debug_str     0x0000024d       0x16 build/PINGUINO/production/_ext/1315484212/eosApplication.o
 .debug_str     0x00000263      0x186 build/PINGUINO/production/_ext/2129976512/tasks.o
 .debug_str     0x000003e9      0x131 build/PINGUINO/production/_ext/2129976512/queue.o
 .debug_str     0x0000051a       0xd2 build/PINGUINO/production/_ext/2129976512/timers.o
 .debug_str     0x000005ec       0x23 build/PINGUINO/production/_ext/1298945782/port.o
 .debug_str     0x0000060f        0x0 build/PINGUINO/production/_ext/696550819/heap_4.o
 .debug_str     0x0000060f       0x2b build/PINGUINO/production/_ext/2129976512/list.o
 .debug_str     0x0000063a       0x87 build/PINGUINO/production/_ext/1643514105/drv_usbfs.o
 .debug_str     0x000006c1       0xec build/PINGUINO/production/_ext/1643514105/drv_usbfs_device.o
 .debug_str     0x000007ad       0x10 build/PINGUINO/production/_ext/1712295097/sys_int_pic32.o
 .debug_str     0x000007bd      0x18b build/PINGUINO/production/_ext/1663442938/usb_device_cdc.o
 .debug_str     0x00000948      0x29f build/PINGUINO/production/_ext/1663442938/usb_device.o
 .debug_str     0x00000be7        0xe build/PINGUINO/production/_ext/1663442938/usb_device_cdc_acm.o
 .debug_str     0x00000bf5        0x0 c:/program files/microchip/xc32/v1.40/bin/bin/../../lib/gcc/pic32mx/4.8.3/../../../../pic32mx/lib/no-float\libxcpp.a(abort.o)
 .debug_str     0x00000bf5        0x0 c:/program files/microchip/xc32/v1.40/bin/bin/../../lib/gcc/pic32mx/4.8.3/../../../../pic32mx/lib/no-float\libxcpp.a(abs.o)
 .debug_str     0x00000bf5        0x0 c:/program files/microchip/xc32/v1.40/bin/bin/../../lib/gcc/pic32mx/4.8.3/../../../../pic32mx/lib/no-float\libxcpp.a(exit.o)
 .debug_str     0x00000bf5        0x0 c:/program files/microchip/xc32/v1.40/bin/bin/../../lib/gcc/pic32mx/4.8.3/../../../../pic32mx/lib/no-float\libxcpp.a(free.o)
 .debug_str     0x00000bf5        0x0 c:/program files/microchip/xc32/v1.40/bin/bin/../../lib/gcc/pic32mx/4.8.3/../../../../pic32mx/lib/no-float\libxcpp.a(malloc.o)
 .debug_str     0x00000bf5        0x0 c:/program files/microchip/xc32/v1.40/bin/bin/../../lib/gcc/pic32mx/4.8.3/../../../../pic32mx/lib/no-float\libxcpp.a(memcpy.o)
 .debug_str     0x00000bf5        0x0 c:/program files/microchip/xc32/v1.40/bin/bin/../../lib/gcc/pic32mx/4.8.3/../../../../pic32mx/lib/no-float\libxcpp.a(memset.o)
 .debug_str     0x00000bf5        0x0 c:/program files/microchip/xc32/v1.40/bin/bin/../../lib/gcc/pic32mx/4.8.3/../../../../pic32mx/lib/no-float\libxcpp.a(raise.o)
 .debug_str     0x00000bf5        0x0 c:/program files/microchip/xc32/v1.40/bin/bin/../../lib/gcc/pic32mx/4.8.3/../../../../pic32mx/lib/no-float\libxcpp.a(strcmp.o)
 .debug_str     0x00000bf5        0x0 c:/program files/microchip/xc32/v1.40/bin/bin/../../lib/gcc/pic32mx/4.8.3/../../../../pic32mx/lib/no-float\libxcpp.a(xexit.o)
 .debug_str     0x00000bf5        0x0 c:/program files/microchip/xc32/v1.40/bin/bin/../../lib/gcc/pic32mx/4.8.3/../../../../pic32mx/lib/no-float\libxcpp.a(xgetmem.o)
 .debug_str     0x00000bf5       0x40 c:/program files/microchip/xc32/v1.40/bin/bin/../../lib/gcc/pic32mx/4.8.3/no-float\libgcc.a(unwind-sjlj.o)
 .debug_str     0x00000c35        0x0 c:/program files/microchip/xc32/v1.40/bin/bin/../../lib/gcc/pic32mx/4.8.3/../../../../pic32mx/lib/no-float\libpic32.a(sbrk.o)
 .debug_str     0x00000c35        0x0 c:/program files/microchip/xc32/v1.40/bin/bin/../../lib/gcc/pic32mx/4.8.3/../../../../pic32mx/lib/no-float\libpic32.a(default-bootstrap-exception-handler.o)
 .debug_str     0x00000c35        0x0 c:/program files/microchip/xc32/v1.40/bin/bin/../../lib/gcc/pic32mx/4.8.3/../../../../pic32mx/lib/no-float\libpic32.a(default-on-reset.o)
 .debug_str     0x00000c35        0x0 c:/program files/microchip/xc32/v1.40/bin/bin/../../lib/gcc/pic32mx/4.8.3/../../../../pic32mx/lib/no-float\libpic32.a(default-on-bootstrap.o)
 .debug_str     0x00000c35        0x0 c:/program files/microchip/xc32/v1.40/bin/bin/../../lib/gcc/pic32mx/4.8.3/../../../../pic32mx/lib/no-float\libpic32.a(_exit.o)
 .debug_str     0x00000c35        0x0 c:/program files/microchip/xc32/v1.40/bin/bin/../../lib/gcc/pic32mx/4.8.3/../../../../pic32mx/lib/no-float\libpic32.a(kill.o)
 .debug_str     0x00000c35        0x0 c:/program files/microchip/xc32/v1.40/bin/bin/../../lib/gcc/pic32mx/4.8.3/../../../../pic32mx/lib/no-float\libpic32.a(getpid.o)
 .debug_str     0x00000c35        0x0 c:/program files/microchip/xc32/v1.40/bin/bin/../../lib/gcc/pic32mx/4.8.3/../../../../pic32mx/lib/no-float\libpic32.a(errno.o)
 .debug_str     0x00000c35        0x0 c:/program files/microchip/xc32/v1.40/bin/bin/../../lib/gcc/pic32mx/4.8.3/../../../../pic32mx/lib/no-float\libpic32.a(default-general-exception-handler.o)
 .debug_str     0x00000c35        0x0 c:/program files/microchip/xc32/v1.40/bin/bin/../../lib/gcc/pic32mx/4.8.3/../../../../pic32mx/lib/no-float\libpic32.a(defaultinterrupt.o)

.debug_loc      0x00000000      0x8d8
 *(.debug_loc)
 .debug_loc     0x00000000      0x8d8 c:/program files/microchip/xc32/v1.40/bin/bin/../../lib/gcc/pic32mx/4.8.3/no-float\libgcc.a(unwind-sjlj.o)

.debug_macinfo
 *(.debug_macinfo)

.debug_weaknames
 *(.debug_weaknames)

.debug_funcnames
 *(.debug_funcnames)

.debug_typenames
 *(.debug_typenames)

.debug_varnames
 *(.debug_varnames)

.debug_pubtypes
 *(.debug_pubtypes)

.debug_ranges   0x00000000      0xa98
 *(.debug_ranges)
 .debug_ranges  0x00000000       0x48 build/PINGUINO/production/_ext/1472/Main.o
 .debug_ranges  0x00000048       0x30 build/PINGUINO/production/_ext/1472/rtos_hooks.o
 .debug_ranges  0x00000078       0x18 build/PINGUINO/production/_ext/55825582/halSYS.o
 .debug_ranges  0x00000090       0x20 build/PINGUINO/production/_ext/1705198617/system_init.o
 .debug_ranges  0x000000b0       0x30 build/PINGUINO/production/_ext/1705198617/app.o
 .debug_ranges  0x000000e0       0x20 build/PINGUINO/production/_ext/2012494728/eosUsbClient.o
 .debug_ranges  0x00000100       0x30 build/PINGUINO/production/_ext/863068963/eosAppLoop.o
 .debug_ranges  0x00000130       0x60 build/PINGUINO/production/_ext/1935080774/eosTask.o
 .debug_ranges  0x00000190       0x30 build/PINGUINO/production/_ext/1315484212/eosApplication.o
 .debug_ranges  0x000001c0      0x1a0 build/PINGUINO/production/_ext/2129976512/tasks.o
 .debug_ranges  0x00000360       0xc8 build/PINGUINO/production/_ext/2129976512/queue.o
 .debug_ranges  0x00000428       0xa8 build/PINGUINO/production/_ext/2129976512/timers.o
 .debug_ranges  0x000004d0       0x48 build/PINGUINO/production/_ext/1298945782/port.o
 .debug_ranges  0x00000518       0x40 build/PINGUINO/production/_ext/696550819/heap_4.o
 .debug_ranges  0x00000558       0x30 build/PINGUINO/production/_ext/2129976512/list.o
 .debug_ranges  0x00000588       0x60 build/PINGUINO/production/_ext/1643514105/drv_usbfs.o
 .debug_ranges  0x000005e8       0xa8 build/PINGUINO/production/_ext/1643514105/drv_usbfs_device.o
 .debug_ranges  0x00000690       0x38 build/PINGUINO/production/_ext/1712295097/sys_int_pic32.o
 .debug_ranges  0x000006c8       0x78 build/PINGUINO/production/_ext/1663442938/usb_device_cdc.o
 .debug_ranges  0x00000740      0x140 build/PINGUINO/production/_ext/1663442938/usb_device.o
 .debug_ranges  0x00000880       0x10 build/PINGUINO/production/_ext/1663442938/usb_device_cdc_acm.o
 .debug_ranges  0x00000890       0x10 c:/program files/microchip/xc32/v1.40/bin/bin/../../lib/gcc/pic32mx/4.8.3/../../../../pic32mx/lib/no-float\libxcpp.a(abort.o)
 .debug_ranges  0x000008a0       0x10 c:/program files/microchip/xc32/v1.40/bin/bin/../../lib/gcc/pic32mx/4.8.3/../../../../pic32mx/lib/no-float\libxcpp.a(abs.o)
 .debug_ranges  0x000008b0       0x20 c:/program files/microchip/xc32/v1.40/bin/bin/../../lib/gcc/pic32mx/4.8.3/../../../../pic32mx/lib/no-float\libxcpp.a(exit.o)
 .debug_ranges  0x000008d0       0x10 c:/program files/microchip/xc32/v1.40/bin/bin/../../lib/gcc/pic32mx/4.8.3/../../../../pic32mx/lib/no-float\libxcpp.a(free.o)
 .debug_ranges  0x000008e0       0x10 c:/program files/microchip/xc32/v1.40/bin/bin/../../lib/gcc/pic32mx/4.8.3/../../../../pic32mx/lib/no-float\libxcpp.a(malloc.o)
 .debug_ranges  0x000008f0       0x10 c:/program files/microchip/xc32/v1.40/bin/bin/../../lib/gcc/pic32mx/4.8.3/../../../../pic32mx/lib/no-float\libxcpp.a(memcpy.o)
 .debug_ranges  0x00000900       0x10 c:/program files/microchip/xc32/v1.40/bin/bin/../../lib/gcc/pic32mx/4.8.3/../../../../pic32mx/lib/no-float\libxcpp.a(memset.o)
 .debug_ranges  0x00000910       0x10 c:/program files/microchip/xc32/v1.40/bin/bin/../../lib/gcc/pic32mx/4.8.3/../../../../pic32mx/lib/no-float\libxcpp.a(raise.o)
 .debug_ranges  0x00000920       0x10 c:/program files/microchip/xc32/v1.40/bin/bin/../../lib/gcc/pic32mx/4.8.3/../../../../pic32mx/lib/no-float\libxcpp.a(strcmp.o)
 .debug_ranges  0x00000930       0x10 c:/program files/microchip/xc32/v1.40/bin/bin/../../lib/gcc/pic32mx/4.8.3/../../../../pic32mx/lib/no-float\libxcpp.a(xexit.o)
 .debug_ranges  0x00000940       0x10 c:/program files/microchip/xc32/v1.40/bin/bin/../../lib/gcc/pic32mx/4.8.3/../../../../pic32mx/lib/no-float\libxcpp.a(xgetmem.o)
 .debug_ranges  0x00000950       0x98 c:/program files/microchip/xc32/v1.40/bin/bin/../../lib/gcc/pic32mx/4.8.3/no-float\libgcc.a(unwind-sjlj.o)
 .debug_ranges  0x000009e8       0x30 c:/program files/microchip/xc32/v1.40/bin/bin/../../lib/gcc/pic32mx/4.8.3/../../../../pic32mx/lib/no-float\libpic32.a(sbrk.o)
 .debug_ranges  0x00000a18       0x10 c:/program files/microchip/xc32/v1.40/bin/bin/../../lib/gcc/pic32mx/4.8.3/../../../../pic32mx/lib/no-float\libpic32.a(default-bootstrap-exception-handler.o)
 .debug_ranges  0x00000a28       0x10 c:/program files/microchip/xc32/v1.40/bin/bin/../../lib/gcc/pic32mx/4.8.3/../../../../pic32mx/lib/no-float\libpic32.a(default-on-reset.o)
 .debug_ranges  0x00000a38       0x10 c:/program files/microchip/xc32/v1.40/bin/bin/../../lib/gcc/pic32mx/4.8.3/../../../../pic32mx/lib/no-float\libpic32.a(default-on-bootstrap.o)
 .debug_ranges  0x00000a48       0x10 c:/program files/microchip/xc32/v1.40/bin/bin/../../lib/gcc/pic32mx/4.8.3/../../../../pic32mx/lib/no-float\libpic32.a(_exit.o)
 .debug_ranges  0x00000a58       0x10 c:/program files/microchip/xc32/v1.40/bin/bin/../../lib/gcc/pic32mx/4.8.3/../../../../pic32mx/lib/no-float\libpic32.a(kill.o)
 .debug_ranges  0x00000a68       0x10 c:/program files/microchip/xc32/v1.40/bin/bin/../../lib/gcc/pic32mx/4.8.3/../../../../pic32mx/lib/no-float\libpic32.a(getpid.o)
 .debug_ranges  0x00000a78       0x10 c:/program files/microchip/xc32/v1.40/bin/bin/../../lib/gcc/pic32mx/4.8.3/../../../../pic32mx/lib/no-float\libpic32.a(default-general-exception-handler.o)
 .debug_ranges  0x00000a88       0x10 c:/program files/microchip/xc32/v1.40/bin/bin/../../lib/gcc/pic32mx/4.8.3/../../../../pic32mx/lib/no-float\libpic32.a(defaultinterrupt.o)

.gnu.attributes
                0x00000000       0x10
 *(.gnu.attributes)
 .gnu.attributes
                0x00000000       0x10 ..\..\..\..\..\..\..\..\..\..\microchip\harmony\v1_07_01\bin\framework\peripheral\PIC32MX440F256H_peripherals.a(peripheral.o)
LOAD c:/program files/microchip/xc32/v1.40/bin/bin/../../lib/gcc/pic32mx/4.8.3/no-float\libgcc.a
START GROUP
LOAD c:/program files/microchip/xc32/v1.40/bin/bin/../../lib/gcc/pic32mx/4.8.3/../../../../pic32mx/lib/no-float\libpic32.a
LOAD c:/program files/microchip/xc32/v1.40/bin/bin/../../lib/gcc/pic32mx/4.8.3/../../../../pic32mx/lib/no-float\libdebug.a
LOAD c:/program files/microchip/xc32/v1.40/bin/bin/../../lib/gcc/pic32mx/4.8.3/../../../../pic32mx/lib/no-float\libxcpp.a
LOAD c:/program files/microchip/xc32/v1.40/bin/bin/../../lib/gcc/pic32mx/4.8.3/../../../../pic32mx/lib/no-float\libsupc++.a
LOAD c:/program files/microchip/xc32/v1.40/bin/bin/../../lib/gcc/pic32mx/4.8.3/../../../../pic32mx/lib/no-float\libpic32.a
LOAD c:/program files/microchip/xc32/v1.40/bin/bin/../../lib/gcc/pic32mx/4.8.3/../../../../pic32mx/lib/no-float\libm.a
LOAD c:/program files/microchip/xc32/v1.40/bin/bin/../../lib/gcc/pic32mx/4.8.3/../../../../pic32mx/lib/no-float\libe.a
LOAD c:/program files/microchip/xc32/v1.40/bin/bin/../../lib/gcc/pic32mx/4.8.3/../../../../pic32mx/lib/no-float\libdsp.a
LOAD c:/program files/microchip/xc32/v1.40/bin/bin/../../lib/gcc/pic32mx/4.8.3/no-float\libgcc.a
LOAD c:/program files/microchip/xc32/v1.40/bin/bin/../../lib/gcc/pic32mx/4.8.3/../../../../pic32mx/lib/no-float\libpic32.a
END GROUP
LOAD c:/program files/microchip/xc32/v1.40/bin/bin/../../lib/gcc/pic32mx/4.8.3/no-float\libgcc.a
LOAD c:/program files/microchip/xc32/v1.40/bin/bin/../../lib/gcc/pic32mx/4.8.3/no-float/crtend.o
LOAD c:/program files/microchip/xc32/v1.40/bin/bin/../../lib/gcc/pic32mx/4.8.3/no-float/crtn.o
OUTPUT(dist/PINGUINO/production/USBDemo.X.production.elf elf32-tradlittlemips)
LOAD stack
LOAD data_init

.reginfo        0x00000000       0x18
 .reginfo       0x00000000       0x18 c:/program files/microchip/xc32/v1.40/bin/bin/../../lib/gcc/pic32mx/4.8.3/../../../../pic32mx/lib/./proc/32MX440F256H/cpprt0_mips32r2.o

.stack          0xa0005d80      0x400
 .stack         0xa0005d80      0x400 stack

.bss            0xa0000448     0x4680
 .bss           0xa0000448     0x3e80 build/PINGUINO/production/_ext/696550819/heap_4.o
 .bss           0xa00042c8      0x800 build/PINGUINO/production/_ext/1298945782/port.o
                0xa00042c8                xISRStack

.bss._ZL16emergency_buffer.emergency_buffer
                0xa0004ac8      0x800
 .bss._ZL16emergency_buffer.emergency_buffer
                0xa0004ac8      0x800 c:/program files/microchip/xc32/v1.40/bin/bin/../../lib/gcc/pic32mx/4.8.3/../../../../pic32mx/lib/no-float\libsupc++.a(eh_alloc.o)

.bss            0xa00000bc      0x144
 .bss           0xa00000bc      0x144 c:/program files/microchip/xc32/v1.40/bin/bin/../../lib/gcc/pic32mx/4.8.3/../../../../pic32mx/lib/no-float\libxcpp.a(exit.o)
                0xa00001fc                _Atcount0

.bss            0xa00052c8      0x194
 .bss           0xa00052c8       0xdc build/PINGUINO/production/_ext/2129976512/tasks.o
 .bss           0xa00053a4       0xb8 build/PINGUINO/production/_ext/1663442938/usb_device.o

.data           0xa000545c       0x4c
 .data          0xa000545c       0x4c build/PINGUINO/production/_ext/1643514105/drv_usbfs_device.o
                0xa000545c                gDrvUSBFSDeviceInterface

.bss            0xa00054a8       0x6c
 .bss           0xa00054a8       0x28 build/PINGUINO/production/_ext/2129976512/timers.o
 .bss           0xa00054d0       0x24 c:/program files/microchip/xc32/v1.40/bin/bin/../../lib/gcc/pic32mx/4.8.3/../../../../pic32mx/lib/no-float\libpic32.a(sbrk.o)
                0xa00054d0                _minbrk
                0xa00054d4                _maxbrk
 .bss           0xa00054f4       0x20 c:/program files/microchip/xc32/v1.40/bin/bin/../../lib/gcc/pic32mx/4.8.3/no-float/crtbegin.o

.data           0xa0005514       0x24
 .data          0xa0005514       0x18 build/PINGUINO/production/_ext/1705198617/app.o
                0xa0005514                switchPromptUSB
 .data          0xa000552c        0xc c:/program files/microchip/xc32/v1.40/bin/bin/../../lib/gcc/pic32mx/4.8.3/../../../../pic32mx/lib/no-float\libxcpp.a(exit.o)
                0xa0005530                _Atfuns
                0xa0005534                _Atcount

.bss._ZL10eh_globals.eh_globals
                0xa0005538        0x8
 .bss._ZL10eh_globals.eh_globals
                0xa0005538        0x8 c:/program files/microchip/xc32/v1.40/bin/bin/../../lib/gcc/pic32mx/4.8.3/../../../../pic32mx/lib/no-float\libsupc++.a(eh_globals.o)

.bss            0xa0005540        0x8
 .bss           0xa0005540        0x8 c:/program files/microchip/xc32/v1.40/bin/bin/../../lib/gcc/pic32mx/4.8.3/../../../../pic32mx/lib/no-float\libxcpp.a(malloc.o)
                0xa0005540                _Aldata

.bss._ZL14emergency_used.emergency_used
                0xa0005548        0x4
 .bss._ZL14emergency_used.emergency_used
                0xa0005548        0x4 c:/program files/microchip/xc32/v1.40/bin/bin/../../lib/gcc/pic32mx/4.8.3/../../../../pic32mx/lib/no-float\libsupc++.a(eh_alloc.o)

.data._ZN10__cxxabiv120__unexpected_handlerE.__unexpected_handler
                0xa000554c        0x4
 .data._ZN10__cxxabiv120__unexpected_handlerE.__unexpected_handler
                0xa000554c        0x4 c:/program files/microchip/xc32/v1.40/bin/bin/../../lib/gcc/pic32mx/4.8.3/../../../../pic32mx/lib/no-float\libsupc++.a(eh_unex_handler.o)
                0xa000554c                __cxxabiv1::__unexpected_handler

.bss.__new_handler.__new_handler
                0xa0005550        0x4
 .bss.__new_handler.__new_handler
                0xa0005550        0x4 c:/program files/microchip/xc32/v1.40/bin/bin/../../lib/gcc/pic32mx/4.8.3/../../../../pic32mx/lib/no-float\libsupc++.a(new_handler.o)
                0xa0005550                __new_handler

.data._ZN10__cxxabiv119__terminate_handlerE.__terminate_handler
                0xa0005554        0x4
 .data._ZN10__cxxabiv119__terminate_handlerE.__terminate_handler
                0xa0005554        0x4 c:/program files/microchip/xc32/v1.40/bin/bin/../../lib/gcc/pic32mx/4.8.3/../../../../pic32mx/lib/no-float\libsupc++.a(eh_term_handler.o)
                0xa0005554                __cxxabiv1::__terminate_handler

.data           0xa0005558        0x4
 .data          0xa0005558        0x4 c:/program files/microchip/xc32/v1.40/bin/bin/../../lib/gcc/pic32mx/4.8.3/../../../../pic32mx/lib/no-float\libxcpp.a(malloc.o)
                0xa0005558                _Size_block

.bss            0xa000555c        0x8
 .bss           0xa000555c        0x4 c:/program files/microchip/xc32/v1.40/bin/bin/../../lib/gcc/pic32mx/4.8.3/no-float\libgcc.a(unwind-sjlj.o)
 .bss           0xa0005560        0x4 c:/program files/microchip/xc32/v1.40/bin/bin/../../lib/gcc/pic32mx/4.8.3/../../../../pic32mx/lib/no-float\libpic32.a(errno.o)
                0xa0005560                errno

.tm_clone_table
                0x00000000        0x0
 .tm_clone_table
                0x00000000        0x0 c:/program files/microchip/xc32/v1.40/bin/bin/../../lib/gcc/pic32mx/4.8.3/no-float/crtend.o
                0x00000000                __TMC_END__

.tm_clone_table
                0x00000000        0x0
 .tm_clone_table
                0x00000000        0x0 c:/program files/microchip/xc32/v1.40/bin/bin/../../lib/gcc/pic32mx/4.8.3/no-float/crtbegin.o

.text._DRV_USBFS_DEVICE_Tasks_ISR
                0x9d000890      0xab4
 .text._DRV_USBFS_DEVICE_Tasks_ISR
                0x9d000890      0xab4 build/PINGUINO/production/_ext/1643514105/drv_usbfs_device.o
                0x9d000890                _DRV_USBFS_DEVICE_Tasks_ISR

.text           0x9d001344      0x9fc
 .text          0x9d001344      0x5a8 c:/program files/microchip/xc32/v1.40/bin/bin/../../lib/gcc/pic32mx/4.8.3/no-float\libgcc.a(unwind-sjlj.o)
                0x9d001344                _Unwind_SjLj_Register
                0x9d001358                _Unwind_SjLj_Unregister
                0x9d001368                _Unwind_GetGR
                0x9d001380                _Unwind_GetCFA
                0x9d00139c                _Unwind_SetGR
                0x9d0013b4                _Unwind_GetIP
                0x9d0013c4                _Unwind_GetIPInfo
                0x9d0013e4                _Unwind_SetIP
                0x9d0013f4                _Unwind_GetLanguageSpecificData
                0x9d001400                _Unwind_GetRegionStart
                0x9d001408                _Unwind_FindEnclosingFunction
                0x9d001410                _Unwind_GetDataRelBase
                0x9d001418                _Unwind_GetTextRelBase
                0x9d001520                _Unwind_SjLj_RaiseException
                0x9d001740                _Unwind_SjLj_ForcedUnwind
                0x9d001780                _Unwind_SjLj_Resume
                0x9d0017c8                _Unwind_SjLj_Resume_or_Rethrow
                0x9d001808                _Unwind_DeleteException
                0x9d001834                _Unwind_Backtrace
 .text          0x9d0018ec      0x454 build/PINGUINO/production/_ext/1298945782/port_asm.o
                0x9d0018ec                vPortTickInterruptHandler
                0x9d001a98                vPortStartFirstTask
                0x9d001b60                vPortYieldISR

.text.USB_DEVICE_CDC_Write
                0x9d001d40      0x434
 .text.USB_DEVICE_CDC_Write
                0x9d001d40      0x434 build/PINGUINO/production/_ext/1663442938/usb_device_cdc.o
                0x9d001d40                USB_DEVICE_CDC_Write

.text._USB_DEVICE_ProcessStandardDeviceGetRequests
                0x9d002174      0x428
 .text._USB_DEVICE_ProcessStandardDeviceGetRequests
                0x9d002174      0x428 build/PINGUINO/production/_ext/1663442938/usb_device.o
                0x9d002174                _USB_DEVICE_ProcessStandardDeviceGetRequests

.text.xQueueGenericReceive
                0x9d00259c      0x3e4
 .text.xQueueGenericReceive
                0x9d00259c      0x3e4 build/PINGUINO/production/_ext/2129976512/queue.o
                0x9d00259c                xQueueGenericReceive

.text._USB_DEVICE_ProcessStandardDeviceSetRequests
                0x9d002980      0x3d8
 .text._USB_DEVICE_ProcessStandardDeviceSetRequests
                0x9d002980      0x3d8 build/PINGUINO/production/_ext/1663442938/usb_device.o
                0x9d002980                _USB_DEVICE_ProcessStandardDeviceSetRequests

.text.USB_DEVICE_CDC_Read
                0x9d002d58      0x3b4
 .text.USB_DEVICE_CDC_Read
                0x9d002d58      0x3b4 build/PINGUINO/production/_ext/1663442938/usb_device_cdc.o
                0x9d002d58                USB_DEVICE_CDC_Read

.text.xQueueGenericSend
                0x9d00310c      0x390
 .text.xQueueGenericSend
                0x9d00310c      0x390 build/PINGUINO/production/_ext/2129976512/queue.o
                0x9d00310c                xQueueGenericSend

.text.DRV_USBFS_DEVICE_IRPSubmit
                0x9d00349c      0x38c
 .text.DRV_USBFS_DEVICE_IRPSubmit
                0x9d00349c      0x38c build/PINGUINO/production/_ext/1643514105/drv_usbfs_device.o
                0x9d00349c                DRV_USBFS_DEVICE_IRPSubmit

.text.APP_Tasks
                0x9d003828      0x370
 .text.APP_Tasks
                0x9d003828      0x370 build/PINGUINO/production/_ext/1705198617/app.o
                0x9d003828                APP_Tasks

.text._USB_DEVICE_EventHandler
                0x9d003b98      0x368
 .text._USB_DEVICE_EventHandler
                0x9d003b98      0x368 build/PINGUINO/production/_ext/1663442938/usb_device.o
                0x9d003b98                _USB_DEVICE_EventHandler

.text.DRV_USBFS_DEVICE_EndpointStall
                0x9d003f00      0x358
 .text.DRV_USBFS_DEVICE_EndpointStall
                0x9d003f00      0x358 build/PINGUINO/production/_ext/1643514105/drv_usbfs_device.o
                0x9d003f00                DRV_USBFS_DEVICE_EndpointStall

.text.DRV_USBFS_DEVICE_EndpointEnable
                0x9d004258      0x344
 .text.DRV_USBFS_DEVICE_EndpointEnable
                0x9d004258      0x344 build/PINGUINO/production/_ext/1643514105/drv_usbfs_device.o
                0x9d004258                DRV_USBFS_DEVICE_EndpointEnable

.text._USB_DEVICE_ControlTransferHandler
                0x9d00459c      0x308
 .text._USB_DEVICE_ControlTransferHandler
                0x9d00459c      0x308 build/PINGUINO/production/_ext/1663442938/usb_device.o
                0x9d00459c                _USB_DEVICE_ControlTransferHandler

.text._USB_DEVICE_Ep0ReceiveCompleteCallback
                0x9d0048a4      0x2d8
 .text._USB_DEVICE_Ep0ReceiveCompleteCallback
                0x9d0048a4      0x2d8 build/PINGUINO/production/_ext/1663442938/usb_device.o
                0x9d0048a4                _USB_DEVICE_Ep0ReceiveCompleteCallback

.text.DRV_USBFS_DEVICE_EndpointStallClear
                0x9d004b7c      0x2c0
 .text.DRV_USBFS_DEVICE_EndpointStallClear
                0x9d004b7c      0x2c0 build/PINGUINO/production/_ext/1643514105/drv_usbfs_device.o
                0x9d004b7c                DRV_USBFS_DEVICE_EndpointStallClear

.text._USB_DEVICE_CDC_Initialization
                0x9d004e3c      0x2a4
 .text._USB_DEVICE_CDC_Initialization
                0x9d004e3c      0x2a4 build/PINGUINO/production/_ext/1663442938/usb_device_cdc.o
                0x9d004e3c                _USB_DEVICE_CDC_Initialization

.text.USB_DEVICE_Initialize
                0x9d0050e0      0x284
 .text.USB_DEVICE_Initialize
                0x9d0050e0      0x284 build/PINGUINO/production/_ext/1663442938/usb_device.o
                0x9d0050e0                USB_DEVICE_Initialize

.dinit          0x9d005364      0x280
 .dinit         0x9d005364      0x280 data_init

.text.pvPortMalloc
                0x9d0055e4      0x278
 .text.pvPortMalloc
                0x9d0055e4      0x278 build/PINGUINO/production/_ext/696550819/heap_4.o
                0x9d0055e4                pvPortMalloc

.text.DRV_USBFS_Initialize
                0x9d00585c      0x270
 .text.DRV_USBFS_Initialize
                0x9d00585c      0x270 build/PINGUINO/production/_ext/1643514105/drv_usbfs.o
                0x9d00585c                DRV_USBFS_Initialize

.text.xTaskIncrementTick
                0x9d005acc      0x25c
 .text.xTaskIncrementTick
                0x9d005acc      0x25c build/PINGUINO/production/_ext/2129976512/tasks.o
                0x9d005acc                xTaskIncrementTick

.text           0x9d005d28      0x258
 .text          0x9d005d28      0x258 c:/program files/microchip/xc32/v1.40/bin/bin/../../lib/gcc/pic32mx/4.8.3/no-float/crtbegin.o

.text._USB_DEVICE_CDC_ACMSetUpPacketHandler
                0x9d005f80      0x24c
 .text._USB_DEVICE_CDC_ACMSetUpPacketHandler
                0x9d005f80      0x24c build/PINGUINO/production/_ext/1663442938/usb_device_cdc_acm.o
                0x9d005f80                _USB_DEVICE_CDC_ACMSetUpPacketHandler

.text.USB_DEVICE_Tasks
                0x9d0061cc      0x234
 .text.USB_DEVICE_Tasks
                0x9d0061cc      0x234 build/PINGUINO/production/_ext/1663442938/usb_device.o
                0x9d0061cc                USB_DEVICE_Tasks

.text.prvProcessReceivedCommands
                0x9d006400      0x228
 .text.prvProcessReceivedCommands
                0x9d006400      0x228 build/PINGUINO/production/_ext/2129976512/timers.o

.text.malloc    0x9d006628      0x224
 .text.malloc   0x9d006628      0x224 c:/program files/microchip/xc32/v1.40/bin/bin/../../lib/gcc/pic32mx/4.8.3/../../../../pic32mx/lib/no-float\libxcpp.a(malloc.o)
                0x9d006628                malloc

.text.DRV_USBFS_DEVICE_EndpointDisable
                0x9d00684c      0x218
 .text.DRV_USBFS_DEVICE_EndpointDisable
                0x9d00684c      0x218 build/PINGUINO/production/_ext/1643514105/drv_usbfs_device.o
                0x9d00684c                DRV_USBFS_DEVICE_EndpointDisable

.text.prvInitialiseNewTask
                0x9d006a64      0x1f0
 .text.prvInitialiseNewTask
                0x9d006a64      0x1f0 build/PINGUINO/production/_ext/2129976512/tasks.o

.text.DRV_USBFS_DEVICE_IRPCancelAll
                0x9d006c54      0x1e8
 .text.DRV_USBFS_DEVICE_IRPCancelAll
                0x9d006c54      0x1e8 build/PINGUINO/production/_ext/1643514105/drv_usbfs_device.o
                0x9d006c54                DRV_USBFS_DEVICE_IRPCancelAll

.text.xQueueGenericSendFromISR
                0x9d006e3c      0x1d8
 .text.xQueueGenericSendFromISR
                0x9d006e3c      0x1d8 build/PINGUINO/production/_ext/2129976512/queue.o
                0x9d006e3c                xQueueGenericSendFromISR

.text.xTaskResumeAll
                0x9d007014      0x1d4
 .text.xTaskResumeAll
                0x9d007014      0x1d4 build/PINGUINO/production/_ext/2129976512/tasks.o
                0x9d007014                xTaskResumeAll

.text._USB_DEVICE_ProcessStandardEndpointRequest
                0x9d0071e8      0x1c8
 .text._USB_DEVICE_ProcessStandardEndpointRequest
                0x9d0071e8      0x1c8 build/PINGUINO/production/_ext/1663442938/usb_device.o
                0x9d0071e8                _USB_DEVICE_ProcessStandardEndpointRequest

.text._DRV_USBFS_DEVICE_EndpointBDTEntryArm
                0x9d0073b0      0x1c0
 .text._DRV_USBFS_DEVICE_EndpointBDTEntryArm
                0x9d0073b0      0x1c0 build/PINGUINO/production/_ext/1643514105/drv_usbfs_device.o
                0x9d0073b0                _DRV_USBFS_DEVICE_EndpointBDTEntryArm

.text.prvCopyDataToQueue
                0x9d007570      0x1b8
 .text.prvCopyDataToQueue
                0x9d007570      0x1b8 build/PINGUINO/production/_ext/2129976512/queue.o

.text.APP_USBDeviceCDCEventHandler
                0x9d007728      0x1ac
 .text.APP_USBDeviceCDCEventHandler
                0x9d007728      0x1ac build/PINGUINO/production/_ext/1705198617/app.o
                0x9d007728                APP_USBDeviceCDCEventHandler

.text._USB_DEVICE_GetStringDescriptorRequestProcess
                0x9d0078d4      0x1ac
 .text._USB_DEVICE_GetStringDescriptorRequestProcess
                0x9d0078d4      0x1ac build/PINGUINO/production/_ext/1663442938/usb_device.o
                0x9d0078d4                _USB_DEVICE_GetStringDescriptorRequestProcess

.text.xTaskPriorityDisinherit
                0x9d007a80      0x1a8
 .text.xTaskPriorityDisinherit
                0x9d007a80      0x1a8 build/PINGUINO/production/_ext/2129976512/tasks.o
                0x9d007a80                xTaskPriorityDisinherit

.text._USB_DEVICE_CDC_ControlTransferHandler
                0x9d007c28      0x1a8
 .text._USB_DEVICE_CDC_ControlTransferHandler
                0x9d007c28      0x1a8 build/PINGUINO/production/_ext/1663442938/usb_device_cdc.o
                0x9d007c28                _USB_DEVICE_CDC_ControlTransferHandler

.text.vTaskDelete
                0x9d007dd0      0x1a0
 .text.vTaskDelete
                0x9d007dd0      0x1a0 build/PINGUINO/production/_ext/2129976512/tasks.o
                0x9d007dd0                vTaskDelete

.text.vTaskPriorityInherit
                0x9d007f70      0x1a0
 .text.vTaskPriorityInherit
                0x9d007f70      0x1a0 build/PINGUINO/production/_ext/2129976512/tasks.o
                0x9d007f70                vTaskPriorityInherit

.text._sbrk_init
                0x9d008110      0x194
 .text._sbrk_init
                0x9d008110      0x194 c:/program files/microchip/xc32/v1.40/bin/bin/../../lib/gcc/pic32mx/4.8.3/../../../../pic32mx/lib/no-float\libpic32.a(sbrk.o)
                0x9d008110                _sbrk_init

.text.vTaskSwitchContext
                0x9d0082a4      0x188
 .text.vTaskSwitchContext
                0x9d0082a4      0x188 build/PINGUINO/production/_ext/2129976512/tasks.o
                0x9d0082a4                vTaskSwitchContext

.text._ZL28read_encoded_value_with_basehjPKhPj
                0x9d00842c      0x180
 .text._ZL28read_encoded_value_with_basehjPKhPj
                0x9d00842c      0x180 c:/program files/microchip/xc32/v1.40/bin/bin/../../lib/gcc/pic32mx/4.8.3/../../../../pic32mx/lib/no-float\libsupc++.a(eh_personality.o)

.rodata         0x9d0085ac      0x178
 .rodata        0x9d0085ac      0x178 build/PINGUINO/production/_ext/1705198617/system_init.o
                0x9d0085ac                cdcInit0
                0x9d0085b8                funcRegistrationTable
                0x9d0085cc                deviceDescriptor
                0x9d0085e0                fullSpeedConfigurationDescriptor
                0x9d008624                fullSpeedConfigDescSet
                0x9d008628                sd000
                0x9d00862c                sd001
                0x9d008660                sd002
                0x9d008690                stringDescriptors
                0x9d00869c                usbMasterDescriptor
                0x9d0086c8                usbDevInitData
                0x9d0086fc                drvUSBInit
                0x9d008720                sysDevconInit

.text.xQueueGenericReset
                0x9d008724      0x170
 .text.xQueueGenericReset
                0x9d008724      0x170 build/PINGUINO/production/_ext/2129976512/queue.o
                0x9d008724                xQueueGenericReset

.text._ZNK10__cxxabiv120__si_class_type_info12__do_dyncastElNS_17__class_type_info10__sub_kindEPKS1_PKvS4_S6_RNS1_16__dyncast_resultE
                0x9d008894      0x16c
 .text._ZNK10__cxxabiv120__si_class_type_info12__do_dyncastElNS_17__class_type_info10__sub_kindEPKS1_PKvS4_S6_RNS1_16__dyncast_resultE
                0x9d008894      0x16c c:/program files/microchip/xc32/v1.40/bin/bin/../../lib/gcc/pic32mx/4.8.3/../../../../pic32mx/lib/no-float\libsupc++.a(si_class_type_info.o)
                0x9d008894                __cxxabiv1::__si_class_type_info::__do_dyncast(long, __cxxabiv1::__class_type_info::__sub_kind, __cxxabiv1::__class_type_info const*, void const*, __cxxabiv1::__class_type_info const*, void const*, __cxxabiv1::__class_type_info::__dyncast_result&) const

.text.APP_USBDeviceEventHandler
                0x9d008a00      0x168
 .text.APP_USBDeviceEventHandler
                0x9d008a00      0x168 build/PINGUINO/production/_ext/1705198617/app.o
                0x9d008a00                APP_USBDeviceEventHandler

.text._USB_DEVICE_ConfigureDevice
                0x9d008b68      0x158
 .text._USB_DEVICE_ConfigureDevice
                0x9d008b68      0x158 build/PINGUINO/production/_ext/1663442938/usb_device.o
                0x9d008b68                _USB_DEVICE_ConfigureDevice

.text.prvSwitchTimerLists
                0x9d008cc0      0x148
 .text.prvSwitchTimerLists
                0x9d008cc0      0x148 build/PINGUINO/production/_ext/2129976512/timers.o

.text.prvInsertBlockIntoFreeList
                0x9d008e08      0x148
 .text.prvInsertBlockIntoFreeList
                0x9d008e08      0x148 build/PINGUINO/production/_ext/696550819/heap_4.o

.text.prvAddNewTaskToReadyList
                0x9d008f50      0x144
 .text.prvAddNewTaskToReadyList
                0x9d008f50      0x144 build/PINGUINO/production/_ext/2129976512/tasks.o

.text._IntHandlerUSBInstance0
                0x9d009094      0x140
 .text._IntHandlerUSBInstance0
                0x9d009094      0x140 build/PINGUINO/production/_ext/1705198617/system_init.o
                0x9d009094                _IntHandlerUSBInstance0

.text.xTaskCheckForTimeOut
                0x9d0091d4      0x140
 .text.xTaskCheckForTimeOut
                0x9d0091d4      0x140 build/PINGUINO/production/_ext/2129976512/tasks.o
                0x9d0091d4                xTaskCheckForTimeOut

.text.xTaskRemoveFromEventList
                0x9d009314      0x134
 .text.xTaskRemoveFromEventList
                0x9d009314      0x134 build/PINGUINO/production/_ext/2129976512/tasks.o
                0x9d009314                xTaskRemoveFromEventList

.text.prvUnlockQueue
                0x9d009448      0x134
 .text.prvUnlockQueue
                0x9d009448      0x134 build/PINGUINO/production/_ext/2129976512/queue.o

.text.prvAddCurrentTaskToDelayedList
                0x9d00957c      0x130
 .text.prvAddCurrentTaskToDelayedList
                0x9d00957c      0x130 build/PINGUINO/production/_ext/2129976512/tasks.o

.text.PerformanceConfig
                0x9d0096ac      0x12c
 .text.PerformanceConfig
                0x9d0096ac      0x12c build/PINGUINO/production/_ext/55825582/halSYS.o

.text._ZL17parse_lsda_headerP15_Unwind_ContextPKhP16lsda_header_info
                0x9d0097d8      0x12c
 .text._ZL17parse_lsda_headerP15_Unwind_ContextPKhP16lsda_header_info
                0x9d0097d8      0x12c c:/program files/microchip/xc32/v1.40/bin/bin/../../lib/gcc/pic32mx/4.8.3/../../../../pic32mx/lib/no-float\libsupc++.a(eh_personality.o)

.text._USB_DEVICE_Ep0TransmitCompleteCallback
                0x9d009904      0x128
 .text._USB_DEVICE_Ep0TransmitCompleteCallback
                0x9d009904      0x128 build/PINGUINO/production/_ext/1663442938/usb_device.o
                0x9d009904                _USB_DEVICE_Ep0TransmitCompleteCallback

.text._USB_DEVICE_ForwardControlXfrToFunction
                0x9d009a2c      0x120
 .text._USB_DEVICE_ForwardControlXfrToFunction
                0x9d009a2c      0x120 build/PINGUINO/production/_ext/1663442938/usb_device.o
                0x9d009a2c                _USB_DEVICE_ForwardControlXfrToFunction

.text._USB_DEVICE_CDC_ReadIRPCallback
                0x9d009b4c      0x11c
 .text._USB_DEVICE_CDC_ReadIRPCallback
                0x9d009b4c      0x11c build/PINGUINO/production/_ext/1663442938/usb_device_cdc.o
                0x9d009b4c                _USB_DEVICE_CDC_ReadIRPCallback

.text._USB_DEVICE_CDC_WriteIRPCallback
                0x9d009c68      0x11c
 .text._USB_DEVICE_CDC_WriteIRPCallback
                0x9d009c68      0x11c build/PINGUINO/production/_ext/1663442938/usb_device_cdc.o
                0x9d009c68                _USB_DEVICE_CDC_WriteIRPCallback

.text.PLIB_USB_OperatingModeSelect
                0x9d009d84      0x11c
 .text.PLIB_USB_OperatingModeSelect
                0x9d009d84      0x11c ..\..\..\..\..\..\..\..\..\..\microchip\harmony\v1_07_01\bin\framework\peripheral\PIC32MX440F256H_peripherals.a(peripheral.o)
                0x9d009d84                PLIB_USB_OperatingModeSelect

.text.xTimerGenericCommand
                0x9d009ea0      0x118
 .text.xTimerGenericCommand
                0x9d009ea0      0x118 build/PINGUINO/production/_ext/2129976512/timers.o
                0x9d009ea0                xTimerGenericCommand

.text.vPortFree
                0x9d009fb8      0x110
 .text.vPortFree
                0x9d009fb8      0x110 build/PINGUINO/production/_ext/696550819/heap_4.o
                0x9d009fb8                vPortFree

.text.prvHeapInit
                0x9d00a0c8      0x110
 .text.prvHeapInit
                0x9d00a0c8      0x110 build/PINGUINO/production/_ext/696550819/heap_4.o

.text.prvProcessTimerOrBlockTask
                0x9d00a1d8      0x10c
 .text.prvProcessTimerOrBlockTask
                0x9d00a1d8      0x10c build/PINGUINO/production/_ext/2129976512/timers.o

.text._USB_DEVICE_CDC_Deinitialization
                0x9d00a2e4      0x10c
 .text._USB_DEVICE_CDC_Deinitialization
                0x9d00a2e4      0x10c build/PINGUINO/production/_ext/1663442938/usb_device_cdc.o
                0x9d00a2e4                _USB_DEVICE_CDC_Deinitialization

.text._USB_DEVICE_GetFunctionDriverEntryByInterface
                0x9d00a3f0      0x10c
 .text._USB_DEVICE_GetFunctionDriverEntryByInterface
                0x9d00a3f0      0x10c build/PINGUINO/production/_ext/1663442938/usb_device.o
                0x9d00a3f0                _USB_DEVICE_GetFunctionDriverEntryByInterface

.text._USB_DEVICE_DeInitializeAllFunctionDrivers
                0x9d00a4fc      0x108
 .text._USB_DEVICE_DeInitializeAllFunctionDrivers
                0x9d00a4fc      0x108 build/PINGUINO/production/_ext/1663442938/usb_device.o
                0x9d00a4fc                _USB_DEVICE_DeInitializeAllFunctionDrivers

.text.xTaskCreate
                0x9d00a604      0x104
 .text.xTaskCreate
                0x9d00a604      0x104 build/PINGUINO/production/_ext/2129976512/tasks.o
                0x9d00a604                xTaskCreate

.text.prvInsertTimerInActiveList
                0x9d00a708      0x104
 .text.prvInsertTimerInActiveList
                0x9d00a708      0x104 build/PINGUINO/production/_ext/2129976512/timers.o

.text.vTaskStartScheduler
                0x9d00a80c      0x100
 .text.vTaskStartScheduler
                0x9d00a80c      0x100 build/PINGUINO/production/_ext/2129976512/tasks.o
                0x9d00a80c                vTaskStartScheduler

.text._USB_DEVICE_FindEndpoint
                0x9d00a90c       0xf8
 .text._USB_DEVICE_FindEndpoint
                0x9d00a90c       0xf8 build/PINGUINO/production/_ext/1663442938/usb_device.o
                0x9d00a90c                _USB_DEVICE_FindEndpoint

.text.DRV_USBFS_Open
                0x9d00aa04       0xf0
 .text.DRV_USBFS_Open
                0x9d00aa04       0xf0 build/PINGUINO/production/_ext/1643514105/drv_usbfs.o
                0x9d00aa04                DRV_USBFS_Open

.text.USB_DEVICE_ControlSend
                0x9d00aaf4       0xf0
 .text.USB_DEVICE_ControlSend
                0x9d00aaf4       0xf0 build/PINGUINO/production/_ext/1663442938/usb_device.o
                0x9d00aaf4                USB_DEVICE_ControlSend

.text.USB_DEVICE_Open
                0x9d00abe4       0xec
 .text.USB_DEVICE_Open
                0x9d00abe4       0xec build/PINGUINO/production/_ext/1663442938/usb_device.o
                0x9d00abe4                USB_DEVICE_Open

.text.APP_Initialize
                0x9d00acd0       0xe8
 .text.APP_Initialize
                0x9d00acd0       0xe8 build/PINGUINO/production/_ext/1705198617/app.o
                0x9d00acd0                APP_Initialize

.text.pxPortInitialiseStack
                0x9d00adb8       0xe8
 .text.pxPortInitialiseStack
                0x9d00adb8       0xe8 build/PINGUINO/production/_ext/1298945782/port.o
                0x9d00adb8                pxPortInitialiseStack

.text.free      0x9d00aea0       0xe8
 .text.free     0x9d00aea0       0xe8 c:/program files/microchip/xc32/v1.40/bin/bin/../../lib/gcc/pic32mx/4.8.3/../../../../pic32mx/lib/no-float\libxcpp.a(free.o)
                0x9d00aea0                free

.text._ZNK10__cxxabiv117__class_type_info10__do_catchEPKSt9type_infoPPvj
                0x9d00af88       0xe0
 .text._ZNK10__cxxabiv117__class_type_info10__do_catchEPKSt9type_infoPPvj
                0x9d00af88       0xe0 c:/program files/microchip/xc32/v1.40/bin/bin/../../lib/gcc/pic32mx/4.8.3/../../../../pic32mx/lib/no-float\libsupc++.a(class_type_info.o)
                0x9d00af88                __cxxabiv1::__class_type_info::__do_catch(std::type_info const*, void**, unsigned int) const

.text.prvProcessExpiredTimer
                0x9d00b068       0xdc
 .text.prvProcessExpiredTimer
                0x9d00b068       0xdc build/PINGUINO/production/_ext/2129976512/timers.o

.text.vListInsert
                0x9d00b144       0xdc
 .text.vListInsert
                0x9d00b144       0xdc build/PINGUINO/production/_ext/2129976512/list.o
                0x9d00b144                vListInsert

.text.general_exception
                0x9d00b220       0xdc
 .text.general_exception
                0x9d00b220       0xdc c:/program files/microchip/xc32/v1.40/bin/bin/../../lib/gcc/pic32mx/4.8.3/../../../../pic32mx/lib/no-float\libpic32.a(general-exception.o)
                0x9d00b220                _general_exception_context

.text.USB_DEVICE_ControlStatus
                0x9d00b2fc       0xd4
 .text.USB_DEVICE_ControlStatus
                0x9d00b2fc       0xd4 build/PINGUINO/production/_ext/1663442938/usb_device.o
                0x9d00b2fc                USB_DEVICE_ControlStatus

.text._ZNK10__cxxabiv117__class_type_info12__do_dyncastElNS0_10__sub_kindEPKS0_PKvS3_S5_RNS0_16__dyncast_resultE
                0x9d00b3d0       0xd4
 .text._ZNK10__cxxabiv117__class_type_info12__do_dyncastElNS0_10__sub_kindEPKS0_PKvS3_S5_RNS0_16__dyncast_resultE
                0x9d00b3d0       0xd4 c:/program files/microchip/xc32/v1.40/bin/bin/../../lib/gcc/pic32mx/4.8.3/../../../../pic32mx/lib/no-float\libsupc++.a(class_type_info.o)
                0x9d00b3d0                __cxxabiv1::__class_type_info::__do_dyncast(long, __cxxabiv1::__class_type_info::__sub_kind, __cxxabiv1::__class_type_info const*, void const*, __cxxabiv1::__class_type_info const*, void const*, __cxxabiv1::__class_type_info::__dyncast_result&) const

.text.prvInitialiseTaskLists
                0x9d00b4a4       0xd0
 .text.prvInitialiseTaskLists
                0x9d00b4a4       0xd0 build/PINGUINO/production/_ext/2129976512/tasks.o

.text.xQueueGenericCreate
                0x9d00b574       0xcc
 .text.xQueueGenericCreate
                0x9d00b574       0xcc build/PINGUINO/production/_ext/2129976512/queue.o
                0x9d00b574                xQueueGenericCreate

.text.DRV_USBFS_Tasks_ISR
                0x9d00b640       0xcc
 .text.DRV_USBFS_Tasks_ISR
                0x9d00b640       0xcc build/PINGUINO/production/_ext/1643514105/drv_usbfs.o
                0x9d00b640                DRV_USBFS_Tasks_ISR

.text.exit      0x9d00b70c       0xc8
 .text.exit     0x9d00b70c       0xc8 c:/program files/microchip/xc32/v1.40/bin/bin/../../lib/gcc/pic32mx/4.8.3/../../../../pic32mx/lib/no-float\libxcpp.a(exit.o)
                0x9d00b70c                exit

.text._sbrk     0x9d00b7d4       0xc8
 .text._sbrk    0x9d00b7d4       0xc8 c:/program files/microchip/xc32/v1.40/bin/bin/../../lib/gcc/pic32mx/4.8.3/../../../../pic32mx/lib/no-float\libpic32.a(sbrk.o)
                0x9d00b7d4                _sbrk

.text.__cxa_begin_catch
                0x9d00b89c       0xc4
 .text.__cxa_begin_catch
                0x9d00b89c       0xc4 c:/program files/microchip/xc32/v1.40/bin/bin/../../lib/gcc/pic32mx/4.8.3/../../../../pic32mx/lib/no-float\libsupc++.a(eh_catch.o)
                0x9d00b89c                __cxa_begin_catch

.text.PLIB_USB_EPnAttributesSet
                0x9d00b960       0xbc
 .text.PLIB_USB_EPnAttributesSet
                0x9d00b960       0xbc ..\..\..\..\..\..\..\..\..\..\microchip\harmony\v1_07_01\bin\framework\peripheral\PIC32MX440F256H_peripherals.a(peripheral.o)
                0x9d00b960                PLIB_USB_EPnAttributesSet

.text.prvCheckTasksWaitingTermination
                0x9d00ba1c       0xb8
 .text.prvCheckTasksWaitingTermination
                0x9d00ba1c       0xb8 build/PINGUINO/production/_ext/2129976512/tasks.o

.text.vQueueWaitForMessageRestricted
                0x9d00bad4       0xb4
 .text.vQueueWaitForMessageRestricted
                0x9d00bad4       0xb4 build/PINGUINO/production/_ext/2129976512/queue.o
                0x9d00bad4                vQueueWaitForMessageRestricted

.text.DRV_USBFS_ClientEventCallBackSet
                0x9d00bb88       0xb4
 .text.DRV_USBFS_ClientEventCallBackSet
                0x9d00bb88       0xb4 build/PINGUINO/production/_ext/1643514105/drv_usbfs.o
                0x9d00bb88                DRV_USBFS_ClientEventCallBackSet

.text.DRV_USBFS_DEVICE_EndpointIsEnabled
                0x9d00bc3c       0xb4
 .text.DRV_USBFS_DEVICE_EndpointIsEnabled
                0x9d00bc3c       0xb4 build/PINGUINO/production/_ext/1643514105/drv_usbfs_device.o
                0x9d00bc3c                DRV_USBFS_DEVICE_EndpointIsEnabled

.text.DRV_USBFS_DEVICE_EndpointIsStalled
                0x9d00bcf0       0xb4
 .text.DRV_USBFS_DEVICE_EndpointIsStalled
                0x9d00bcf0       0xb4 build/PINGUINO/production/_ext/1643514105/drv_usbfs_device.o
                0x9d00bcf0                DRV_USBFS_DEVICE_EndpointIsStalled

.text._ZN13MyApplicationC2Ev
                0x9d00bda4       0xac
 .text._ZN13MyApplicationC2Ev
                0x9d00bda4       0xac build/PINGUINO/production/_ext/1472/Main.o
                0x9d00bda4                MyApplication::MyApplication()
                0x9d00bda4                MyApplication::MyApplication()

.text.vTaskEnterCritical
                0x9d00be50       0xac
 .text.vTaskEnterCritical
                0x9d00be50       0xac build/PINGUINO/production/_ext/2129976512/tasks.o
                0x9d00be50                vTaskEnterCritical

.text._ZL20check_exception_specP16lsda_header_infoPKSt9type_infoPvl
                0x9d00befc       0xac
 .text._ZL20check_exception_specP16lsda_header_infoPKSt9type_infoPvl
                0x9d00befc       0xac c:/program files/microchip/xc32/v1.40/bin/bin/../../lib/gcc/pic32mx/4.8.3/../../../../pic32mx/lib/no-float\libsupc++.a(eh_personality.o)

.text._ZL21size_of_encoded_valueh
                0x9d00bfa8       0xa8
 .text._ZL21size_of_encoded_valueh
                0x9d00bfa8       0xa8 c:/program files/microchip/xc32/v1.40/bin/bin/../../lib/gcc/pic32mx/4.8.3/../../../../pic32mx/lib/no-float\libsupc++.a(eh_personality.o)

.text._DRV_USBFS_DEVICE_IRPQueueFlush
                0x9d00c050       0xa4
 .text._DRV_USBFS_DEVICE_IRPQueueFlush
                0x9d00c050       0xa4 build/PINGUINO/production/_ext/1643514105/drv_usbfs_device.o
                0x9d00c050                _DRV_USBFS_DEVICE_IRPQueueFlush

.text.__cxa_allocate_exception
                0x9d00c0f4       0xa4
 .text.__cxa_allocate_exception
                0x9d00c0f4       0xa4 c:/program files/microchip/xc32/v1.40/bin/bin/../../lib/gcc/pic32mx/4.8.3/../../../../pic32mx/lib/no-float\libsupc++.a(eh_alloc.o)
                0x9d00c0f4                __cxa_allocate_exception

.text._ZL21base_of_encoded_valuehP15_Unwind_Context
                0x9d00c198       0xa4
 .text._ZL21base_of_encoded_valuehP15_Unwind_Context
                0x9d00c198       0xa4 c:/program files/microchip/xc32/v1.40/bin/bin/../../lib/gcc/pic32mx/4.8.3/../../../../pic32mx/lib/no-float\libsupc++.a(eh_personality.o)

.text.vTaskDelay
                0x9d00c23c       0x9c
 .text.vTaskDelay
                0x9d00c23c       0x9c build/PINGUINO/production/_ext/2129976512/tasks.o
                0x9d00c23c                vTaskDelay

.text.prvCopyDataFromQueue
                0x9d00c2d8       0x9c
 .text.prvCopyDataFromQueue
                0x9d00c2d8       0x9c build/PINGUINO/production/_ext/2129976512/queue.o

.text.__cxa_throw
                0x9d00c374       0x9c
 .text.__cxa_throw
                0x9d00c374       0x9c c:/program files/microchip/xc32/v1.40/bin/bin/../../lib/gcc/pic32mx/4.8.3/../../../../pic32mx/lib/no-float\libsupc++.a(eh_throw.o)
                0x9d00c374                __cxa_throw

.text._USB_DEVICE_RedirectControlXfrToClient
                0x9d00c410       0x98
 .text._USB_DEVICE_RedirectControlXfrToClient
                0x9d00c410       0x98 build/PINGUINO/production/_ext/1663442938/usb_device.o
                0x9d00c410                _USB_DEVICE_RedirectControlXfrToClient

.text.APP_StateReset
                0x9d00c4a8       0x94
 .text.APP_StateReset
                0x9d00c4a8       0x94 build/PINGUINO/production/_ext/1705198617/app.o
                0x9d00c4a8                APP_StateReset

.text._ZNK10__cxxabiv120__si_class_type_info20__do_find_public_srcElPKvPKNS_17__class_type_infoES2_
                0x9d00c53c       0x94
 .text._ZNK10__cxxabiv120__si_class_type_info20__do_find_public_srcElPKvPKNS_17__class_type_infoES2_
                0x9d00c53c       0x94 c:/program files/microchip/xc32/v1.40/bin/bin/../../lib/gcc/pic32mx/4.8.3/../../../../pic32mx/lib/no-float\libsupc++.a(si_class_type_info.o)
                0x9d00c53c                __cxxabiv1::__si_class_type_info::__do_find_public_src(long, void const*, __cxxabiv1::__class_type_info const*, void const*) const

.text._ZN3eos4TaskC2EjNS_12TaskPriorityEPNS_8IRunableE
                0x9d00c5d0       0x90
 .text._ZN3eos4TaskC2EjNS_12TaskPriorityEPNS_8IRunableE
                0x9d00c5d0       0x90 build/PINGUINO/production/_ext/1935080774/eosTask.o
                0x9d00c5d0                eos::Task::Task(unsigned int, eos::TaskPriority, eos::IRunable*)
                0x9d00c5d0                eos::Task::Task(unsigned int, eos::TaskPriority, eos::IRunable*)

.text.uxListRemove
                0x9d00c660       0x90
 .text.uxListRemove
                0x9d00c660       0x90 build/PINGUINO/production/_ext/2129976512/list.o
                0x9d00c660                uxListRemove

.text.vApplicationSetupTickTimerInterrupt
                0x9d00c6f0       0x8c
 .text.vApplicationSetupTickTimerInterrupt
                0x9d00c6f0       0x8c build/PINGUINO/production/_ext/1298945782/port.o
                0x9d00c6f0                vApplicationSetupTickTimerInterrupt

.text.USB_DEVICE_EventHandlerSet
                0x9d00c77c       0x8c
 .text.USB_DEVICE_EventHandlerSet
                0x9d00c77c       0x8c build/PINGUINO/production/_ext/1663442938/usb_device.o
                0x9d00c77c                USB_DEVICE_EventHandlerSet

.text._Znwm     0x9d00c808       0x8c
 .text._Znwm    0x9d00c808       0x8c c:/program files/microchip/xc32/v1.40/bin/bin/../../lib/gcc/pic32mx/4.8.3/../../../../pic32mx/lib/no-float\libsupc++.a(new_op.o)
                0x9d00c808                operator new(unsigned long)

.text.xTimerCreateTimerTask
                0x9d00c894       0x88
 .text.xTimerCreateTimerTask
                0x9d00c894       0x88 build/PINGUINO/production/_ext/2129976512/timers.o
                0x9d00c894                xTimerCreateTimerTask

.text._USB_DEVICE_CDC_EndpointDisable
                0x9d00c91c       0x88
 .text._USB_DEVICE_CDC_EndpointDisable
                0x9d00c91c       0x88 build/PINGUINO/production/_ext/1663442938/usb_device_cdc.o
                0x9d00c91c                _USB_DEVICE_CDC_EndpointDisable

.text._ZN3eos11Application7executeEv
                0x9d00c9a4       0x84
 .text._ZN3eos11Application7executeEv
                0x9d00c9a4       0x84 build/PINGUINO/production/_ext/1315484212/eosApplication.o
                0x9d00c9a4                eos::Application::execute()

.text.prvCheckForValidListAndQueue
                0x9d00ca28       0x84
 .text.prvCheckForValidListAndQueue
                0x9d00ca28       0x84 build/PINGUINO/production/_ext/2129976512/timers.o

.text._ZNK10__cxxabiv117__class_type_info11__do_upcastEPKS0_PKvRNS0_15__upcast_resultE
                0x9d00caac       0x84
 .text._ZNK10__cxxabiv117__class_type_info11__do_upcastEPKS0_PKvRNS0_15__upcast_resultE
                0x9d00caac       0x84 c:/program files/microchip/xc32/v1.40/bin/bin/../../lib/gcc/pic32mx/4.8.3/../../../../pic32mx/lib/no-float\libsupc++.a(class_type_info.o)
                0x9d00caac                __cxxabiv1::__class_type_info::__do_upcast(__cxxabiv1::__class_type_info const*, void const*, __cxxabiv1::__class_type_info::__upcast_result&) const

.text.vTaskPlaceOnEventListRestricted
                0x9d00cb30       0x80
 .text.vTaskPlaceOnEventListRestricted
                0x9d00cb30       0x80 build/PINGUINO/production/_ext/2129976512/tasks.o
                0x9d00cb30                vTaskPlaceOnEventListRestricted

.text.prvInitialiseNewQueue
                0x9d00cbb0       0x80
 .text.prvInitialiseNewQueue
                0x9d00cbb0       0x80 build/PINGUINO/production/_ext/2129976512/queue.o

.text.USB_DEVICE_CDC_EventHandlerSet
                0x9d00cc30       0x80
 .text.USB_DEVICE_CDC_EventHandlerSet
                0x9d00cc30       0x80 build/PINGUINO/production/_ext/1663442938/usb_device_cdc.o
                0x9d00cc30                USB_DEVICE_CDC_EventHandlerSet

.text.USB_DEVICE_ControlReceive
                0x9d00ccb0       0x80
 .text.USB_DEVICE_ControlReceive
                0x9d00ccb0       0x80 build/PINGUINO/production/_ext/1663442938/usb_device.o
                0x9d00ccb0                USB_DEVICE_ControlReceive

.text._ZL16get_adjusted_ptrPKSt9type_infoS1_PPv
                0x9d00cd30       0x80
 .text._ZL16get_adjusted_ptrPKSt9type_infoS1_PPv
                0x9d00cd30       0x80 c:/program files/microchip/xc32/v1.40/bin/bin/../../lib/gcc/pic32mx/4.8.3/../../../../pic32mx/lib/no-float\libsupc++.a(eh_personality.o)

.text.vTaskExitCritical
                0x9d00cdb0       0x7c
 .text.vTaskExitCritical
                0x9d00cdb0       0x7c build/PINGUINO/production/_ext/2129976512/tasks.o
                0x9d00cdb0                vTaskExitCritical

.text.xPortStartScheduler
                0x9d00ce2c       0x7c
 .text.xPortStartScheduler
                0x9d00ce2c       0x7c build/PINGUINO/production/_ext/1298945782/port.o
                0x9d00ce2c                xPortStartScheduler

.text.vListInsertEnd
                0x9d00cea8       0x7c
 .text.vListInsertEnd
                0x9d00cea8       0x7c build/PINGUINO/production/_ext/2129976512/list.o
                0x9d00cea8                vListInsertEnd

.text.usbSetup  0x9d00cf24       0x78
 .text.usbSetup
                0x9d00cf24       0x78 build/PINGUINO/production/_ext/1705198617/system_init.o
                0x9d00cf24                usbSetup

.text.DRV_USBFS_DEVICE_Attach
                0x9d00cf9c       0x78
 .text.DRV_USBFS_DEVICE_Attach
                0x9d00cf9c       0x78 build/PINGUINO/production/_ext/1643514105/drv_usbfs_device.o
                0x9d00cf9c                DRV_USBFS_DEVICE_Attach

.rodata         0x9d00d014       0x74
 .rodata        0x9d00d014       0x74 build/PINGUINO/production/_ext/1298945782/port.o
                0x9d00d014                xISRStackTop

.text.prvTaskExitError
                0x9d00d088       0x74
 .text.prvTaskExitError
                0x9d00d088       0x74 build/PINGUINO/production/_ext/1298945782/port.o

.text._ZN10__cxxabiv111__terminateEPFvvE
                0x9d00d0fc       0x74
 .text._ZN10__cxxabiv111__terminateEPFvvE
                0x9d00d0fc       0x74 c:/program files/microchip/xc32/v1.40/bin/bin/../../lib/gcc/pic32mx/4.8.3/../../../../pic32mx/lib/no-float\libsupc++.a(eh_terminate.o)
                0x9d00d0fc                __cxxabiv1::__terminate(void (*)())

.text.main      0x9d00d170       0x70
 .text.main     0x9d00d170       0x70 build/PINGUINO/production/_ext/1472/Main.o
                0x9d00d170                main

.text._ZN3eos16UsbClientServiceC2Ev
                0x9d00d1e0       0x70
 .text._ZN3eos16UsbClientServiceC2Ev
                0x9d00d1e0       0x70 build/PINGUINO/production/_ext/2012494728/eosUsbClient.o
                0x9d00d1e0                eos::UsbClientService::UsbClientService()
                0x9d00d1e0                eos::UsbClientService::UsbClientService()

.text._ZN3eos14AppLoopServiceC2Ev
                0x9d00d250       0x70
 .text._ZN3eos14AppLoopServiceC2Ev
                0x9d00d250       0x70 build/PINGUINO/production/_ext/863068963/eosAppLoop.o
                0x9d00d250                eos::AppLoopService::AppLoopService()
                0x9d00d250                eos::AppLoopService::AppLoopService()

.rodata         0x9d00d2c0       0x70
 .rodata        0x9d00d2c0       0x70 build/PINGUINO/production/_ext/696550819/heap_4.o

.text._ZL23__gxx_exception_cleanup19_Unwind_Reason_CodeP17_Unwind_Exception
                0x9d00d330       0x70
 .text._ZL23__gxx_exception_cleanup19_Unwind_Reason_CodeP17_Unwind_Exception
                0x9d00d330       0x70 c:/program files/microchip/xc32/v1.40/bin/bin/../../lib/gcc/pic32mx/4.8.3/../../../../pic32mx/lib/no-float\libsupc++.a(eh_throw.o)

.text.prvSampleTimeNow
                0x9d00d3a0       0x6c
 .text.prvSampleTimeNow
                0x9d00d3a0       0x6c build/PINGUINO/production/_ext/2129976512/timers.o

.text.DRV_USBFS_DEVICE_Detach
                0x9d00d40c       0x6c
 .text.DRV_USBFS_DEVICE_Detach
                0x9d00d40c       0x6c build/PINGUINO/production/_ext/1643514105/drv_usbfs_device.o
                0x9d00d40c                DRV_USBFS_DEVICE_Detach

.text._USB_DEVICE_ClientHandleValidate
                0x9d00d478       0x6c
 .text._USB_DEVICE_ClientHandleValidate
                0x9d00d478       0x6c build/PINGUINO/production/_ext/1663442938/usb_device.o
                0x9d00d478                _USB_DEVICE_ClientHandleValidate

.text.__cxa_free_exception
                0x9d00d4e4       0x6c
 .text.__cxa_free_exception
                0x9d00d4e4       0x6c c:/program files/microchip/xc32/v1.40/bin/bin/../../lib/gcc/pic32mx/4.8.3/../../../../pic32mx/lib/no-float\libsupc++.a(eh_alloc.o)
                0x9d00d4e4                __cxa_free_exception

.text._ZNK10__cxxabiv120__si_class_type_info11__do_upcastEPKNS_17__class_type_infoEPKvRNS1_15__upcast_resultE
                0x9d00d550       0x6c
 .text._ZNK10__cxxabiv120__si_class_type_info11__do_upcastEPKNS_17__class_type_infoEPKvRNS1_15__upcast_resultE
                0x9d00d550       0x6c c:/program files/microchip/xc32/v1.40/bin/bin/../../lib/gcc/pic32mx/4.8.3/../../../../pic32mx/lib/no-float\libsupc++.a(si_class_type_info.o)
                0x9d00d550                __cxxabiv1::__si_class_type_info::__do_upcast(__cxxabiv1::__class_type_info const*, void const*, __cxxabiv1::__class_type_info::__upcast_result&) const

.text._ZN3eos4TaskD2Ev
                0x9d00d5bc       0x68
 .text._ZN3eos4TaskD2Ev
                0x9d00d5bc       0x68 build/PINGUINO/production/_ext/1935080774/eosTask.o
                0x9d00d5bc                eos::Task::~Task()
                0x9d00d5bc                eos::Task::~Task()

.text.vTaskPlaceOnEventList
                0x9d00d624       0x68
 .text.vTaskPlaceOnEventList
                0x9d00d624       0x68 build/PINGUINO/production/_ext/2129976512/tasks.o
                0x9d00d624                vTaskPlaceOnEventList

.text._ZNK10__cxxabiv117__class_type_info11__do_upcastEPKS0_PPv
                0x9d00d68c       0x68
 .text._ZNK10__cxxabiv117__class_type_info11__do_upcastEPKS0_PPv
                0x9d00d68c       0x68 c:/program files/microchip/xc32/v1.40/bin/bin/../../lib/gcc/pic32mx/4.8.3/../../../../pic32mx/lib/no-float\libsupc++.a(class_type_info.o)
                0x9d00d68c                __cxxabiv1::__class_type_info::__do_upcast(__cxxabiv1::__class_type_info const*, void**) const

.text.prvResetNextTaskUnblockTime
                0x9d00d6f4       0x64
 .text.prvResetNextTaskUnblockTime
                0x9d00d6f4       0x64 build/PINGUINO/production/_ext/2129976512/tasks.o

.rodata         0x9d00d758       0x64
 .rodata        0x9d00d758       0x64 build/PINGUINO/production/_ext/2129976512/timers.o

.text.vPortIncrementTick
                0x9d00d7bc       0x64
 .text.vPortIncrementTick
                0x9d00d7bc       0x64 build/PINGUINO/production/_ext/1298945782/port.o
                0x9d00d7bc                vPortIncrementTick

.text._DRV_USBFS_DEVICE_EndpointObjectEnable
                0x9d00d820       0x64
 .text._DRV_USBFS_DEVICE_EndpointObjectEnable
                0x9d00d820       0x64 build/PINGUINO/production/_ext/1643514105/drv_usbfs_device.o
                0x9d00d820                _DRV_USBFS_DEVICE_EndpointObjectEnable

.text.SYS_INT_SourceDisable
                0x9d00d884       0x64
 .text.SYS_INT_SourceDisable
                0x9d00d884       0x64 build/PINGUINO/production/_ext/1712295097/sys_int_pic32.o
                0x9d00d884                SYS_INT_SourceDisable

.text.__cxa_call_terminate
                0x9d00d8e8       0x64
 .text.__cxa_call_terminate
                0x9d00d8e8       0x64 c:/program files/microchip/xc32/v1.40/bin/bin/../../lib/gcc/pic32mx/4.8.3/../../../../pic32mx/lib/no-float\libsupc++.a(eh_call.o)
                0x9d00d8e8                __cxa_call_terminate

.text._ZN3eos14AppLoopService3runEv
                0x9d00d94c       0x60
 .text._ZN3eos14AppLoopService3runEv
                0x9d00d94c       0x60 build/PINGUINO/production/_ext/863068963/eosAppLoop.o
                0x9d00d94c                eos::AppLoopService::run()

.rodata         0x9d00d9ac       0x60
 .rodata        0x9d00d9ac       0x60 build/PINGUINO/production/_ext/2129976512/tasks.o

.text.prvGetNextExpireTime
                0x9d00da0c       0x60
 .text.prvGetNextExpireTime
                0x9d00da0c       0x60 build/PINGUINO/production/_ext/2129976512/timers.o

.text._USB_DEVICE_CDC_GlobalInitialize
                0x9d00da6c       0x60
 .text._USB_DEVICE_CDC_GlobalInitialize
                0x9d00da6c       0x60 build/PINGUINO/production/_ext/1663442938/usb_device_cdc.o
                0x9d00da6c                _USB_DEVICE_CDC_GlobalInitialize

.text.PLIB_USB_BDTBaseAddressSet
                0x9d00dacc       0x60
 .text.PLIB_USB_BDTBaseAddressSet
                0x9d00dacc       0x60 ..\..\..\..\..\..\..\..\..\..\microchip\harmony\v1_07_01\bin\framework\peripheral\PIC32MX440F256H_peripherals.a(peripheral.o)
                0x9d00dacc                PLIB_USB_BDTBaseAddressSet

.text._ZL15get_ttype_entryP16lsda_header_infom
                0x9d00db2c       0x60
 .text._ZL15get_ttype_entryP16lsda_header_infom
                0x9d00db2c       0x60 c:/program files/microchip/xc32/v1.40/bin/bin/../../lib/gcc/pic32mx/4.8.3/../../../../pic32mx/lib/no-float\libsupc++.a(eh_personality.o)

.text.vApplicationStackOverflowHook
                0x9d00db8c       0x5c
 .text.vApplicationStackOverflowHook
                0x9d00db8c       0x5c build/PINGUINO/production/_ext/1472/rtos_hooks.o
                0x9d00db8c                vApplicationStackOverflowHook

.text.prvIsQueueFull
                0x9d00dbe8       0x5c
 .text.prvIsQueueFull
                0x9d00dbe8       0x5c build/PINGUINO/production/_ext/2129976512/queue.o

.text._DRV_USBFS_DEVICE_Initialize
                0x9d00dc44       0x5c
 .text._DRV_USBFS_DEVICE_Initialize
                0x9d00dc44       0x5c build/PINGUINO/production/_ext/1643514105/drv_usbfs_device.o
                0x9d00dc44                _DRV_USBFS_DEVICE_Initialize

.text.prvIdleTask
                0x9d00dca0       0x58
 .text.prvIdleTask
                0x9d00dca0       0x58 build/PINGUINO/production/_ext/2129976512/tasks.o

.rodata         0x9d00dcf8       0x58
 .rodata        0x9d00dcf8       0x58 build/PINGUINO/production/_ext/2129976512/queue.o

.text.DRV_USBFS_DEVICE_AddressSet
                0x9d00dd50       0x58
 .text.DRV_USBFS_DEVICE_AddressSet
                0x9d00dd50       0x58 build/PINGUINO/production/_ext/1643514105/drv_usbfs_device.o
                0x9d00dd50                DRV_USBFS_DEVICE_AddressSet

.text           0x9d00dda8       0x58
 .text          0x9d00dda8       0x58 c:/program files/microchip/xc32/v1.40/bin/bin/../../lib/gcc/pic32mx/4.8.3/no-float/crtend.o

.text.main_entry
                0x9d00de00       0x54
 .text.main_entry
                0x9d00de00       0x54 c:/program files/microchip/xc32/v1.40/bin/bin/../../lib/gcc/pic32mx/4.8.3/../../../../pic32mx/lib/./proc/32MX440F256H/cpprt0_mips32r2.o
                0x9d00de34                __crt0_exit

.text._ZN16MyAppLoopService5setupEv
                0x9d00de54       0x54
 .text._ZN16MyAppLoopService5setupEv
                0x9d00de54       0x54 build/PINGUINO/production/_ext/1472/Main.o
                0x9d00de54                MyAppLoopService::setup()

.text.vApplicationMallocFailedHook
                0x9d00dea8       0x54
 .text.vApplicationMallocFailedHook
                0x9d00dea8       0x54 build/PINGUINO/production/_ext/1472/rtos_hooks.o
                0x9d00dea8                vApplicationMallocFailedHook

.text.vTaskSetTimeOutState
                0x9d00defc       0x54
 .text.vTaskSetTimeOutState
                0x9d00defc       0x54 build/PINGUINO/production/_ext/2129976512/tasks.o
                0x9d00defc                vTaskSetTimeOutState

.text.prvIsQueueEmpty
                0x9d00df50       0x54
 .text.prvIsQueueEmpty
                0x9d00df50       0x54 build/PINGUINO/production/_ext/2129976512/queue.o

.text.DRV_USBFS_Close
                0x9d00dfa4       0x54
 .text.DRV_USBFS_Close
                0x9d00dfa4       0x54 build/PINGUINO/production/_ext/1643514105/drv_usbfs.o
                0x9d00dfa4                DRV_USBFS_Close

.text.xTaskGetSchedulerState
                0x9d00dff8       0x50
 .text.xTaskGetSchedulerState
                0x9d00dff8       0x50 build/PINGUINO/production/_ext/2129976512/tasks.o
                0x9d00dff8                xTaskGetSchedulerState

.text.uxPortSetInterruptMaskFromISR
                0x9d00e048       0x50
 .text.uxPortSetInterruptMaskFromISR
                0x9d00e048       0x50 build/PINGUINO/production/_ext/1298945782/port.o
                0x9d00e048                uxPortSetInterruptMaskFromISR

.text.vListInitialise
                0x9d00e098       0x50
 .text.vListInitialise
                0x9d00e098       0x50 build/PINGUINO/production/_ext/2129976512/list.o
                0x9d00e098                vListInitialise

.text.DRV_USBFS_DEVICE_SOFNumberGet
                0x9d00e0e8       0x50
 .text.DRV_USBFS_DEVICE_SOFNumberGet
                0x9d00e0e8       0x50 build/PINGUINO/production/_ext/1643514105/drv_usbfs_device.o
                0x9d00e0e8                DRV_USBFS_DEVICE_SOFNumberGet

.text.PLIB_INT_VectorPrioritySet
                0x9d00e138       0x50
 .text.PLIB_INT_VectorPrioritySet
                0x9d00e138       0x50 ..\..\..\..\..\..\..\..\..\..\microchip\harmony\v1_07_01\bin\framework\peripheral\PIC32MX440F256H_peripherals.a(peripheral.o)
                0x9d00e138                PLIB_INT_VectorPrioritySet

.text._ZNKSt9type_info10__do_catchEPKS_PPvj
                0x9d00e188       0x50
 .text._ZNKSt9type_info10__do_catchEPKS_PPvj
                0x9d00e188       0x50 c:/program files/microchip/xc32/v1.40/bin/bin/../../lib/gcc/pic32mx/4.8.3/../../../../pic32mx/lib/no-float\libsupc++.a(tinfo.o)
                0x9d00e188                std::type_info::__do_catch(std::type_info const*, void**, unsigned int) const

.text._ZL12read_sleb128PKhPl
                0x9d00e1d8       0x50
 .text._ZL12read_sleb128PKhPl
                0x9d00e1d8       0x50 c:/program files/microchip/xc32/v1.40/bin/bin/../../lib/gcc/pic32mx/4.8.3/../../../../pic32mx/lib/no-float\libsupc++.a(eh_personality.o)

.text.sbrk      0x9d00e228       0x50
 .text.sbrk     0x9d00e228       0x50 c:/program files/microchip/xc32/v1.40/bin/bin/../../lib/gcc/pic32mx/4.8.3/../../../../pic32mx/lib/no-float\libpic32.a(sbrk.o)
                0x9d00e228                sbrk

.text.PLIB_INT_VectorSubPrioritySet
                0x9d00e278       0x4c
 .text.PLIB_INT_VectorSubPrioritySet
                0x9d00e278       0x4c ..\..\..\..\..\..\..\..\..\..\microchip\harmony\v1_07_01\bin\framework\peripheral\PIC32MX440F256H_peripherals.a(peripheral.o)
                0x9d00e278                PLIB_INT_VectorSubPrioritySet

.text._ZN3eos4Task8functionEPv
                0x9d00e2c4       0x48
 .text._ZN3eos4Task8functionEPv
                0x9d00e2c4       0x48 build/PINGUINO/production/_ext/1935080774/eosTask.o
                0x9d00e2c4                eos::Task::function(void*)

.text.DRV_USBFS_DEVICE_RemoteWakeupStart
                0x9d00e30c       0x48
 .text.DRV_USBFS_DEVICE_RemoteWakeupStart
                0x9d00e30c       0x48 build/PINGUINO/production/_ext/1643514105/drv_usbfs_device.o
                0x9d00e30c                DRV_USBFS_DEVICE_RemoteWakeupStart

.text.DRV_USBFS_DEVICE_RemoteWakeupStop
                0x9d00e354       0x48
 .text.DRV_USBFS_DEVICE_RemoteWakeupStop
                0x9d00e354       0x48 build/PINGUINO/production/_ext/1643514105/drv_usbfs_device.o
                0x9d00e354                DRV_USBFS_DEVICE_RemoteWakeupStop

.text._bootstrap_exception_handler
                0x9d00e39c       0x48
 .text._bootstrap_exception_handler
                0x9d00e39c       0x48 c:/program files/microchip/xc32/v1.40/bin/bin/../../lib/gcc/pic32mx/4.8.3/../../../../pic32mx/lib/no-float\libpic32.a(default-bootstrap-exception-handler.o)
                0x9d00e39c                _bootstrap_exception_handler

.text._general_exception_handler
                0x9d00e3e4       0x48
 .text._general_exception_handler
                0x9d00e3e4       0x48 c:/program files/microchip/xc32/v1.40/bin/bin/../../lib/gcc/pic32mx/4.8.3/../../../../pic32mx/lib/no-float\libpic32.a(default-general-exception-handler.o)
                0x9d00e3e4                _general_exception_handler

.vector_default
                0x9d00e42c       0x48
 .vector_default
                0x9d00e42c       0x48 c:/program files/microchip/xc32/v1.40/bin/bin/../../lib/gcc/pic32mx/4.8.3/../../../../pic32mx/lib/no-float\libpic32.a(defaultinterrupt.o)
                0x9d00e42c                _DefaultInterrupt

.text._ZN16MyAppLoopService4loopEv
                0x9d00e474       0x44
 .text._ZN16MyAppLoopService4loopEv
                0x9d00e474       0x44 build/PINGUINO/production/_ext/1472/Main.o
                0x9d00e474                MyAppLoopService::loop()

.text.vAssertCalled
                0x9d00e4b8       0x44
 .text.vAssertCalled
                0x9d00e4b8       0x44 build/PINGUINO/production/_ext/1472/rtos_hooks.o
                0x9d00e4b8                vAssertCalled

.text._ZN3eos4TaskD0Ev
                0x9d00e4fc       0x44
 .text._ZN3eos4TaskD0Ev
                0x9d00e4fc       0x44 build/PINGUINO/production/_ext/1935080774/eosTask.o
                0x9d00e4fc                eos::Task::~Task()

.text._ZN3eos4Task5delayEj
                0x9d00e540       0x44
 .text._ZN3eos4Task5delayEj
                0x9d00e540       0x44 build/PINGUINO/production/_ext/1935080774/eosTask.o
                0x9d00e540                eos::Task::delay(unsigned int)

.text._ZN3eos11ApplicationC2Ev
                0x9d00e584       0x44
 .text._ZN3eos11ApplicationC2Ev
                0x9d00e584       0x44 build/PINGUINO/production/_ext/1315484212/eosApplication.o
                0x9d00e584                eos::Application::Application()
                0x9d00e584                eos::Application::Application()

.text.prvTimerTask
                0x9d00e5c8       0x44
 .text.prvTimerTask
                0x9d00e5c8       0x44 build/PINGUINO/production/_ext/2129976512/timers.o

.text.strcmp    0x9d00e60c       0x44
 .text.strcmp   0x9d00e60c       0x44 c:/program files/microchip/xc32/v1.40/bin/bin/../../lib/gcc/pic32mx/4.8.3/../../../../pic32mx/lib/no-float\libxcpp.a(strcmp.o)
                0x9d00e60c                strcmp

.text           0x9d00e650       0x44
 .text          0x9d00e650       0x44 c:/program files/microchip/xc32/v1.40/bin/bin/../../lib/gcc/pic32mx/4.8.3/../../../../pic32mx/lib/no-float\pic32_software_reset.o
                0x9d00e650                __pic32_software_reset

.text.halSYSInitialize
                0x9d00e694       0x40
 .text.halSYSInitialize
                0x9d00e694       0x40 build/PINGUINO/production/_ext/55825582/halSYS.o
                0x9d00e694                halSYSInitialize

.text.usbLoop   0x9d00e6d4       0x40
 .text.usbLoop  0x9d00e6d4       0x40 build/PINGUINO/production/_ext/1705198617/system_init.o
                0x9d00e6d4                usbLoop

.text.prvDeleteTCB
                0x9d00e714       0x3c
 .text.prvDeleteTCB
                0x9d00e714       0x3c build/PINGUINO/production/_ext/2129976512/tasks.o

.text.PLIB_INT_SourceIsEnabled
                0x9d00e750       0x38
 .text.PLIB_INT_SourceIsEnabled
                0x9d00e750       0x38 ..\..\..\..\..\..\..\..\..\..\microchip\harmony\v1_07_01\bin\framework\peripheral\PIC32MX440F256H_peripherals.a(peripheral.o)
                0x9d00e750                PLIB_INT_SourceIsEnabled

.text._ZNSt9bad_allocD0Ev
                0x9d00e788       0x38
 .text._ZNSt9bad_allocD0Ev
                0x9d00e788       0x38 c:/program files/microchip/xc32/v1.40/bin/bin/../../lib/gcc/pic32mx/4.8.3/../../../../pic32mx/lib/no-float\libsupc++.a(bad_alloc.o)
                0x9d00e788                std::bad_alloc::~bad_alloc()

.text._ZN10__cxxabiv120__si_class_type_infoD0Ev
                0x9d00e7c0       0x38
 .text._ZN10__cxxabiv120__si_class_type_infoD0Ev
                0x9d00e7c0       0x38 c:/program files/microchip/xc32/v1.40/bin/bin/../../lib/gcc/pic32mx/4.8.3/../../../../pic32mx/lib/no-float\libsupc++.a(si_class_type_info.o)
                0x9d00e7c0                __cxxabiv1::__si_class_type_info::~__si_class_type_info()

.text._ZN10__cxxabiv117__class_type_infoD0Ev
                0x9d00e7f8       0x38
 .text._ZN10__cxxabiv117__class_type_infoD0Ev
                0x9d00e7f8       0x38 c:/program files/microchip/xc32/v1.40/bin/bin/../../lib/gcc/pic32mx/4.8.3/../../../../pic32mx/lib/no-float\libsupc++.a(class_type_info.o)
                0x9d00e7f8                __cxxabiv1::__class_type_info::~__class_type_info()

.text.PLIB_USB_FrameNumberGet
                0x9d00e830       0x34
 .text.PLIB_USB_FrameNumberGet
                0x9d00e830       0x34 ..\..\..\..\..\..\..\..\..\..\microchip\harmony\v1_07_01\bin\framework\peripheral\PIC32MX440F256H_peripherals.a(peripheral.o)
                0x9d00e830                PLIB_USB_FrameNumberGet

.text._Getmem   0x9d00e864       0x34
 .text._Getmem  0x9d00e864       0x34 c:/program files/microchip/xc32/v1.40/bin/bin/../../lib/gcc/pic32mx/4.8.3/../../../../pic32mx/lib/no-float\libxcpp.a(xgetmem.o)
                0x9d00e864                _Getmem

.text.PLIB_INT_SourceFlagClear
                0x9d00e898       0x30
 .text.PLIB_INT_SourceFlagClear
                0x9d00e898       0x30 ..\..\..\..\..\..\..\..\..\..\microchip\harmony\v1_07_01\bin\framework\peripheral\PIC32MX440F256H_peripherals.a(peripheral.o)
                0x9d00e898                PLIB_INT_SourceFlagClear

.text.PLIB_INT_SourceEnable
                0x9d00e8c8       0x30
 .text.PLIB_INT_SourceEnable
                0x9d00e8c8       0x30 ..\..\..\..\..\..\..\..\..\..\microchip\harmony\v1_07_01\bin\framework\peripheral\PIC32MX440F256H_peripherals.a(peripheral.o)
                0x9d00e8c8                PLIB_INT_SourceEnable

.text.PLIB_INT_SourceDisable
                0x9d00e8f8       0x30
 .text.PLIB_INT_SourceDisable
                0x9d00e8f8       0x30 ..\..\..\..\..\..\..\..\..\..\microchip\harmony\v1_07_01\bin\framework\peripheral\PIC32MX440F256H_peripherals.a(peripheral.o)
                0x9d00e8f8                PLIB_INT_SourceDisable

.text.PLIB_INT_Enable
                0x9d00e928       0x30
 .text.PLIB_INT_Enable
                0x9d00e928       0x30 ..\..\..\..\..\..\..\..\..\..\microchip\harmony\v1_07_01\bin\framework\peripheral\PIC32MX440F256H_peripherals.a(peripheral.o)
                0x9d00e928                PLIB_INT_Enable

.text.PLIB_INT_GetStateAndDisable
                0x9d00e958       0x30
 .text.PLIB_INT_GetStateAndDisable
                0x9d00e958       0x30 ..\..\..\..\..\..\..\..\..\..\microchip\harmony\v1_07_01\bin\framework\peripheral\PIC32MX440F256H_peripherals.a(peripheral.o)
                0x9d00e958                PLIB_INT_GetStateAndDisable

.text.PLIB_USB_EPnAttributesClear
                0x9d00e988       0x30
 .text.PLIB_USB_EPnAttributesClear
                0x9d00e988       0x30 ..\..\..\..\..\..\..\..\..\..\microchip\harmony\v1_07_01\bin\framework\peripheral\PIC32MX440F256H_peripherals.a(peripheral.o)
                0x9d00e988                PLIB_USB_EPnAttributesClear

.text.raise     0x9d00e9b8       0x30
 .text.raise    0x9d00e9b8       0x30 c:/program files/microchip/xc32/v1.40/bin/bin/../../lib/gcc/pic32mx/4.8.3/../../../../pic32mx/lib/no-float\libxcpp.a(raise.o)
                0x9d00e9b8                raise

.text._ZN3eos16UsbClientService3runEv
                0x9d00e9e8       0x2c
 .text._ZN3eos16UsbClientService3runEv
                0x9d00e9e8       0x2c build/PINGUINO/production/_ext/2012494728/eosUsbClient.o
                0x9d00e9e8                eos::UsbClientService::run()

.text.DRV_USBFS_DEVICE_CurrentSpeedGet
                0x9d00ea14       0x2c
 .text.DRV_USBFS_DEVICE_CurrentSpeedGet
                0x9d00ea14       0x2c build/PINGUINO/production/_ext/1643514105/drv_usbfs_device.o
                0x9d00ea14                DRV_USBFS_DEVICE_CurrentSpeedGet

.text.PLIB_BMX_DataRamWaitStateSet
                0x9d00ea40       0x2c
 .text.PLIB_BMX_DataRamWaitStateSet
                0x9d00ea40       0x2c ..\..\..\..\..\..\..\..\..\..\microchip\harmony\v1_07_01\bin\framework\peripheral\PIC32MX440F256H_peripherals.a(peripheral.o)
                0x9d00ea40                PLIB_BMX_DataRamWaitStateSet

.text.PLIB_PCACHE_PrefetchEnableSet
                0x9d00ea6c       0x2c
 .text.PLIB_PCACHE_PrefetchEnableSet
                0x9d00ea6c       0x2c ..\..\..\..\..\..\..\..\..\..\microchip\harmony\v1_07_01\bin\framework\peripheral\PIC32MX440F256H_peripherals.a(peripheral.o)
                0x9d00ea6c                PLIB_PCACHE_PrefetchEnableSet

.text.PLIB_USB_LastTransactionDetailsGet
                0x9d00ea98       0x2c
 .text.PLIB_USB_LastTransactionDetailsGet
                0x9d00ea98       0x2c ..\..\..\..\..\..\..\..\..\..\microchip\harmony\v1_07_01\bin\framework\peripheral\PIC32MX440F256H_peripherals.a(peripheral.o)
                0x9d00ea98                PLIB_USB_LastTransactionDetailsGet

.text.PLIB_USB_PingPongReset
                0x9d00eac4       0x2c
 .text.PLIB_USB_PingPongReset
                0x9d00eac4       0x2c ..\..\..\..\..\..\..\..\..\..\microchip\harmony\v1_07_01\bin\framework\peripheral\PIC32MX440F256H_peripherals.a(peripheral.o)
                0x9d00eac4                PLIB_USB_PingPongReset

.text.PLIB_USB_DeviceAddressSet
                0x9d00eaf0       0x2c
 .text.PLIB_USB_DeviceAddressSet
                0x9d00eaf0       0x2c ..\..\..\..\..\..\..\..\..\..\microchip\harmony\v1_07_01\bin\framework\peripheral\PIC32MX440F256H_peripherals.a(peripheral.o)
                0x9d00eaf0                PLIB_USB_DeviceAddressSet

.text.PLIB_USB_EPnDirectionDisable
                0x9d00eb1c       0x2c
 .text.PLIB_USB_EPnDirectionDisable
                0x9d00eb1c       0x2c ..\..\..\..\..\..\..\..\..\..\microchip\harmony\v1_07_01\bin\framework\peripheral\PIC32MX440F256H_peripherals.a(peripheral.o)
                0x9d00eb1c                PLIB_USB_EPnDirectionDisable

.text.PLIB_USB_EPnIsStalled
                0x9d00eb48       0x2c
 .text.PLIB_USB_EPnIsStalled
                0x9d00eb48       0x2c ..\..\..\..\..\..\..\..\..\..\microchip\harmony\v1_07_01\bin\framework\peripheral\PIC32MX440F256H_peripherals.a(peripheral.o)
                0x9d00eb48                PLIB_USB_EPnIsStalled

.text.PLIB_USB_EPnStallClear
                0x9d00eb74       0x2c
 .text.PLIB_USB_EPnStallClear
                0x9d00eb74       0x2c ..\..\..\..\..\..\..\..\..\..\microchip\harmony\v1_07_01\bin\framework\peripheral\PIC32MX440F256H_peripherals.a(peripheral.o)
                0x9d00eb74                PLIB_USB_EPnStallClear

.text.memcpy    0x9d00eba0       0x2c
 .text.memcpy   0x9d00eba0       0x2c c:/program files/microchip/xc32/v1.40/bin/bin/../../lib/gcc/pic32mx/4.8.3/../../../../pic32mx/lib/no-float\libxcpp.a(memcpy.o)
                0x9d00eba0                memcpy

.text.memset    0x9d00ebcc       0x2c
 .text.memset   0x9d00ebcc       0x2c c:/program files/microchip/xc32/v1.40/bin/bin/../../lib/gcc/pic32mx/4.8.3/../../../../pic32mx/lib/no-float\libxcpp.a(memset.o)
                0x9d00ebcc                memset

.text._stub_sbd_memlayout
                0x9d00ebf8       0x2c
 .text._stub_sbd_memlayout
                0x9d00ebf8       0x2c c:/program files/microchip/xc32/v1.40/bin/bin/../../lib/gcc/pic32mx/4.8.3/../../../../pic32mx/lib/no-float\libpic32.a(sbrk.o)
                0x9d00ebf8                _sbd_memlayout
                0x9d00ebf8                _stub_sbd_memlayout

.text.pvTaskIncrementMutexHeldCount
                0x9d00ec24       0x28
 .text.pvTaskIncrementMutexHeldCount
                0x9d00ec24       0x28 build/PINGUINO/production/_ext/2129976512/tasks.o
                0x9d00ec24                pvTaskIncrementMutexHeldCount

.text.vPortClearInterruptMaskFromISR
                0x9d00ec4c       0x28
 .text.vPortClearInterruptMaskFromISR
                0x9d00ec4c       0x28 build/PINGUINO/production/_ext/1298945782/port.o
                0x9d00ec4c                vPortClearInterruptMaskFromISR

.text.PLIB_INT_SetState
                0x9d00ec74       0x28
 .text.PLIB_INT_SetState
                0x9d00ec74       0x28 ..\..\..\..\..\..\..\..\..\..\microchip\harmony\v1_07_01\bin\framework\peripheral\PIC32MX440F256H_peripherals.a(peripheral.o)
                0x9d00ec74                PLIB_INT_SetState

.text.PLIB_PCACHE_WaitStateSet
                0x9d00ec9c       0x28
 .text.PLIB_PCACHE_WaitStateSet
                0x9d00ec9c       0x28 ..\..\..\..\..\..\..\..\..\..\microchip\harmony\v1_07_01\bin\framework\peripheral\PIC32MX440F256H_peripherals.a(peripheral.o)
                0x9d00ec9c                PLIB_PCACHE_WaitStateSet

.text._ZdlPv    0x9d00ecc4       0x28
 .text._ZdlPv   0x9d00ecc4       0x28 c:/program files/microchip/xc32/v1.40/bin/bin/../../lib/gcc/pic32mx/4.8.3/../../../../pic32mx/lib/no-float\libsupc++.a(del_op.o)
                0x9d00ecc4                operator delete(void*)

.text._ZN3eos14AppLoopService5setupEv
                0x9d00ecec       0x24
 .text._ZN3eos14AppLoopService5setupEv
                0x9d00ecec       0x24 build/PINGUINO/production/_ext/863068963/eosAppLoop.o
                0x9d00ecec                eos::AppLoopService::setup()

.text._ZN3eos14AppLoopService4loopEv
                0x9d00ed10       0x24
 .text._ZN3eos14AppLoopService4loopEv
                0x9d00ed10       0x24 build/PINGUINO/production/_ext/863068963/eosAppLoop.o
                0x9d00ed10                eos::AppLoopService::loop()

.text.PLIB_USB_OTG_InterruptFlagGet
                0x9d00ed34       0x24
 .text.PLIB_USB_OTG_InterruptFlagGet
                0x9d00ed34       0x24 ..\..\..\..\..\..\..\..\..\..\microchip\harmony\v1_07_01\bin\framework\peripheral\PIC32MX440F256H_peripherals.a(peripheral.o)
                0x9d00ed34                PLIB_USB_OTG_InterruptFlagGet

.text.PLIB_USB_OTG_InterruptIsEnabled
                0x9d00ed58       0x24
 .text.PLIB_USB_OTG_InterruptIsEnabled
                0x9d00ed58       0x24 ..\..\..\..\..\..\..\..\..\..\microchip\harmony\v1_07_01\bin\framework\peripheral\PIC32MX440F256H_peripherals.a(peripheral.o)
                0x9d00ed58                PLIB_USB_OTG_InterruptIsEnabled

.text.PLIB_USB_InterruptFlagGet
                0x9d00ed7c       0x24
 .text.PLIB_USB_InterruptFlagGet
                0x9d00ed7c       0x24 ..\..\..\..\..\..\..\..\..\..\microchip\harmony\v1_07_01\bin\framework\peripheral\PIC32MX440F256H_peripherals.a(peripheral.o)
                0x9d00ed7c                PLIB_USB_InterruptFlagGet

.text.PLIB_USB_InterruptIsEnabled
                0x9d00eda0       0x24
 .text.PLIB_USB_InterruptIsEnabled
                0x9d00eda0       0x24 ..\..\..\..\..\..\..\..\..\..\microchip\harmony\v1_07_01\bin\framework\peripheral\PIC32MX440F256H_peripherals.a(peripheral.o)
                0x9d00eda0                PLIB_USB_InterruptIsEnabled

.text.PLIB_USB_AllInterruptEnable
                0x9d00edc4       0x24
 .text.PLIB_USB_AllInterruptEnable
                0x9d00edc4       0x24 ..\..\..\..\..\..\..\..\..\..\microchip\harmony\v1_07_01\bin\framework\peripheral\PIC32MX440F256H_peripherals.a(peripheral.o)
                0x9d00edc4                PLIB_USB_AllInterruptEnable

.text._ZNSt9bad_allocD2Ev
                0x9d00ede8       0x24
 .text._ZNSt9bad_allocD2Ev
                0x9d00ede8       0x24 c:/program files/microchip/xc32/v1.40/bin/bin/../../lib/gcc/pic32mx/4.8.3/../../../../pic32mx/lib/no-float\libsupc++.a(bad_alloc.o)
                0x9d00ede8                std::bad_alloc::~bad_alloc()
                0x9d00ede8                std::bad_alloc::~bad_alloc()

.text._ZNSt9exceptionD0Ev
                0x9d00ee0c       0x24
 .text._ZNSt9exceptionD0Ev
                0x9d00ee0c       0x24 c:/program files/microchip/xc32/v1.40/bin/bin/../../lib/gcc/pic32mx/4.8.3/../../../../pic32mx/lib/no-float\libsupc++.a(eh_exception.o)
                0x9d00ee0c                std::exception::~exception()

.rodata         0x9d00ee30       0x24
 .rodata        0x9d00ee30       0x24 c:/program files/microchip/xc32/v1.40/bin/bin/../../lib/gcc/pic32mx/4.8.3/../../../../pic32mx/lib/no-float\libsupc++.a(eh_exception.o)

.text._ZN10__cxxabiv120__si_class_type_infoD2Ev
                0x9d00ee54       0x24
 .text._ZN10__cxxabiv120__si_class_type_infoD2Ev
                0x9d00ee54       0x24 c:/program files/microchip/xc32/v1.40/bin/bin/../../lib/gcc/pic32mx/4.8.3/../../../../pic32mx/lib/no-float\libsupc++.a(si_class_type_info.o)
                0x9d00ee54                __cxxabiv1::__si_class_type_info::~__si_class_type_info()
                0x9d00ee54                __cxxabiv1::__si_class_type_info::~__si_class_type_info()

.text._ZNSt9type_infoD0Ev
                0x9d00ee78       0x24
 .text._ZNSt9type_infoD0Ev
                0x9d00ee78       0x24 c:/program files/microchip/xc32/v1.40/bin/bin/../../lib/gcc/pic32mx/4.8.3/../../../../pic32mx/lib/no-float\libsupc++.a(tinfo.o)
                0x9d00ee78                std::type_info::~type_info()

.text._ZN10__cxxabiv117__class_type_infoD2Ev
                0x9d00ee9c       0x24
 .text._ZN10__cxxabiv117__class_type_infoD2Ev
                0x9d00ee9c       0x24 c:/program files/microchip/xc32/v1.40/bin/bin/../../lib/gcc/pic32mx/4.8.3/../../../../pic32mx/lib/no-float\libsupc++.a(class_type_info.o)
                0x9d00ee9c                __cxxabiv1::__class_type_info::~__class_type_info()
                0x9d00ee9c                __cxxabiv1::__class_type_info::~__class_type_info()

.text.PLIB_USB_OTG_InterruptDisable
                0x9d00eec0       0x20
 .text.PLIB_USB_OTG_InterruptDisable
                0x9d00eec0       0x20 ..\..\..\..\..\..\..\..\..\..\microchip\harmony\v1_07_01\bin\framework\peripheral\PIC32MX440F256H_peripherals.a(peripheral.o)
                0x9d00eec0                PLIB_USB_OTG_InterruptDisable

.text.PLIB_USB_OTG_SessionValid
                0x9d00eee0       0x20
 .text.PLIB_USB_OTG_SessionValid
                0x9d00eee0       0x20 ..\..\..\..\..\..\..\..\..\..\microchip\harmony\v1_07_01\bin\framework\peripheral\PIC32MX440F256H_peripherals.a(peripheral.o)
                0x9d00eee0                PLIB_USB_OTG_SessionValid

.text.PLIB_USB_InterruptDisable
                0x9d00ef00       0x20
 .text.PLIB_USB_InterruptDisable
                0x9d00ef00       0x20 ..\..\..\..\..\..\..\..\..\..\microchip\harmony\v1_07_01\bin\framework\peripheral\PIC32MX440F256H_peripherals.a(peripheral.o)
                0x9d00ef00                PLIB_USB_InterruptDisable

.text.PLIB_USB_ErrorInterruptFlagAllGet
                0x9d00ef20       0x20
 .text.PLIB_USB_ErrorInterruptFlagAllGet
                0x9d00ef20       0x20 ..\..\..\..\..\..\..\..\..\..\microchip\harmony\v1_07_01\bin\framework\peripheral\PIC32MX440F256H_peripherals.a(peripheral.o)
                0x9d00ef20                PLIB_USB_ErrorInterruptFlagAllGet

.text.PLIB_USB_PacketTransferEnable
                0x9d00ef40       0x20
 .text.PLIB_USB_PacketTransferEnable
                0x9d00ef40       0x20 ..\..\..\..\..\..\..\..\..\..\microchip\harmony\v1_07_01\bin\framework\peripheral\PIC32MX440F256H_peripherals.a(peripheral.o)
                0x9d00ef40                PLIB_USB_PacketTransferEnable

.text.xTaskGetTickCount
                0x9d00ef60       0x1c
 .text.xTaskGetTickCount
                0x9d00ef60       0x1c build/PINGUINO/production/_ext/2129976512/tasks.o
                0x9d00ef60                xTaskGetTickCount

.text.PLIB_INT_MultiVectorSelect
                0x9d00ef7c       0x1c
 .text.PLIB_INT_MultiVectorSelect
                0x9d00ef7c       0x1c ..\..\..\..\..\..\..\..\..\..\microchip\harmony\v1_07_01\bin\framework\peripheral\PIC32MX440F256H_peripherals.a(peripheral.o)
                0x9d00ef7c                PLIB_INT_MultiVectorSelect

.text.PLIB_USB_OTG_InterruptEnable
                0x9d00ef98       0x1c
 .text.PLIB_USB_OTG_InterruptEnable
                0x9d00ef98       0x1c ..\..\..\..\..\..\..\..\..\..\microchip\harmony\v1_07_01\bin\framework\peripheral\PIC32MX440F256H_peripherals.a(peripheral.o)
                0x9d00ef98                PLIB_USB_OTG_InterruptEnable

.text.PLIB_USB_Enable
                0x9d00efb4       0x1c
 .text.PLIB_USB_Enable
                0x9d00efb4       0x1c ..\..\..\..\..\..\..\..\..\..\microchip\harmony\v1_07_01\bin\framework\peripheral\PIC32MX440F256H_peripherals.a(peripheral.o)
                0x9d00efb4                PLIB_USB_Enable

.text.PLIB_USB_InterruptEnable
                0x9d00efd0       0x1c
 .text.PLIB_USB_InterruptEnable
                0x9d00efd0       0x1c ..\..\..\..\..\..\..\..\..\..\microchip\harmony\v1_07_01\bin\framework\peripheral\PIC32MX440F256H_peripherals.a(peripheral.o)
                0x9d00efd0                PLIB_USB_InterruptEnable

.text.PLIB_USB_ResumeSignalingEnable
                0x9d00efec       0x1c
 .text.PLIB_USB_ResumeSignalingEnable
                0x9d00efec       0x1c ..\..\..\..\..\..\..\..\..\..\microchip\harmony\v1_07_01\bin\framework\peripheral\PIC32MX440F256H_peripherals.a(peripheral.o)
                0x9d00efec                PLIB_USB_ResumeSignalingEnable

.text.PLIB_USB_ResumeSignalingDisable
                0x9d00f008       0x1c
 .text.PLIB_USB_ResumeSignalingDisable
                0x9d00f008       0x1c ..\..\..\..\..\..\..\..\..\..\microchip\harmony\v1_07_01\bin\framework\peripheral\PIC32MX440F256H_peripherals.a(peripheral.o)
                0x9d00f008                PLIB_USB_ResumeSignalingDisable

.text.PLIB_USB_StopInIdleEnable
                0x9d00f024       0x1c
 .text.PLIB_USB_StopInIdleEnable
                0x9d00f024       0x1c ..\..\..\..\..\..\..\..\..\..\microchip\harmony\v1_07_01\bin\framework\peripheral\PIC32MX440F256H_peripherals.a(peripheral.o)
                0x9d00f024                PLIB_USB_StopInIdleEnable

.text.PLIB_USB_StopInIdleDisable
                0x9d00f040       0x1c
 .text.PLIB_USB_StopInIdleDisable
                0x9d00f040       0x1c ..\..\..\..\..\..\..\..\..\..\microchip\harmony\v1_07_01\bin\framework\peripheral\PIC32MX440F256H_peripherals.a(peripheral.o)
                0x9d00f040                PLIB_USB_StopInIdleDisable

.text._ZNK10__cxxabiv117__class_type_info20__do_find_public_srcElPKvPKS0_S2_
                0x9d00f05c       0x1c
 .text._ZNK10__cxxabiv117__class_type_info20__do_find_public_srcElPKvPKS0_S2_
                0x9d00f05c       0x1c c:/program files/microchip/xc32/v1.40/bin/bin/../../lib/gcc/pic32mx/4.8.3/../../../../pic32mx/lib/no-float\libsupc++.a(class_type_info.o)
                0x9d00f05c                __cxxabiv1::__class_type_info::__do_find_public_src(long, void const*, __cxxabiv1::__class_type_info const*, void const*) const

.text._ZN10__cxxabiv112__unexpectedEPFvvE
                0x9d00f078       0x18
 .text._ZN10__cxxabiv112__unexpectedEPFvvE
                0x9d00f078       0x18 c:/program files/microchip/xc32/v1.40/bin/bin/../../lib/gcc/pic32mx/4.8.3/../../../../pic32mx/lib/no-float\libsupc++.a(eh_terminate.o)
                0x9d00f078                __cxxabiv1::__unexpected(void (*)())

.text.abort     0x9d00f090       0x18
 .text.abort    0x9d00f090       0x18 c:/program files/microchip/xc32/v1.40/bin/bin/../../lib/gcc/pic32mx/4.8.3/../../../../pic32mx/lib/no-float\libxcpp.a(abort.o)
                0x9d00f090                abort

.text           0x9d00f0a8       0x18
 .text          0x9d00f0a8       0x18 c:/program files/microchip/xc32/v1.40/bin/bin/../../lib/gcc/pic32mx/4.8.3/../../../../pic32mx/lib/no-float\libpic32.a(default-nmi-handler.o)
                0x9d00f0a8                _nmi_handler

.text.vTaskSuspendAll
                0x9d00f0c0       0x14
 .text.vTaskSuspendAll
                0x9d00f0c0       0x14 build/PINGUINO/production/_ext/2129976512/tasks.o
                0x9d00f0c0                vTaskSuspendAll

.text.vListInitialiseItem
                0x9d00f0d4       0x14
 .text.vListInitialiseItem
                0x9d00f0d4       0x14 build/PINGUINO/production/_ext/2129976512/list.o
                0x9d00f0d4                vListInitialiseItem

.rodata         0x9d00f0e8       0x14
 .rodata        0x9d00f0e8       0x14 build/PINGUINO/production/_ext/1663442938/usb_device_cdc.o
                0x9d00f0e8                cdcFunctionDriver

.text.PLIB_USB_OTG_InterruptFlagClear
                0x9d00f0fc       0x14
 .text.PLIB_USB_OTG_InterruptFlagClear
                0x9d00f0fc       0x14 ..\..\..\..\..\..\..\..\..\..\microchip\harmony\v1_07_01\bin\framework\peripheral\PIC32MX440F256H_peripherals.a(peripheral.o)
                0x9d00f0fc                PLIB_USB_OTG_InterruptFlagClear

.text.PLIB_USB_InterruptFlagClear
                0x9d00f110       0x14
 .text.PLIB_USB_InterruptFlagClear
                0x9d00f110       0x14 ..\..\..\..\..\..\..\..\..\..\microchip\harmony\v1_07_01\bin\framework\peripheral\PIC32MX440F256H_peripherals.a(peripheral.o)
                0x9d00f110                PLIB_USB_InterruptFlagClear

.text.PLIB_USB_ErrorInterruptFlagClear
                0x9d00f124       0x14
 .text.PLIB_USB_ErrorInterruptFlagClear
                0x9d00f124       0x14 ..\..\..\..\..\..\..\..\..\..\microchip\harmony\v1_07_01\bin\framework\peripheral\PIC32MX440F256H_peripherals.a(peripheral.o)
                0x9d00f124                PLIB_USB_ErrorInterruptFlagClear

.text._ZSt9terminatev
                0x9d00f138       0x14
 .text._ZSt9terminatev
                0x9d00f138       0x14 c:/program files/microchip/xc32/v1.40/bin/bin/../../lib/gcc/pic32mx/4.8.3/../../../../pic32mx/lib/no-float\libsupc++.a(eh_terminate.o)
                0x9d00f138                std::terminate()

.text._ZSt10unexpectedv
                0x9d00f14c       0x14
 .text._ZSt10unexpectedv
                0x9d00f14c       0x14 c:/program files/microchip/xc32/v1.40/bin/bin/../../lib/gcc/pic32mx/4.8.3/../../../../pic32mx/lib/no-float\libsupc++.a(eh_terminate.o)
                0x9d00f14c                std::unexpected()

.text.vTaskMissedYield
                0x9d00f160       0x10
 .text.vTaskMissedYield
                0x9d00f160       0x10 build/PINGUINO/production/_ext/2129976512/tasks.o
                0x9d00f160                vTaskMissedYield

.text.__cxa_pure_virtual
                0x9d00f170       0x10
 .text.__cxa_pure_virtual
                0x9d00f170       0x10 c:/program files/microchip/xc32/v1.40/bin/bin/../../lib/gcc/pic32mx/4.8.3/../../../../pic32mx/lib/no-float\libsupc++.a(pure.o)
                0x9d00f170                __cxa_pure_virtual

.rodata         0x9d00f180       0x10
 .rodata        0x9d00f180       0x10 c:/program files/microchip/xc32/v1.40/bin/bin/../../lib/gcc/pic32mx/4.8.3/../../../../pic32mx/lib/no-float\libsupc++.a(bad_alloc.o)

.text._ZNSt9exceptionD2Ev
                0x9d00f190       0x10
 .text._ZNSt9exceptionD2Ev
                0x9d00f190       0x10 c:/program files/microchip/xc32/v1.40/bin/bin/../../lib/gcc/pic32mx/4.8.3/../../../../pic32mx/lib/no-float\libsupc++.a(eh_exception.o)
                0x9d00f190                std::exception::~exception()
                0x9d00f190                std::exception::~exception()

.text._ZNSt9type_infoD2Ev
                0x9d00f1a0       0x10
 .text._ZNSt9type_infoD2Ev
                0x9d00f1a0       0x10 c:/program files/microchip/xc32/v1.40/bin/bin/../../lib/gcc/pic32mx/4.8.3/../../../../pic32mx/lib/no-float\libsupc++.a(tinfo.o)
                0x9d00f1a0                std::type_info::~type_info()
                0x9d00f1a0                std::type_info::~type_info()

.text._Exit     0x9d00f1b0       0x10
 .text._Exit    0x9d00f1b0       0x10 c:/program files/microchip/xc32/v1.40/bin/bin/../../lib/gcc/pic32mx/4.8.3/../../../../pic32mx/lib/no-float\libxcpp.a(xexit.o)
                0x9d00f1b0                _Exit

.text.DRV_USBFS_Tasks
                0x9d00f1c0        0xc
 .text.DRV_USBFS_Tasks
                0x9d00f1c0        0xc build/PINGUINO/production/_ext/1643514105/drv_usbfs.o
                0x9d00f1c0                DRV_USBFS_Tasks

.text._ZNKSt9bad_alloc4whatEv
                0x9d00f1cc        0xc
 .text._ZNKSt9bad_alloc4whatEv
                0x9d00f1cc        0xc c:/program files/microchip/xc32/v1.40/bin/bin/../../lib/gcc/pic32mx/4.8.3/../../../../pic32mx/lib/no-float\libsupc++.a(bad_alloc.o)
                0x9d00f1cc                std::bad_alloc::what() const

.text._ZNKSt9exception4whatEv
                0x9d00f1d8        0xc
 .text._ZNKSt9exception4whatEv
                0x9d00f1d8        0xc c:/program files/microchip/xc32/v1.40/bin/bin/../../lib/gcc/pic32mx/4.8.3/../../../../pic32mx/lib/no-float\libsupc++.a(eh_exception.o)
                0x9d00f1d8                std::exception::what() const

.text.__cxa_get_globals
                0x9d00f1e4        0xc
 .text.__cxa_get_globals
                0x9d00f1e4        0xc c:/program files/microchip/xc32/v1.40/bin/bin/../../lib/gcc/pic32mx/4.8.3/../../../../pic32mx/lib/no-float\libsupc++.a(eh_globals.o)
                0x9d00f1e4                __cxa_get_globals

.text.vApplicationIdleHook
                0x9d00f1f0        0x8
 .text.vApplicationIdleHook
                0x9d00f1f0        0x8 build/PINGUINO/production/_ext/1472/rtos_hooks.o
                0x9d00f1f0                vApplicationIdleHook

.text.vApplicationTickHook
                0x9d00f1f8        0x8
 .text.vApplicationTickHook
                0x9d00f1f8        0x8 build/PINGUINO/production/_ext/1472/rtos_hooks.o
                0x9d00f1f8                vApplicationTickHook

.text.PLIB_BMX_ExistsDataRamWaitState
                0x9d00f200        0x8
 .text.PLIB_BMX_ExistsDataRamWaitState
                0x9d00f200        0x8 ..\..\..\..\..\..\..\..\..\..\microchip\harmony\v1_07_01\bin\framework\peripheral\PIC32MX440F256H_peripherals.a(peripheral.o)
                0x9d00f200                PLIB_BMX_ExistsDataRamWaitState

.text.PLIB_PCACHE_ExistsWaitState
                0x9d00f208        0x8
 .text.PLIB_PCACHE_ExistsWaitState
                0x9d00f208        0x8 ..\..\..\..\..\..\..\..\..\..\microchip\harmony\v1_07_01\bin\framework\peripheral\PIC32MX440F256H_peripherals.a(peripheral.o)
                0x9d00f208                PLIB_PCACHE_ExistsWaitState

.text.PLIB_PCACHE_ExistsPrefetchEnable
                0x9d00f210        0x8
 .text.PLIB_PCACHE_ExistsPrefetchEnable
                0x9d00f210        0x8 ..\..\..\..\..\..\..\..\..\..\microchip\harmony\v1_07_01\bin\framework\peripheral\PIC32MX440F256H_peripherals.a(peripheral.o)
                0x9d00f210                PLIB_PCACHE_ExistsPrefetchEnable

.text._ZNKSt9type_info14__is_pointer_pEv
                0x9d00f218        0x8
 .text._ZNKSt9type_info14__is_pointer_pEv
                0x9d00f218        0x8 c:/program files/microchip/xc32/v1.40/bin/bin/../../lib/gcc/pic32mx/4.8.3/../../../../pic32mx/lib/no-float\libsupc++.a(tinfo.o)
                0x9d00f218                std::type_info::__is_pointer_p() const

.text._ZNKSt9type_info15__is_function_pEv
                0x9d00f220        0x8
 .text._ZNKSt9type_info15__is_function_pEv
                0x9d00f220        0x8 c:/program files/microchip/xc32/v1.40/bin/bin/../../lib/gcc/pic32mx/4.8.3/../../../../pic32mx/lib/no-float\libsupc++.a(tinfo.o)
                0x9d00f220                std::type_info::__is_function_p() const

.text._ZNKSt9type_info11__do_upcastEPKN10__cxxabiv117__class_type_infoEPPv
                0x9d00f228        0x8
 .text._ZNKSt9type_info11__do_upcastEPKN10__cxxabiv117__class_type_infoEPPv
                0x9d00f228        0x8 c:/program files/microchip/xc32/v1.40/bin/bin/../../lib/gcc/pic32mx/4.8.3/../../../../pic32mx/lib/no-float\libsupc++.a(tinfo.o)
                0x9d00f228                std::type_info::__do_upcast(__cxxabiv1::__class_type_info const*, void**) const

.text._on_reset
                0x9d00f230        0x8
 .text._on_reset
                0x9d00f230        0x8 c:/program files/microchip/xc32/v1.40/bin/bin/../../lib/gcc/pic32mx/4.8.3/../../../../pic32mx/lib/no-float\libpic32.a(default-on-reset.o)
                0x9d00f230                _on_reset

.text._on_bootstrap
                0x9d00f238        0x8
 .text._on_bootstrap
                0x9d00f238        0x8 c:/program files/microchip/xc32/v1.40/bin/bin/../../lib/gcc/pic32mx/4.8.3/../../../../pic32mx/lib/no-float\libpic32.a(default-on-bootstrap.o)
                0x9d00f238                _on_bootstrap

.text._exit     0x9d00f240        0x8
 .text._exit    0x9d00f240        0x8 c:/program files/microchip/xc32/v1.40/bin/bin/../../lib/gcc/pic32mx/4.8.3/../../../../pic32mx/lib/no-float\libpic32.a(_exit.o)
                0x9d00f240                _exit

.text.kill      0x9d00f248        0x8
 .text.kill     0x9d00f248        0x8 c:/program files/microchip/xc32/v1.40/bin/bin/../../lib/gcc/pic32mx/4.8.3/../../../../pic32mx/lib/no-float\libpic32.a(kill.o)
                0x9d00f248                kill

.text.getpid    0x9d00f250        0x8
 .text.getpid   0x9d00f250        0x8 c:/program files/microchip/xc32/v1.40/bin/bin/../../lib/gcc/pic32mx/4.8.3/../../../../pic32mx/lib/no-float\libpic32.a(getpid.o)
                0x9d00f250                getpid

.rodata         0x9d00f258        0x4
 .rodata        0x9d00f258        0x4 build/PINGUINO/production/_ext/1935080774/eosTask.o
