Disassembly Listing for eosDemo
Generated From:
C:/Projectes/Projectes MPLAB/EOS/Demo/eosDemo.X/dist/PIC32-ETH-SK/production/eosDemo.X.production.elf
12/12/2013 16:41:29

---  f:/isp_release/software/isp_root/framework/peripheral/wdt/templates/wdt_windowenable_unsupported.h  
0000000C  00000000   NOP
---  f:/isp_release/software/isp_root/framework/peripheral/wdt/templates/wdt_timerclear_default.h  ------
00000008  00000000   NOP
---  f:/isp_release/software/isp_root/framework/peripheral/wdt/templates/wdt_postscalarvalue_default.h  -
00000010  00000000   NOP
---  f:/isp_release/software/isp_root/framework/peripheral/wdt/templates/wdt_enablecontrol_default.h  ---
00000008  00000000   NOP
00000010  00000000   NOP
---  f:/isp_release/software/isp_root/framework/peripheral/wdt/processor/wdt_p32mx795f512l.h  -----------
00000000  00000000   NOP
00000014  00000000   NOP
00000008  00000000   NOP
00000000  00000000   NOP
00000004  00000000   NOP
0000002C  00000000   NOP
00000000  00000000   NOP
00000004  00000000   NOP
0000002C  00000000   NOP
00000000  00000000   NOP
00000014  00000000   NOP
00000008  00000000   NOP
---  f:/isp_release/software/isp_root/framework/peripheral/usbhs/processor/usbhs_p32mx795f512l.h  -------
00000000  00000000   NOP
---  f:/isp_release/software/isp_root/framework/peripheral/usb/templates/usb_uoemonitor_unsupported.h  --
0000000C  00000000   NOP
---  f:/isp_release/software/isp_root/framework/peripheral/usb/templates/usb_tokenpid_default.h  --------
00000010  00000000   NOP
00000008  00000000   NOP
00000010  00000000   NOP
00000024  00000000   NOP
00000020  00000000   NOP
00000028  00000000   NOP
---  f:/isp_release/software/isp_root/framework/peripheral/usb/templates/usb_tokenep_default.h  ---------
00000010  00000000   NOP
00000008  00000000   NOP
00000008  00000000   NOP
00000008  00000000   NOP
00000008  00000000   NOP
---  f:/isp_release/software/isp_root/framework/peripheral/usb/templates/usb_speedcontrol_unsupported.h  
0000000C  00000000   NOP
---  f:/isp_release/software/isp_root/framework/peripheral/usb/templates/usb_softhreshold_default.h  ----
00000010  00000000   NOP
00000008  00000000   NOP
00000008  00000000   NOP
00000008  00000000   NOP
---  f:/isp_release/software/isp_root/framework/peripheral/usb/templates/usb_pingpongmode_unsupported.h  
0000000C  00000000   NOP
---  f:/isp_release/software/isp_root/framework/peripheral/usb/templates/usb_packettransfer_default.h  --
00000010  00000000   NOP
00000008  00000000   NOP
00000008  00000000   NOP
00000008  00000000   NOP
00000008  00000000   NOP
---  f:/isp_release/software/isp_root/framework/peripheral/usb/templates/usb_otg_sessionvalid_default.h  
00000010  00000000   NOP
00000010  00000000   NOP
0000005C  00000000   NOP
00000030  00000000   NOP
00000038  00000000   NOP
0000004C  00000000   NOP
0000006C  00000000   NOP
---  f:/isp_release/software/isp_root/framework/peripheral/usb/templates/usb_otg_linestate_default.h  ---
00000010  00000000   NOP
---  f:/isp_release/software/isp_root/framework/peripheral/usb/templates/usb_otg_interruptstatus_default.h
00000008  00000000   NOP
00000010  00000000   NOP
---  f:/isp_release/software/isp_root/framework/peripheral/usb/templates/usb_otg_interrupt_default.h  ---
00000008  00000000   NOP
00000010  00000000   NOP
00000010  00000000   NOP
00000010  00000000   NOP
00000010  00000000   NOP
---  f:/isp_release/software/isp_root/framework/peripheral/usb/templates/usb_opmodeselect_default.h  ----
0000000C  00000000   NOP
00000064  00000000   NOP
00000020  00000000   NOP
00000028  00000000   NOP
00000030  00000000   NOP
0000003C  00000000   NOP
00000090  00000000   NOP
00000048  00000000   NOP
0000009C  00000000   NOP
00000050  00000000   NOP
000000A8  00000000   NOP
000000B8  00000000   NOP
000000C4  00000000   NOP
000000D0  00000000   NOP
000000E4  00000000   NOP
000000F0  00000000   NOP
000000FC  00000000   NOP
00000074  00000000   NOP
---  f:/isp_release/software/isp_root/framework/peripheral/usb/templates/usb_onchiptransceiver_unsupported.h
0000000C  00000000   NOP
0000000C  00000000   NOP
0000000C  00000000   NOP
0000003C  00000000   NOP
00000054  00000000   NOP
00000020  00000000   NOP
---  f:/isp_release/software/isp_root/framework/peripheral/usb/templates/usb_modulepower_32bit16bit.h  --
00000008  00000000   NOP
---  f:/isp_release/software/isp_root/framework/peripheral/usb/templates/usb_modulebusy_default.h  ------
00000010  00000000   NOP
00000010  00000000   NOP
00000010  00000000   NOP
---  f:/isp_release/software/isp_root/framework/peripheral/usb/templates/usb_lasttransactiondetails_default.h
00000008  00000000   NOP
00000010  00000000   NOP
0000001C  00000000   NOP
00000014  00000000   NOP
00000020  00000000   NOP
00000018  00000000   NOP
00000024  00000000   NOP
---  f:/isp_release/software/isp_root/framework/peripheral/usb/templates/usb_lastpingpong_default.h  ----
00000010  00000000   NOP
00000010  00000000   NOP
00000010  00000000   NOP
---  f:/isp_release/software/isp_root/framework/peripheral/usb/templates/usb_hostgeneratesreset_default.h
00000008  00000000   NOP
---  f:/isp_release/software/isp_root/framework/peripheral/usb/templates/usb_hostbusywithtoken_default.h  
00000010  00000000   NOP
---  f:/isp_release/software/isp_root/framework/peripheral/usb/templates/usb_gen_interruptstatus_default.h
00000008  00000000   NOP
00000010  00000000   NOP
---  f:/isp_release/software/isp_root/framework/peripheral/usb/templates/usb_gen_interrupt_default.h  ---
00000008  00000000   NOP
00000010  00000000   NOP
00000010  00000000   NOP
0000001C  00000000   NOP
00000024  00000000   NOP
00000014  00000000   NOP
00000020  00000000   NOP
---  f:/isp_release/software/isp_root/framework/peripheral/usb/templates/usb_eyepattern_default.h  ------
00000008  00000000   NOP
00000008  00000000   NOP
00000010  00000000   NOP
---  f:/isp_release/software/isp_root/framework/peripheral/usb/templates/usb_err_interrupt_default.h  ---
00000008  00000000   NOP
00000010  00000000   NOP
00000010  00000000   NOP
000000A8  00000000   NOP
0000001C  00000000   NOP
000000B0  00000000   NOP
0000025C  00000000   NOP
0000027C  00000000   NOP
000001DC  00000000   NOP
000001FC  00000000   NOP
0000021C  00000000   NOP
0000023C  00000000   NOP
00000240  00000000   NOP
000000DC  00000000   NOP
000000FC  00000000   NOP
0000011C  00000000   NOP
00000120  00000000   NOP
0000013C  00000000   NOP
0000015C  00000000   NOP
0000017C  00000000   NOP
00000180  00000000   NOP
0000019C  00000000   NOP
000001BC  00000000   NOP
00000084  00000000   NOP
0000029C  00000000   NOP
000002A0  00000000   NOP
000000C0  00000000   NOP
00000010  00000000   NOP
000000B0  00000000   NOP
00000024  00000000   NOP
000000DC  00000000   NOP
00000270  00000000   NOP
00000290  00000000   NOP
000001F0  00000000   NOP
00000210  00000000   NOP
00000214  00000000   NOP
00000218  00000000   NOP
0000021C  00000000   NOP
00000230  00000000   NOP
00000250  00000000   NOP
000000F0  00000000   NOP
00000110  00000000   NOP
00000130  00000000   NOP
00000150  00000000   NOP
00000170  00000000   NOP
00000190  00000000   NOP
00000194  00000000   NOP
000001B0  00000000   NOP
000001D0  00000000   NOP
0000008C  00000000   NOP
000002B0  00000000   NOP
000002B4  00000000   NOP
000000C0  00000000   NOP
000000E8  00000000   NOP
00000010  00000000   NOP
000000A4  00000000   NOP
00000038  00000000   NOP
00000090  00000000   NOP
000000AC  00000000   NOP
000003BC  00000000   NOP
000003D4  00000000   NOP
000003D8  00000000   NOP
000003DC  00000000   NOP
00000388  00000000   NOP
0000038C  00000000   NOP
000003A0  00000000   NOP
000003A4  00000000   NOP
000003A8  00000000   NOP
000003AC  00000000   NOP
000003B0  00000000   NOP
00000354  00000000   NOP
00000358  00000000   NOP
0000036C  00000000   NOP
00000370  00000000   NOP
00000374  00000000   NOP
00000320  00000000   NOP
00000324  00000000   NOP
00000328  00000000   NOP
00000338  00000000   NOP
0000033C  00000000   NOP
00000340  00000000   NOP
00000344  00000000   NOP
00000348  00000000   NOP
000002EC  00000000   NOP
000002F0  00000000   NOP
000002F4  00000000   NOP
00000304  00000000   NOP
00000308  00000000   NOP
0000030C  00000000   NOP
00000310  00000000   NOP
000002B8  00000000   NOP
000002D0  00000000   NOP
00000284  00000000   NOP
00000288  00000000   NOP
0000029C  00000000   NOP
00000250  00000000   NOP
00000268  00000000   NOP
0000021C  00000000   NOP
00000234  00000000   NOP
000001E8  00000000   NOP
00000200  00000000   NOP
000001B4  00000000   NOP
000001CC  00000000   NOP
000001D0  00000000   NOP
00000180  00000000   NOP
00000198  00000000   NOP
0000014C  00000000   NOP
00000164  00000000   NOP
00000118  00000000   NOP
00000130  00000000   NOP
00000058  00000000   NOP
00000070  00000000   NOP
000003F0  00000000   NOP
000003F4  00000000   NOP
00000408  00000000   NOP
0000003C  00000000   NOP
0000009C  00000000   NOP
---  f:/isp_release/software/isp_root/framework/peripheral/usb/templates/usb_epnrxenableenhanced_pic32.h  
00000008  00000000   NOP
00000018  00000000   NOP
00000008  00000000   NOP
00000018  00000000   NOP
00000008  00000000   NOP
00000018  00000000   NOP
00000008  00000000   NOP
00000018  00000000   NOP
00000008  00000000   NOP
00000018  00000000   NOP
00000008  00000000   NOP
00000018  00000000   NOP
00000008  00000000   NOP
00000018  00000000   NOP
00000020  00000000   NOP
00000010  00000000   NOP
0000001C  00000000   NOP
0000004C  00000000   NOP
00000054  00000000   NOP
00000024  00000000   NOP
0000002C  00000000   NOP
00000034  00000000   NOP
0000003C  00000000   NOP
00000028  00000000   NOP
00000030  00000000   NOP
00000038  00000000   NOP
00000040  00000000   NOP
00000008  00000000   NOP
00000018  00000000   NOP
00000020  00000000   NOP
00000008  00000000   NOP
00000018  00000000   NOP
00000008  00000000   NOP
00000018  00000000   NOP
00000010  00000000   NOP
00000020  00000000   NOP
00000008  00000000   NOP
00000018  00000000   NOP
00000008  00000000   NOP
00000008  00000000   NOP
00000008  00000000   NOP
00000008  00000000   NOP
00000010  00000000   NOP
---  f:/isp_release/software/isp_root/framework/peripheral/usb/templates/usb_bufferfreeze_default.h  ----
00000008  00000000   NOP
00000014  00000000   NOP
---  f:/isp_release/software/isp_root/framework/peripheral/usb/templates/usb_bdtfunctions_pic32.h  ------
00000008  00000000   NOP
0000000C  00000000   NOP
00000010  00000000   NOP
00000018  00000000   NOP
00000010  00000000   NOP
00000028  00000000   NOP
0000002C  00000000   NOP
00000020  00000000   NOP
00000024  00000000   NOP
00000028  00000000   NOP
0000002C  00000000   NOP
00000024  00000000   NOP
00000028  00000000   NOP
00000020  00000000   NOP
0000002C  00000000   NOP
00000034  00000000   NOP
00000028  00000000   NOP
0000002C  00000000   NOP
00000020  00000000   NOP
00000024  00000000   NOP
00000020  00000000   NOP
00000024  00000000   NOP
00000020  00000000   NOP
00000024  00000000   NOP
00000020  00000000   NOP
00000024  00000000   NOP
00000028  00000000   NOP
0000002C  00000000   NOP
00000020  00000000   NOP
00000024  00000000   NOP
00000030  00000000   NOP
0000003C  00000000   NOP
00000044  00000000   NOP
00000040  00000000   NOP
00000048  00000000   NOP
0000004C  00000000   NOP
00000058  00000000   NOP
00000060  00000000   NOP
00000068  00000000   NOP
00000064  00000000   NOP
00000074  00000000   NOP
00000080  00000000   NOP
0000008C  00000000   NOP
00000094  00000000   NOP
00000078  00000000   NOP
00000088  00000000   NOP
00000090  00000000   NOP
00000098  00000000   NOP
000000B8  00000000   NOP
000000A0  00000000   NOP
00000020  00000000   NOP
00000024  00000000   NOP
00000008  00000000   NOP
0000001C  00000000   NOP
00000028  00000000   NOP
00000018  00000000   NOP
00000020  00000000   NOP
00000008  00000000   NOP
00000014  00000000   NOP
0000001C  00000000   NOP
00000024  00000000   NOP
00000038  00000000   NOP
00000020  00000000   NOP
00000030  00000000   NOP
00000040  00000000   NOP
00000014  00000000   NOP
00000020  00000000   NOP
00000040  00000000   NOP
00000048  00000000   NOP
00000028  00000000   NOP
0000004C  00000000   NOP
00000030  00000000   NOP
00000054  00000000   NOP
00000044  00000000   NOP
00000020  00000000   NOP
0000002C  00000000   NOP
00000040  00000000   NOP
00000044  00000000   NOP
00000020  00000000   NOP
0000002C  00000000   NOP
00000038  00000000   NOP
00000028  00000000   NOP
0000002C  00000000   NOP
---  f:/isp_release/software/isp_root/framework/peripheral/usb/templates/usb_bdtbaseaddress_default.h  --
00000010  00000000   NOP
0000002C  00000000   NOP
00000034  00000000   NOP
00000014  00000000   NOP
00000024  00000000   NOP
00000028  00000000   NOP
0000001C  00000000   NOP
00000030  00000000   NOP
00000038  00000000   NOP
00000008  00000000   NOP
00000024  00000000   NOP
0000003C  00000000   NOP
---  f:/isp_release/software/isp_root/framework/peripheral/usb/templates/usb_automaticsuspend_default.h  
00000008  00000000   NOP
00000008  00000000   NOP
00000010  00000000   NOP
00000018  00000000   NOP
00000010  00000000   NOP
00000010  00000000   NOP
---  f:/isp_release/software/isp_root/framework/peripheral/usb/processor/usb_p32mx795f512l.h  -----------
00000000  00000000   NOP
00000018  00000000   NOP
00000008  00000000   NOP
00000000  00000000   NOP
00000018  00000000   NOP
00000008  00000000   NOP
00000000  00000000   NOP
00000014  00000000   NOP
00000008  00000000   NOP
00000000  00000000   NOP
00000014  00000000   NOP
00000008  00000000   NOP
00000000  00000000   NOP
00000014  00000000   NOP
00000008  00000000   NOP
00000000  00000000   NOP
00000014  00000000   NOP
00000008  00000000   NOP
00000000  00000000   NOP
00000014  00000000   NOP
00000008  00000000   NOP
00000000  00000000   NOP
00000008  00000000   NOP
00000040  00000000   NOP
00000054  00000000   NOP
00000000  00000000   NOP
00000014  00000000   NOP
00000008  00000000   NOP
00000000  00000000   NOP
00000014  00000000   NOP
00000008  00000000   NOP
00000000  00000000   NOP
00000018  00000000   NOP
00000008  00000000   NOP
00000000  00000000   NOP
00000014  00000000   NOP
00000008  00000000   NOP
00000000  00000000   NOP
00000018  00000000   NOP
00000008  00000000   NOP
00000000  00000000   NOP
00000014  00000000   NOP
00000008  00000000   NOP
00000000  00000000   NOP
00000018  00000000   NOP
00000008  00000000   NOP
00000000  00000000   NOP
00000014  00000000   NOP
00000008  00000000   NOP
00000000  00000000   NOP
00000018  00000000   NOP
00000008  00000000   NOP
00000000  00000000   NOP
00000014  00000000   NOP
00000008  00000000   NOP
00000000  00000000   NOP
00000014  00000000   NOP
00000008  00000000   NOP
00000000  00000000   NOP
00000014  00000000   NOP
00000008  00000000   NOP
00000000  00000000   NOP
00000014  00000000   NOP
00000008  00000000   NOP
00000000  00000000   NOP
00000014  00000000   NOP
00000008  00000000   NOP
00000000  00000000   NOP
00000014  00000000   NOP
00000008  00000000   NOP
00000000  00000000   NOP
00000014  00000000   NOP
00000008  00000000   NOP
00000000  00000000   NOP
00000004  00000000   NOP
00000058  00000000   NOP
000000B0  00000000   NOP
000000C0  00000000   NOP
000000DC  00000000   NOP
000000EC  00000000   NOP
00000108  00000000   NOP
00000000  00000000   NOP
00000004  00000000   NOP
00000044  00000000   NOP
00000060  00000000   NOP
00000000  00000000   NOP
00000014  00000000   NOP
00000008  00000000   NOP
00000000  00000000   NOP
00000028  00000000   NOP
00000008  00000000   NOP
00000000  00000000   NOP
00000014  00000000   NOP
00000008  00000000   NOP
00000000  00000000   NOP
00000008  00000000   NOP
00000000  00000000   NOP
00000014  00000000   NOP
00000008  00000000   NOP
00000000  00000000   NOP
00000014  00000000   NOP
00000008  00000000   NOP
00000000  00000000   NOP
0000003C  00000000   NOP
00000008  00000000   NOP
00000000  00000000   NOP
00000004  00000000   NOP
0000002C  00000000   NOP
00000000  00000000   NOP
00000004  00000000   NOP
0000002C  00000000   NOP
00000000  00000000   NOP
00000004  00000000   NOP
0000002C  00000000   NOP
00000000  00000000   NOP
00000004  00000000   NOP
0000002C  00000000   NOP
00000000  00000000   NOP
00000004  00000000   NOP
0000002C  00000000   NOP
00000000  00000000   NOP
00000004  00000000   NOP
0000002C  00000000   NOP
00000000  00000000   NOP
00000004  00000000   NOP
0000002C  00000000   NOP
00000000  00000000   NOP
00000004  00000000   NOP
0000002C  00000000   NOP
00000000  00000000   NOP
00000004  00000000   NOP
0000002C  00000000   NOP
00000000  00000000   NOP
00000004  00000000   NOP
0000002C  00000000   NOP
00000000  00000000   NOP
00000008  00000000   NOP
0000009C  00000000   NOP
000000F4  00000000   NOP
00000114  00000000   NOP
00000134  00000000   NOP
00000138  00000000   NOP
00000154  00000000   NOP
00000174  00000000   NOP
00000194  00000000   NOP
000001B4  00000000   NOP
000001D4  00000000   NOP
000001F4  00000000   NOP
00000214  00000000   NOP
00000234  00000000   NOP
00000254  00000000   NOP
00000258  00000000   NOP
0000025C  00000000   NOP
00000274  00000000   NOP
00000294  00000000   NOP
000002B4  00000000   NOP
000002B8  00000000   NOP
00000000  00000000   NOP
00000008  00000000   NOP
000000A4  00000000   NOP
00000108  00000000   NOP
00000128  00000000   NOP
00000148  00000000   NOP
00000168  00000000   NOP
00000188  00000000   NOP
000001A8  00000000   NOP
000001C8  00000000   NOP
000001CC  00000000   NOP
000001E8  00000000   NOP
00000208  00000000   NOP
00000228  00000000   NOP
00000248  00000000   NOP
00000268  00000000   NOP
00000288  00000000   NOP
000002A8  00000000   NOP
000002C8  00000000   NOP
00000000  00000000   NOP
00000008  00000000   NOP
00000084  00000000   NOP
00000144  00000000   NOP
00000178  00000000   NOP
000001AC  00000000   NOP
000001E0  00000000   NOP
000001E4  00000000   NOP
00000214  00000000   NOP
00000248  00000000   NOP
0000024C  00000000   NOP
0000027C  00000000   NOP
000002B0  00000000   NOP
000002E4  00000000   NOP
000002E8  00000000   NOP
00000318  00000000   NOP
0000031C  00000000   NOP
0000034C  00000000   NOP
00000380  00000000   NOP
00000384  00000000   NOP
000003B4  00000000   NOP
000003B8  00000000   NOP
000003E8  00000000   NOP
000003EC  00000000   NOP
0000041C  00000000   NOP
00000000  00000000   NOP
00000008  00000000   NOP
00000000  00000000   NOP
00000024  00000000   NOP
00000008  00000000   NOP
00000000  00000000   NOP
00000040  00000000   NOP
00000008  00000000   NOP
00000000  00000000   NOP
00000044  00000000   NOP
00000008  00000000   NOP
00000000  00000000   NOP
00000004  00000000   NOP
00000000  00000000   NOP
00000038  00000000   NOP
00000008  00000000   NOP
00000000  00000000   NOP
00000024  00000000   NOP
00000008  00000000   NOP
00000000  00000000   NOP
00000038  00000000   NOP
00000008  00000000   NOP
00000000  00000000   NOP
00000008  00000000   NOP
00000010  00000000   NOP
000000AC  00000000   NOP
00000000  00000000   NOP
00000038  00000000   NOP
00000008  00000000   NOP
00000000  00000000   NOP
---  f:/isp_release/software/isp_root/framework/peripheral/usart/templates/usart_wakeonstart_default.h  -
00000040  00000000   NOP
00000070  00000000   NOP
00000088  00000000   NOP
000000A0  00000000   NOP
000000B8  00000000   NOP
00000040  00000000   NOP
00000070  00000000   NOP
00000088  00000000   NOP
000000A0  00000000   NOP
000000B8  00000000   NOP
00000048  00000000   NOP
00000058  00000000   NOP
00000068  00000000   NOP
00000078  00000000   NOP
00000088  00000000   NOP
00000098  00000000   NOP
---  f:/isp_release/software/isp_root/framework/peripheral/usart/templates/usart_transmitterinterruptmode_default.h
00000044  00000000   NOP
00000070  00000000   NOP
0000009C  00000000   NOP
000000C8  00000000   NOP
000000F4  00000000   NOP
00000120  00000000   NOP
---  f:/isp_release/software/isp_root/framework/peripheral/usart/templates/usart_transmitteridleislow_pic32.h
00000058  00000000   NOP
00000080  00000000   NOP
000000A8  00000000   NOP
000000D0  00000000   NOP
000000F8  00000000   NOP
00000120  00000000   NOP
00000068  00000000   NOP
00000090  00000000   NOP
000000B8  00000000   NOP
000000E0  00000000   NOP
00000108  00000000   NOP
00000130  00000000   NOP
00000040  00000000   NOP
0000007C  00000000   NOP
000000CC  00000000   NOP
000000F4  00000000   NOP
0000011C  00000000   NOP
00000144  00000000   NOP
00000058  00000000   NOP
00000080  00000000   NOP
000000A8  00000000   NOP
000000D0  00000000   NOP
000000F8  00000000   NOP
00000120  00000000   NOP
00000068  00000000   NOP
00000090  00000000   NOP
000000B8  00000000   NOP
000000E0  00000000   NOP
00000108  00000000   NOP
00000130  00000000   NOP
00000134  00000000   NOP
00000040  00000000   NOP
0000007C  00000000   NOP
000000CC  00000000   NOP
000000F4  00000000   NOP
0000011C  00000000   NOP
00000144  00000000   NOP
---  f:/isp_release/software/isp_root/framework/peripheral/usart/templates/usart_transmitteridle_unsupported.h
00000054  00000000   NOP
---  f:/isp_release/software/isp_root/framework/peripheral/usart/templates/usart_transmitterenablecontrol_default.h
00000040  00000000   NOP
00000070  00000000   NOP
00000088  00000000   NOP
000000A0  00000000   NOP
000000B8  00000000   NOP
00000040  00000000   NOP
00000070  00000000   NOP
00000088  00000000   NOP
000000A0  00000000   NOP
000000B8  00000000   NOP
---  f:/isp_release/software/isp_root/framework/peripheral/usart/templates/usart_transmitterempty_default.h
00000048  00000000   NOP
00000058  00000000   NOP
00000068  00000000   NOP
00000078  00000000   NOP
00000088  00000000   NOP
00000098  00000000   NOP
---  f:/isp_release/software/isp_root/framework/peripheral/usart/templates/usart_transmitterbufferfull_default.h
00000048  00000000   NOP
00000058  00000000   NOP
00000068  00000000   NOP
00000078  00000000   NOP
00000088  00000000   NOP
00000098  00000000   NOP
---  f:/isp_release/software/isp_root/framework/peripheral/usart/templates/usart_transmitterbreak_default.h
00000040  00000000   NOP
00000070  00000000   NOP
00000088  00000000   NOP
000000A0  00000000   NOP
000000B8  00000000   NOP
00000048  00000000   NOP
00000058  00000000   NOP
00000068  00000000   NOP
00000078  00000000   NOP
00000088  00000000   NOP
00000098  00000000   NOP
---  f:/isp_release/software/isp_root/framework/peripheral/usart/templates/usart_transmitter_default.h  -
00000044  00000000   NOP
00000058  00000000   NOP
0000006C  00000000   NOP
00000080  00000000   NOP
00000094  00000000   NOP
000000A8  00000000   NOP
---  f:/isp_release/software/isp_root/framework/peripheral/usart/templates/usart_transmitter9bits_indataonly.h
00000048  00000000   NOP
0000005C  00000000   NOP
00000070  00000000   NOP
00000084  00000000   NOP
00000098  00000000   NOP
000000AC  00000000   NOP
00000050  00000000   NOP
00000064  00000000   NOP
00000078  00000000   NOP
0000008C  00000000   NOP
000000A0  00000000   NOP
000000B4  00000000   NOP
000000C0  00000000   NOP
000000E4  00000000   NOP
00000108  00000000   NOP
0000012C  00000000   NOP
00000150  00000000   NOP
00000174  00000000   NOP
000000C4  00000000   NOP
000000E8  00000000   NOP
0000010C  00000000   NOP
00000130  00000000   NOP
00000154  00000000   NOP
00000178  00000000   NOP
0000017C  00000000   NOP
000000D0  00000000   NOP
000000F4  00000000   NOP
000000F8  00000000   NOP
00000118  00000000   NOP
0000013C  00000000   NOP
00000140  00000000   NOP
00000144  00000000   NOP
00000160  00000000   NOP
00000184  00000000   NOP
---  f:/isp_release/software/isp_root/framework/peripheral/usart/templates/usart_syncmode_unsupported.h  
00000044  00000000   NOP
00000044  00000000   NOP
00000044  00000000   NOP
---  f:/isp_release/software/isp_root/framework/peripheral/usart/templates/usart_stopinidle_default.h  --
00000040  00000000   NOP
00000070  00000000   NOP
00000088  00000000   NOP
000000A0  00000000   NOP
000000B8  00000000   NOP
00000040  00000000   NOP
00000070  00000000   NOP
00000088  00000000   NOP
000000A0  00000000   NOP
000000B8  00000000   NOP
---  f:/isp_release/software/isp_root/framework/peripheral/usart/templates/usart_receiverpolarityinvert_default.h
00000040  00000000   NOP
00000070  00000000   NOP
00000088  00000000   NOP
000000A0  00000000   NOP
000000B8  00000000   NOP
00000040  00000000   NOP
00000070  00000000   NOP
00000088  00000000   NOP
000000A0  00000000   NOP
000000B8  00000000   NOP
---  f:/isp_release/software/isp_root/framework/peripheral/usart/templates/usart_receiverparityerror_default.h
00000048  00000000   NOP
00000058  00000000   NOP
00000068  00000000   NOP
00000078  00000000   NOP
00000088  00000000   NOP
00000098  00000000   NOP
---  f:/isp_release/software/isp_root/framework/peripheral/usart/templates/usart_receiveroverrunerror_default.h
00000040  00000000   NOP
00000070  00000000   NOP
00000088  00000000   NOP
000000A0  00000000   NOP
000000B8  00000000   NOP
00000048  00000000   NOP
00000058  00000000   NOP
00000068  00000000   NOP
00000078  00000000   NOP
00000088  00000000   NOP
00000098  00000000   NOP
---  f:/isp_release/software/isp_root/framework/peripheral/usart/templates/usart_receivermode_unsupported.h
00000044  00000000   NOP
00000044  00000000   NOP
0000006C  00000000   NOP
00000094  00000000   NOP
000000BC  00000000   NOP
000000E4  00000000   NOP
0000010C  00000000   NOP
---  f:/isp_release/software/isp_root/framework/peripheral/usart/templates/usart_receiveridle_default.h  
00000048  00000000   NOP
00000058  00000000   NOP
00000068  00000000   NOP
00000078  00000000   NOP
00000088  00000000   NOP
00000098  00000000   NOP
---  f:/isp_release/software/isp_root/framework/peripheral/usart/templates/usart_receiverframingerror_default.h
00000048  00000000   NOP
00000058  00000000   NOP
00000068  00000000   NOP
00000078  00000000   NOP
00000088  00000000   NOP
00000098  00000000   NOP
---  f:/isp_release/software/isp_root/framework/peripheral/usart/templates/usart_receiverenablecontrol_default.h
00000040  00000000   NOP
00000070  00000000   NOP
00000088  00000000   NOP
000000A0  00000000   NOP
000000B8  00000000   NOP
000000BC  00000000   NOP
000000C0  00000000   NOP
000000C4  00000000   NOP
00000040  00000000   NOP
00000070  00000000   NOP
00000088  00000000   NOP
000000A0  00000000   NOP
000000B8  00000000   NOP
---  f:/isp_release/software/isp_root/framework/peripheral/usart/templates/usart_receiverdataavailable_default.h
00000048  00000000   NOP
00000058  00000000   NOP
00000068  00000000   NOP
00000078  00000000   NOP
00000088  00000000   NOP
00000098  00000000   NOP
---  f:/isp_release/software/isp_root/framework/peripheral/usart/templates/usart_receiveraddressdetect_default.h
00000040  00000000   NOP
00000070  00000000   NOP
00000088  00000000   NOP
000000A0  00000000   NOP
000000B8  00000000   NOP
00000040  00000000   NOP
00000070  00000000   NOP
00000088  00000000   NOP
000000A0  00000000   NOP
000000B8  00000000   NOP
00000048  00000000   NOP
00000058  00000000   NOP
00000068  00000000   NOP
00000078  00000000   NOP
00000088  00000000   NOP
00000098  00000000   NOP
---  f:/isp_release/software/isp_root/framework/peripheral/usart/templates/usart_receiveraddressautodetect_default.h
00000044  00000000   NOP
00000068  00000000   NOP
00000080  00000000   NOP
000000A4  00000000   NOP
000000BC  00000000   NOP
000000E0  00000000   NOP
000000F8  00000000   NOP
0000011C  00000000   NOP
00000134  00000000   NOP
00000158  00000000   NOP
00000170  00000000   NOP
00000194  00000000   NOP
0000006C  00000000   NOP
000000A8  00000000   NOP
000000E4  00000000   NOP
00000120  00000000   NOP
0000015C  00000000   NOP
00000198  00000000   NOP
00000040  00000000   NOP
00000070  00000000   NOP
00000088  00000000   NOP
000000A0  00000000   NOP
000000B8  00000000   NOP
---  f:/isp_release/software/isp_root/framework/peripheral/usart/templates/usart_receiver_default.h  ----
00000048  00000000   NOP
00000058  00000000   NOP
00000068  00000000   NOP
00000078  00000000   NOP
00000088  00000000   NOP
00000098  00000000   NOP
---  f:/isp_release/software/isp_root/framework/peripheral/usart/templates/usart_operationmode_unsupported.h
00000070  00000000   NOP
---  f:/isp_release/software/isp_root/framework/peripheral/usart/templates/usart_operationmode_default.h  
00000048  00000000   NOP
00000094  00000000   NOP
000000AC  00000000   NOP
000000C0  00000000   NOP
000000D8  00000000   NOP
---  f:/isp_release/software/isp_root/framework/peripheral/usart/templates/usart_loopback_default.h  ----
00000040  00000000   NOP
00000070  00000000   NOP
00000088  00000000   NOP
000000A0  00000000   NOP
000000B8  00000000   NOP
00000040  00000000   NOP
00000070  00000000   NOP
00000088  00000000   NOP
000000A0  00000000   NOP
000000B8  00000000   NOP
---  f:/isp_release/software/isp_root/framework/peripheral/usart/templates/usart_linecontrolmode_rxandtxcombined.h
00000040  00000000   NOP
00000080  00000000   NOP
000000C0  00000000   NOP
00000100  00000000   NOP
00000140  00000000   NOP
00000180  00000000   NOP
0000004C  00000000   NOP
0000008C  00000000   NOP
000000CC  00000000   NOP
0000010C  00000000   NOP
0000014C  00000000   NOP
0000018C  00000000   NOP
00000058  00000000   NOP
00000098  00000000   NOP
000000D8  00000000   NOP
00000118  00000000   NOP
00000158  00000000   NOP
00000198  00000000   NOP
0000019C  00000000   NOP
000001C0  00000000   NOP
000001C4  00000000   NOP
000001C8  00000000   NOP
0000005C  00000000   NOP
0000009C  00000000   NOP
000000DC  00000000   NOP
0000011C  00000000   NOP
0000015C  00000000   NOP
0000019C  00000000   NOP
---  f:/isp_release/software/isp_root/framework/peripheral/usart/templates/usart_irdacontrol_default.h  -
00000040  00000000   NOP
00000070  00000000   NOP
00000088  00000000   NOP
000000A0  00000000   NOP
000000B8  00000000   NOP
00000040  00000000   NOP
00000070  00000000   NOP
00000088  00000000   NOP
000000A0  00000000   NOP
000000B8  00000000   NOP
---  f:/isp_release/software/isp_root/framework/peripheral/usart/templates/usart_handshakemode_unsupported.h
00000074  00000000   NOP
---  f:/isp_release/software/isp_root/framework/peripheral/usart/templates/usart_handshakemode_default.h  
00000048  00000000   NOP
00000098  00000000   NOP
000000C8  00000000   NOP
000000F4  00000000   NOP
0000011C  00000000   NOP
00000144  00000000   NOP
---  f:/isp_release/software/isp_root/framework/peripheral/usart/templates/usart_enablecontrol_default.h  
00000040  00000000   NOP
00000070  00000000   NOP
00000088  00000000   NOP
000000A0  00000000   NOP
000000B8  00000000   NOP
00000040  00000000   NOP
00000070  00000000   NOP
00000088  00000000   NOP
000000A0  00000000   NOP
000000B8  00000000   NOP
---  f:/isp_release/software/isp_root/framework/peripheral/usart/templates/usart_baudratemode_unsupported.h
00000044  00000000   NOP
---  f:/isp_release/software/isp_root/framework/peripheral/usart/templates/usart_baudratehigh_in16bitregister.h
00000040  00000000   NOP
00000054  00000000   NOP
00000068  00000000   NOP
0000007C  00000000   NOP
00000090  00000000   NOP
000000A4  00000000   NOP
000000B8  00000000   NOP
000000CC  00000000   NOP
000000E0  00000000   NOP
000000F4  00000000   NOP
00000108  00000000   NOP
0000011C  00000000   NOP
00000050  00000000   NOP
0000005C  00000000   NOP
00000078  00000000   NOP
00000084  00000000   NOP
000000A0  00000000   NOP
000000AC  00000000   NOP
000000C8  00000000   NOP
000000D4  00000000   NOP
000000F0  00000000   NOP
000000FC  00000000   NOP
00000118  00000000   NOP
0000011C  00000000   NOP
00000120  00000000   NOP
00000124  00000000   NOP
00000040  00000000   NOP
00000070  00000000   NOP
00000088  00000000   NOP
000000A0  00000000   NOP
000000B8  00000000   NOP
00000040  00000000   NOP
00000070  00000000   NOP
00000088  00000000   NOP
000000A0  00000000   NOP
000000B8  00000000   NOP
---  f:/isp_release/software/isp_root/framework/peripheral/usart/templates/usart_baudrateautodetectoverflow_unsupported.h
00000054  00000000   NOP
---  f:/isp_release/software/isp_root/framework/peripheral/usart/templates/usart_baudrateautodetect_default.h
00000040  00000000   NOP
00000070  00000000   NOP
00000088  00000000   NOP
000000A0  00000000   NOP
000000B8  00000000   NOP
00000048  00000000   NOP
00000058  00000000   NOP
00000068  00000000   NOP
00000078  00000000   NOP
00000088  00000000   NOP
00000098  00000000   NOP
---  f:/isp_release/software/isp_root/framework/peripheral/usart/templates/usart_baudrate_in16bitregister.h
00000040  00000000   NOP
00000054  00000000   NOP
00000068  00000000   NOP
0000007C  00000000   NOP
00000090  00000000   NOP
000000A4  00000000   NOP
000000B8  00000000   NOP
000000CC  00000000   NOP
000000E0  00000000   NOP
000000F4  00000000   NOP
00000108  00000000   NOP
0000011C  00000000   NOP
00000050  00000000   NOP
0000005C  00000000   NOP
00000078  00000000   NOP
00000084  00000000   NOP
000000A0  00000000   NOP
000000AC  00000000   NOP
000000C8  00000000   NOP
000000D4  00000000   NOP
000000F0  00000000   NOP
000000FC  00000000   NOP
00000118  00000000   NOP
00000124  00000000   NOP
00000048  00000000   NOP
0000006C  00000000   NOP
00000090  00000000   NOP
000000B4  00000000   NOP
000000D8  00000000   NOP
000000FC  00000000   NOP
0000004C  00000000   NOP
00000070  00000000   NOP
00000094  00000000   NOP
000000B8  00000000   NOP
000000DC  00000000   NOP
00000100  00000000   NOP
---  f:/isp_release/software/isp_root/framework/peripheral/usart/templates/usart_alternateioenablecontrol_unsupported.h
00000044  00000000   NOP
---  f:/isp_release/software/isp_root/framework/peripheral/usart/processor/usart_p32mx795f512l.h  -------
00000000  00000000   NOP
00000080  00000000   NOP
00000098  00000000   NOP
000000B0  00000000   NOP
000000C8  00000000   NOP
00000068  00000000   NOP
00000000  00000000   NOP
00000080  00000000   NOP
00000098  00000000   NOP
000000B0  00000000   NOP
000000C8  00000000   NOP
00000068  00000000   NOP
00000000  00000000   NOP
00000004  00000000   NOP
00000008  00000000   NOP
00000064  00000000   NOP
00000000  00000000   NOP
00000004  00000000   NOP
00000008  00000000   NOP
00000064  00000000   NOP
00000000  00000000   NOP
00000004  00000000   NOP
00000008  00000000   NOP
000000C4  00000000   NOP
00000044  00000000   NOP
00000094  00000000   NOP
00000068  00000000   NOP
000000B8  00000000   NOP
000000E8  00000000   NOP
00000114  00000000   NOP
0000013C  00000000   NOP
00000164  00000000   NOP
00000000  00000000   NOP
00000080  00000000   NOP
00000098  00000000   NOP
000000B0  00000000   NOP
000000C8  00000000   NOP
000000CC  00000000   NOP
000000D0  00000000   NOP
00000068  00000000   NOP
00000000  00000000   NOP
00000080  00000000   NOP
00000098  00000000   NOP
000000B0  00000000   NOP
000000C8  00000000   NOP
00000068  00000000   NOP
00000000  00000000   NOP
000000F8  00000000   NOP
00000178  00000000   NOP
0000017C  00000000   NOP
00000138  00000000   NOP
000001B8  00000000   NOP
000000B8  00000000   NOP
00000000  00000000   NOP
00000080  00000000   NOP
00000098  00000000   NOP
000000B0  00000000   NOP
000000C8  00000000   NOP
00000068  00000000   NOP
00000000  00000000   NOP
00000080  00000000   NOP
00000098  00000000   NOP
000000B0  00000000   NOP
000000C8  00000000   NOP
00000068  00000000   NOP
00000000  00000000   NOP
00000004  00000000   NOP
00000008  00000000   NOP
000000BC  00000000   NOP
00000044  00000000   NOP
00000090  00000000   NOP
00000064  00000000   NOP
000000A8  00000000   NOP
000000B4  00000000   NOP
000000D4  00000000   NOP
000000E0  00000000   NOP
00000000  00000000   NOP
00000080  00000000   NOP
00000098  00000000   NOP
000000B0  00000000   NOP
000000C8  00000000   NOP
00000068  00000000   NOP
00000000  00000000   NOP
00000080  00000000   NOP
00000098  00000000   NOP
000000B0  00000000   NOP
000000C8  00000000   NOP
00000068  00000000   NOP
00000000  00000000   NOP
00000004  00000000   NOP
00000008  00000000   NOP
00000064  00000000   NOP
00000000  00000000   NOP
00000004  00000000   NOP
00000008  00000000   NOP
00000064  00000000   NOP
00000000  00000000   NOP
00000004  00000000   NOP
00000008  00000000   NOP
00000064  00000000   NOP
00000000  00000000   NOP
00000004  00000000   NOP
00000008  00000000   NOP
00000064  00000000   NOP
00000000  00000000   NOP
00000080  00000000   NOP
00000098  00000000   NOP
000000B0  00000000   NOP
000000C8  00000000   NOP
00000068  00000000   NOP
00000000  00000000   NOP
00000080  00000000   NOP
00000098  00000000   NOP
000000B0  00000000   NOP
000000C8  00000000   NOP
00000068  00000000   NOP
00000000  00000000   NOP
00000014  00000000   NOP
00000064  00000000   NOP
0000006C  00000000   NOP
0000007C  00000000   NOP
0000008C  00000000   NOP
00000044  00000000   NOP
0000009C  00000000   NOP
0000004C  00000000   NOP
0000005C  00000000   NOP
0000000C  00000000   NOP
00000000  00000000   NOP
000000B0  00000000   NOP
000000D8  00000000   NOP
00000100  00000000   NOP
00000128  00000000   NOP
00000088  00000000   NOP
00000000  00000000   NOP
00000014  00000000   NOP
0000008C  00000000   NOP
000000B0  00000000   NOP
000000D4  00000000   NOP
000000F8  00000000   NOP
00000044  00000000   NOP
00000068  00000000   NOP
00000060  00000000   NOP
00000084  00000000   NOP
000000A8  00000000   NOP
000000CC  00000000   NOP
000000F0  00000000   NOP
00000114  00000000   NOP
0000000C  00000000   NOP
00000000  00000000   NOP
00000080  00000000   NOP
00000098  00000000   NOP
000000B0  00000000   NOP
000000C8  00000000   NOP
00000068  00000000   NOP
00000000  00000000   NOP
00000014  00000000   NOP
00000064  00000000   NOP
0000006C  00000000   NOP
0000007C  00000000   NOP
0000008C  00000000   NOP
00000044  00000000   NOP
0000009C  00000000   NOP
0000004C  00000000   NOP
0000005C  00000000   NOP
0000000C  00000000   NOP
00000000  00000000   NOP
00000004  00000000   NOP
00000008  00000000   NOP
00000020  00000000   NOP
00000010  00000000   NOP
00000000  00000000   NOP
00000004  00000000   NOP
00000008  00000000   NOP
00000064  00000000   NOP
00000000  00000000   NOP
000000B0  00000000   NOP
000000D8  00000000   NOP
000000DC  00000000   NOP
000000E0  00000000   NOP
00000100  00000000   NOP
00000128  00000000   NOP
00000088  00000000   NOP
00000000  00000000   NOP
00000080  00000000   NOP
00000098  00000000   NOP
000000B0  00000000   NOP
000000C8  00000000   NOP
00000068  00000000   NOP
00000000  00000000   NOP
00000080  00000000   NOP
00000098  00000000   NOP
000000B0  00000000   NOP
000000C8  00000000   NOP
00000068  00000000   NOP
00000000  00000000   NOP
00000014  00000000   NOP
00000064  00000000   NOP
0000006C  00000000   NOP
0000007C  00000000   NOP
0000008C  00000000   NOP
00000044  00000000   NOP
0000009C  00000000   NOP
0000004C  00000000   NOP
0000005C  00000000   NOP
0000000C  00000000   NOP
00000000  00000000   NOP
000000B8  00000000   NOP
000000DC  00000000   NOP
000000EC  00000000   NOP
00000118  00000000   NOP
00000128  00000000   NOP
00000154  00000000   NOP
00000164  00000000   NOP
00000190  00000000   NOP
00000194  00000000   NOP
0000007C  00000000   NOP
000000A0  00000000   NOP
000001A0  00000000   NOP
00000040  00000000   NOP
00000064  00000000   NOP
000000B0  00000000   NOP
00000000  00000000   NOP
00000080  00000000   NOP
00000098  00000000   NOP
000000B0  00000000   NOP
000000C8  00000000   NOP
00000068  00000000   NOP
00000000  00000000   NOP
00000080  00000000   NOP
00000098  00000000   NOP
000000B0  00000000   NOP
000000C8  00000000   NOP
00000068  00000000   NOP
00000000  00000000   NOP
00000080  00000000   NOP
00000098  00000000   NOP
000000B0  00000000   NOP
000000C8  00000000   NOP
00000068  00000000   NOP
00000000  00000000   NOP
00000014  00000000   NOP
00000064  00000000   NOP
0000006C  00000000   NOP
0000007C  00000000   NOP
00000080  00000000   NOP
0000008C  00000000   NOP
00000044  00000000   NOP
0000009C  00000000   NOP
0000004C  00000000   NOP
0000005C  00000000   NOP
0000000C  00000000   NOP
00000000  00000000   NOP
00000014  00000000   NOP
00000064  00000000   NOP
0000006C  00000000   NOP
0000007C  00000000   NOP
0000008C  00000000   NOP
00000044  00000000   NOP
0000009C  00000000   NOP
0000004C  00000000   NOP
0000005C  00000000   NOP
0000000C  00000000   NOP
00000000  00000000   NOP
00000004  00000000   NOP
00000008  00000000   NOP
00000064  00000000   NOP
00000000  00000000   NOP
00000080  00000000   NOP
00000098  00000000   NOP
000000B0  00000000   NOP
000000C8  00000000   NOP
00000068  00000000   NOP
00000000  00000000   NOP
00000080  00000000   NOP
00000098  00000000   NOP
000000B0  00000000   NOP
000000C8  00000000   NOP
00000068  00000000   NOP
00000000  00000000   NOP
00000014  00000000   NOP
00000064  00000000   NOP
0000006C  00000000   NOP
0000007C  00000000   NOP
0000008C  00000000   NOP
00000044  00000000   NOP
0000009C  00000000   NOP
0000004C  00000000   NOP
0000005C  00000000   NOP
0000000C  00000000   NOP
00000000  00000000   NOP
00000014  00000000   NOP
00000064  00000000   NOP
0000006C  00000000   NOP
0000007C  00000000   NOP
0000008C  00000000   NOP
00000044  00000000   NOP
0000009C  00000000   NOP
0000004C  00000000   NOP
0000005C  00000000   NOP
0000000C  00000000   NOP
00000000  00000000   NOP
00000090  00000000   NOP
000000B0  00000000   NOP
000000D8  00000000   NOP
00000100  00000000   NOP
00000068  00000000   NOP
00000128  00000000   NOP
00000040  00000000   NOP
00000088  00000000   NOP
00000000  00000000   NOP
00000080  00000000   NOP
00000098  00000000   NOP
000000B0  00000000   NOP
000000C8  00000000   NOP
00000068  00000000   NOP
00000000  00000000   NOP
00000080  00000000   NOP
00000098  00000000   NOP
000000B0  00000000   NOP
000000C8  00000000   NOP
00000068  00000000   NOP
00000000  00000000   NOP
00000014  00000000   NOP
00000064  00000000   NOP
0000006C  00000000   NOP
0000007C  00000000   NOP
0000008C  00000000   NOP
00000044  00000000   NOP
0000009C  00000000   NOP
0000004C  00000000   NOP
0000005C  00000000   NOP
0000000C  00000000   NOP
00000000  00000000   NOP
00000080  00000000   NOP
00000098  00000000   NOP
000000B0  00000000   NOP
000000C8  00000000   NOP
00000068  00000000   NOP
00000000  00000000   NOP
00000014  00000000   NOP
00000064  00000000   NOP
0000006C  00000000   NOP
0000007C  00000000   NOP
0000008C  00000000   NOP
00000044  00000000   NOP
0000009C  00000000   NOP
0000004C  00000000   NOP
0000005C  00000000   NOP
0000000C  00000000   NOP
00000000  00000000   NOP
00000068  00000000   NOP
00000074  00000000   NOP
00000088  00000000   NOP
0000009C  00000000   NOP
00000054  00000000   NOP
000000B0  00000000   NOP
00000040  00000000   NOP
00000060  00000000   NOP
00000000  00000000   NOP
00000004  00000000   NOP
00000008  00000000   NOP
00000000  00000000   NOP
0000000C  00000000   NOP
00000054  00000000   NOP
00000000  00000000   NOP
00000080  00000000   NOP
00000098  00000000   NOP
000000B0  00000000   NOP
000000C8  00000000   NOP
00000068  00000000   NOP
00000000  00000000   NOP
00000014  00000000   NOP
00000064  00000000   NOP
0000006C  00000000   NOP
0000007C  00000000   NOP
0000008C  00000000   NOP
00000044  00000000   NOP
0000009C  00000000   NOP
0000004C  00000000   NOP
0000005C  00000000   NOP
0000000C  00000000   NOP
00000000  00000000   NOP
00000014  00000000   NOP
00000064  00000000   NOP
0000006C  00000000   NOP
0000007C  00000000   NOP
0000008C  00000000   NOP
00000044  00000000   NOP
0000009C  00000000   NOP
0000004C  00000000   NOP
0000005C  00000000   NOP
0000000C  00000000   NOP
00000000  00000000   NOP
00000014  00000000   NOP
00000064  00000000   NOP
0000006C  00000000   NOP
0000007C  00000000   NOP
0000008C  00000000   NOP
00000044  00000000   NOP
0000009C  00000000   NOP
0000004C  00000000   NOP
0000005C  00000000   NOP
0000000C  00000000   NOP
00000000  00000000   NOP
00000080  00000000   NOP
00000098  00000000   NOP
000000B0  00000000   NOP
000000C8  00000000   NOP
00000068  00000000   NOP
00000000  00000000   NOP
00000080  00000000   NOP
00000098  00000000   NOP
000000B0  00000000   NOP
000000C8  00000000   NOP
00000068  00000000   NOP
00000000  00000000   NOP
00000098  00000000   NOP
000000BC  00000000   NOP
000000E8  00000000   NOP
00000114  00000000   NOP
0000006C  00000000   NOP
00000140  00000000   NOP
00000040  00000000   NOP
00000090  00000000   NOP
00000000  00000000   NOP
00000004  00000000   NOP
00000008  00000000   NOP
00000020  00000000   NOP
00000010  00000000   NOP
00000000  00000000   NOP
000000A4  00000000   NOP
00000000  00000000   NOP
000000A4  00000000   NOP
---  f:/isp_release/software/isp_root/framework/peripheral/tmr/templates/tmr_triggereventreset_unsupported.h
00000040  00000000   NOP
00000040  00000000   NOP
00000040  00000000   NOP
---  f:/isp_release/software/isp_root/framework/peripheral/tmr/templates/tmr_systemclockstatus_unsupported.h
00000050  00000000   NOP
---  f:/isp_release/software/isp_root/framework/peripheral/tmr/templates/tmr_stopinidle_default.h  ------
0000003C  00000000   NOP
0000006C  00000000   NOP
00000084  00000000   NOP
0000009C  00000000   NOP
0000003C  00000000   NOP
0000006C  00000000   NOP
00000084  00000000   NOP
0000009C  00000000   NOP
---  f:/isp_release/software/isp_root/framework/peripheral/tmr/templates/tmr_prescalercontrol_unsupported.h
00000040  00000000   NOP
---  f:/isp_release/software/isp_root/framework/peripheral/tmr/templates/tmr_prescale_default.h  --------
9D00C70C  24020003   ADDIU V0, ZERO, 3
9D00C710  10A2004E   BEQ A1, V0, 0x9D00C84C
9D00C714  2CA20004   SLTIU V0, A1, 4
9D00C718  10400033   BEQ V0, ZERO, 0x9D00C7E8
9D00C71C  24020006   ADDIU V0, ZERO, 6
9D00C720  14A00035   BNE A1, ZERO, 0x9D00C7F8
9D00C724  3C059D00   LUI A1, -25344
9D00C728  3C02BF80   LUI V0, -16512
9D00C7E8  10A20010   BEQ A1, V0, 0x9D00C82C
9D00C7EC  24020007   ADDIU V0, ZERO, 7
9D00C7F0  10A20008   BEQ A1, V0, 0x9D00C814
9D00C7F4  3C059D00   LUI A1, -25344
9D00C72C  8C430600   LW V1, 1536(V0)
9D00C730  2404FFCF   ADDIU A0, ZERO, -49
9D00C734  00831824   AND V1, A0, V1
9D00C738  AC430600   SW V1, 1536(V0)
9D00C84C  3C02BF80   LUI V0, -16512
9D00C82C  3C02BF80   LUI V0, -16512
9D00C850  8C430600   LW V1, 1536(V0)
9D00C854  2404FFCF   ADDIU A0, ZERO, -49
9D00C858  00831824   AND V1, A0, V1
9D00C85C  34630010   ORI V1, V1, 16
9D00C860  AC430600   SW V1, 1536(V0)
9D00C814  3C02BF80   LUI V0, -16512
9D00C830  8C430600   LW V1, 1536(V0)
9D00C834  2404FFCF   ADDIU A0, ZERO, -49
9D00C838  00831824   AND V1, A0, V1
9D00C83C  34630020   ORI V1, V1, 32
9D00C840  AC430600   SW V1, 1536(V0)
9D00C818  8C430600   LW V1, 1536(V0)
9D00C81C  34630030   ORI V1, V1, 48
9D00C820  AC430600   SW V1, 1536(V0)
9D00C798  3C02BF80   LUI V0, -16512
9D00C7F8  3C069D00   LUI A2, -25344
9D00C7FC  3C079D00   LUI A3, -25344
9D00C800  24040069   ADDIU A0, ZERO, 105
9D00C804  24A5574C   ADDIU A1, A1, 22348
9D00C808  24C60070   ADDIU A2, A2, 112
9D00C80C  0F4035AB   JAL _fassert
9D00C810  24E772B4   ADDIU A3, A3, 29364
9D00C748  3C02BF80   LUI V0, -16512
9D00C770  3C02BF80   LUI V0, -16512
9D00C79C  8C430800   LW V1, 2048(V0)
9D00C7A0  00052900   SLL A1, A1, 4
9D00C7A4  2404FF8F   ADDIU A0, ZERO, -113
9D00C7A8  30A50070   ANDI A1, A1, 112
9D00C7AC  00831824   AND V1, A0, V1
9D00C7B0  00A32825   OR A1, A1, V1
9D00C7B4  AC450800   SW A1, 2048(V0)
9D00C7C0  3C02BF80   LUI V0, -16512
00000044  00000000   NOP
00000054  00000000   NOP
00000064  00000000   NOP
0000008C  00000000   NOP
0000009C  00000000   NOP
00000068  00000000   NOP
000000A8  00000000   NOP
00000080  00000000   NOP
000000B0  00000000   NOP
---  f:/isp_release/software/isp_root/framework/peripheral/tmr/templates/tmr_postscale_unsupported.h  ---
00000040  00000000   NOP
00000050  00000000   NOP
---  f:/isp_release/software/isp_root/framework/peripheral/tmr/templates/tmr_period8bit_unsupported.h  --
00000040  00000000   NOP
00000050  00000000   NOP
---  f:/isp_release/software/isp_root/framework/peripheral/tmr/templates/tmr_period32bit_unsupported.h  -
0000002C  00000000   NOP
0000004C  00000000   NOP
00000030  00000000   NOP
---  f:/isp_release/software/isp_root/framework/peripheral/tmr/templates/tmr_period32bit_in16bitregister_pic32.h
00000048  00000000   NOP
00000050  00000000   NOP
00000078  00000000   NOP
00000080  00000000   NOP
000000A8  00000000   NOP
000000C4  00000000   NOP
000000B8  00000000   NOP
000000D4  00000000   NOP
00000060  00000000   NOP
00000064  00000000   NOP
0000007C  00000000   NOP
00000090  00000000   NOP
00000094  00000000   NOP
00000054  00000000   NOP
00000078  00000000   NOP
00000058  00000000   NOP
00000060  00000000   NOP
0000007C  00000000   NOP
00000084  00000000   NOP
00000064  00000000   NOP
00000088  00000000   NOP
---  f:/isp_release/software/isp_root/framework/peripheral/tmr/templates/tmr_period16bit_in16bitregister.h
9D00CB80  3C02BF80   LUI V0, -16512
9D00CB84  24440E10   ADDIU A0, V0, 3600
9D00CB88  2403FFFF   ADDIU V1, ZERO, -1
9D00CB8C  10830039   BEQ A0, V1, 0x9D00CC74
9D00CB90  3C030001   LUI V1, 1
9D00CBA4  3C02BF80   LUI V0, -16512
9D00CBA8  24440A10   ADDIU A0, V0, 2576
9D00CBAC  2403FFFF   ADDIU V1, ZERO, -1
9D00CBB0  5083001F   BEQL A0, V1, 0x9D00CC30
9D00CBB4  3C030001   LUI V1, 1
9D00CBC8  3C02BF80   LUI V0, -16512
9D00CBCC  24440620   ADDIU A0, V0, 1568
9D00CBD0  2403FFFF   ADDIU V1, ZERO, -1
9D00CBD4  50830022   BEQL A0, V1, 0x9D00CC60
9D00CBD8  3C020001   LUI V0, 1
9D00CBE8  3C02BF80   LUI V0, -16512
9D00CBEC  24440810   ADDIU A0, V0, 2064
9D00CBF0  2403FFFF   ADDIU V1, ZERO, -1
9D00CBF4  50830016   BEQL A0, V1, 0x9D00CC50
9D00CBF8  3C030001   LUI V1, 1
9D00CC0C  3C02BF80   LUI V0, -16512
9D00CC10  24440C10   ADDIU A0, V0, 3088
9D00CC14  2403FFFF   ADDIU V1, ZERO, -1
9D00CC18  50830009   BEQL A0, V1, 0x9D00CC40
9D00CC1C  3C030001   LUI V1, 1
9D00CB94  3C02BF80   LUI V0, -16512
9D00CBB8  3C02BF80   LUI V0, -16512
9D00CBFC  3C02BF80   LUI V0, -16512
9D00CC20  3C02BF80   LUI V0, -16512
9D00CC30  00652823   SUBU A1, V1, A1
9D00CC34  AC450A10   SW A1, 2576(V0)
9D00CC38  03E00008   JR RA
9D00CC3C  00000000   NOP
9D00CC40  00652823   SUBU A1, V1, A1
9D00CC44  AC450C10   SW A1, 3088(V0)
9D00CC48  03E00008   JR RA
9D00CC4C  00000000   NOP
9D00CC50  00652823   SUBU A1, V1, A1
9D00CC54  AC450810   SW A1, 2064(V0)
9D00CC58  03E00008   JR RA
9D00CC5C  00000000   NOP
9D00CC60  00452823   SUBU A1, V0, A1
9D00CC64  3C02BF80   LUI V0, -16512
9D00CC68  AC450610   SW A1, 1552(V0)
9D00CC6C  03E00008   JR RA
9D00CC70  00000000   NOP
9D00CC74  00652823   SUBU A1, V1, A1
9D00CC78  AC450E10   SW A1, 3600(V0)
9D00CC7C  03E00008   JR RA
9D00CC80  00000000   NOP
9D00CB98  AC450E20   SW A1, 3616(V0)
9D00CB9C  03E00008   JR RA
9D00CBA0  00000000   NOP
9D00CBBC  AC450A20   SW A1, 2592(V0)
9D00CBC0  03E00008   JR RA
9D00CBC4  00000000   NOP
9D00CBDC  AC450620   SW A1, 1568(V0)
9D00CBE0  03E00008   JR RA
9D00CBE4  00000000   NOP
9D00CC00  AC450820   SW A1, 2080(V0)
9D00CC04  03E00008   JR RA
9D00CC08  00000000   NOP
9D00CC24  AC450C20   SW A1, 3104(V0)
9D00CC28  03E00008   JR RA
9D00CC2C  00000000   NOP
00000044  00000000   NOP
00000054  00000000   NOP
00000064  00000000   NOP
00000074  00000000   NOP
00000084  00000000   NOP
---  f:/isp_release/software/isp_root/framework/peripheral/tmr/templates/tmr_operationinsleep_unsupported.h
00000040  00000000   NOP
00000040  00000000   NOP
00000040  00000000   NOP
---  f:/isp_release/software/isp_root/framework/peripheral/tmr/templates/tmr_mode32bit_default.h  -------
00000060  00000000   NOP
0000007C  00000000   NOP
00000084  00000000   NOP
---  f:/isp_release/software/isp_root/framework/peripheral/tmr/templates/tmr_mode16bit_unsupported.h  ---
9D00D4AC  3C059D00   LUI A1, -25344
9D00D4B0  3C069D00   LUI A2, -25344
9D00D4B4  3C079D00   LUI A3, -25344
9D00D4B8  2404004F   ADDIU A0, ZERO, 79
9D00D4BC  24A55894   ADDIU A1, A1, 22676
9D00D4C0  24C60070   ADDIU A2, A2, 112
9D00D4C4  0F4035AB   JAL _fassert
9D00D4C8  24E77214   ADDIU A3, A3, 29204
---  f:/isp_release/software/isp_root/framework/peripheral/tmr/templates/tmr_mode16bit_default.h  -------
9D00D4CC  3C02BF80   LUI V0, -16512
9D00D4D0  24420800   ADDIU V0, V0, 2048
9D00D4D4  24030008   ADDIU V1, ZERO, 8
9D00D4D8  AC430004   SW V1, 4(V0)
9D00D4E8  3C02BF80   LUI V0, -16512
9D00D4F0  24420C00   ADDIU V0, V0, 3072
9D00D4F4  24030008   ADDIU V1, ZERO, 8
9D00D4F8  AC430004   SW V1, 4(V0)
---  f:/isp_release/software/isp_root/framework/peripheral/tmr/templates/tmr_gatetogglemode_unsupported.h
00000040  00000000   NOP
00000040  00000000   NOP
00000040  00000000   NOP
00000040  00000000   NOP
00000050  00000000   NOP
---  f:/isp_release/software/isp_root/framework/peripheral/tmr/templates/tmr_gatepolarity_unsupported.h  
00000040  00000000   NOP
---  f:/isp_release/software/isp_root/framework/peripheral/tmr/templates/tmr_gatedtimeaccumulation_default.h
0000003C  00000000   NOP
0000006C  00000000   NOP
00000084  00000000   NOP
0000009C  00000000   NOP
0000003C  00000000   NOP
0000006C  00000000   NOP
00000084  00000000   NOP
0000009C  00000000   NOP
---  f:/isp_release/software/isp_root/framework/peripheral/tmr/templates/tmr_gatecurrentstate_unsupported.h
00000050  00000000   NOP
---  f:/isp_release/software/isp_root/framework/peripheral/tmr/templates/tmr_enablecontrol_default.h  ---
9D00D28C  3C02BF80   LUI V0, -16512
9D00D2BC  3C02BF80   LUI V0, -16512
9D00D2C0  34038000   ORI V1, ZERO, -32768
9D00D2C4  24420600   ADDIU V0, V0, 1536
9D00D2C8  AC430008   SW V1, 8(V0)
9D00D2D4  3C02BF80   LUI V0, -16512
9D00D2D8  34038000   ORI V1, ZERO, -32768
9D00D2DC  24420800   ADDIU V0, V0, 2048
9D00D2E0  AC430008   SW V1, 8(V0)
9D00D2EC  3C02BF80   LUI V0, -16512
9D00D2F0  34038000   ORI V1, ZERO, -32768
9D00D2F4  24420C00   ADDIU V0, V0, 3072
9D00D2F8  AC430008   SW V1, 8(V0)
9D00D340  3C02BF80   LUI V0, -16512
9D00D370  3C02BF80   LUI V0, -16512
9D00D374  34038000   ORI V1, ZERO, -32768
9D00D378  24420600   ADDIU V0, V0, 1536
9D00D37C  AC430004   SW V1, 4(V0)
9D00D388  3C02BF80   LUI V0, -16512
9D00D38C  34038000   ORI V1, ZERO, -32768
9D00D390  24420800   ADDIU V0, V0, 2048
9D00D394  AC430004   SW V1, 4(V0)
9D00D3A0  3C02BF80   LUI V0, -16512
9D00D3A4  34038000   ORI V1, ZERO, -32768
9D00D3A8  24420C00   ADDIU V0, V0, 3072
9D00D3AC  AC430004   SW V1, 4(V0)
---  f:/isp_release/software/isp_root/framework/peripheral/tmr/templates/tmr_countmode_unsupported.h  ---
00000040  00000000   NOP
---  f:/isp_release/software/isp_root/framework/peripheral/tmr/templates/tmr_counterasyncwriteinprogress_unsupported.h
00000050  00000000   NOP
---  f:/isp_release/software/isp_root/framework/peripheral/tmr/templates/tmr_counterasyncwriteinprogress_default.h
00000074  00000000   NOP
0000007C  00000000   NOP
---  f:/isp_release/software/isp_root/framework/peripheral/tmr/templates/tmr_counterasyncwritecontrol_unsupported.h
00000040  00000000   NOP
---  f:/isp_release/software/isp_root/framework/peripheral/tmr/templates/tmr_counterasyncwritecontrol_default.h
00000060  00000000   NOP
---  f:/isp_release/software/isp_root/framework/peripheral/tmr/templates/tmr_counter8bit_unsupported.h  -
00000040  00000000   NOP
00000050  00000000   NOP
00000040  00000000   NOP
---  f:/isp_release/software/isp_root/framework/peripheral/tmr/templates/tmr_counter32bit_unsupported.h  
0000002C  00000000   NOP
00000030  00000000   NOP
00000040  00000000   NOP
00000064  00000000   NOP
---  f:/isp_release/software/isp_root/framework/peripheral/tmr/templates/tmr_counter32bit_in16bitregister.h
00000050  00000000   NOP
0000007C  00000000   NOP
000000A0  00000000   NOP
000000C8  00000000   NOP
000000A4  00000000   NOP
000000CC  00000000   NOP
000000AC  00000000   NOP
000000D4  00000000   NOP
000000B0  00000000   NOP
000000D8  00000000   NOP
000000BC  00000000   NOP
000000E4  00000000   NOP
00000060  00000000   NOP
0000008C  00000000   NOP
00000068  00000000   NOP
00000074  00000000   NOP
00000094  00000000   NOP
00000054  00000000   NOP
00000078  00000000   NOP
00000058  00000000   NOP
00000060  00000000   NOP
0000007C  00000000   NOP
00000084  00000000   NOP
00000064  00000000   NOP
00000088  00000000   NOP
0000002C  00000000   NOP
00000068  00000000   NOP
00000030  00000000   NOP
00000070  00000000   NOP
---  f:/isp_release/software/isp_root/framework/peripheral/tmr/templates/tmr_counter16bit_in16bitregister.h
0000003C  00000000   NOP
0000005C  00000000   NOP
0000007C  00000000   NOP
000000A0  00000000   NOP
000000C0  00000000   NOP
00000090  00000000   NOP
000000E0  00000000   NOP
000000E4  00000000   NOP
00000050  00000000   NOP
00000070  00000000   NOP
00000094  00000000   NOP
000000B4  00000000   NOP
000000D4  00000000   NOP
00000044  00000000   NOP
00000054  00000000   NOP
00000064  00000000   NOP
00000074  00000000   NOP
00000084  00000000   NOP
9D00D5D8  AC400E10   SW ZERO, 3600(V0)
9D00D5DC  03E00008   JR RA
9D00D5E0  00000000   NOP
9D00D5E8  AC400A10   SW ZERO, 2576(V0)
9D00D5F8  AC400610   SW ZERO, 1552(V0)
9D00D608  AC400810   SW ZERO, 2064(V0)
9D00D618  AC400C10   SW ZERO, 3088(V0)
---  f:/isp_release/software/isp_root/framework/peripheral/tmr/templates/tmr_clocksourcesync_unsupported.h
00000040  00000000   NOP
---  f:/isp_release/software/isp_root/framework/peripheral/tmr/templates/tmr_clocksourcesync_inverted.h  
00000060  00000000   NOP
---  f:/isp_release/software/isp_root/framework/peripheral/tmr/templates/tmr_clocksourceedge_unsupported.h
00000040  00000000   NOP
00000050  00000000   NOP
---  f:/isp_release/software/isp_root/framework/peripheral/tmr/templates/tmr_clocksource_default.h  -----
9D00C8A8  14A0002F   BNE A1, ZERO, 0x9D00C968
9D00C8AC  24020001   ADDIU V0, ZERO, 1
9D00C8C8  14A0001F   BNE A1, ZERO, 0x9D00C948
9D00C8CC  24020001   ADDIU V0, ZERO, 1
9D00C8E8  14A0002F   BNE A1, ZERO, 0x9D00C9A8
9D00C8EC  24020001   ADDIU V0, ZERO, 1
9D00C908  14A0001F   BNE A1, ZERO, 0x9D00C988
9D00C90C  24020001   ADDIU V0, ZERO, 1
9D00C928  14A00027   BNE A1, ZERO, 0x9D00C9C8
9D00C92C  24020001   ADDIU V0, ZERO, 1
9D00C948  14A20025   BNE A1, V0, 0x9D00C9E0
9D00C94C  00000000   NOP
9D00C968  14A2001D   BNE A1, V0, 0x9D00C9E0
9D00C96C  00000000   NOP
9D00C988  14A20015   BNE A1, V0, 0x9D00C9E0
9D00C98C  00000000   NOP
9D00C9A8  14A2000D   BNE A1, V0, 0x9D00C9E0
9D00C9AC  00000000   NOP
9D00C9C8  14A20005   BNE A1, V0, 0x9D00C9E0
9D00C9CC  00000000   NOP
9D00C950  3C02BF80   LUI V0, -16512
9D00C954  24030002   ADDIU V1, ZERO, 2
9D00C958  24420A00   ADDIU V0, V0, 2560
9D00C95C  AC430008   SW V1, 8(V0)
9D00C960  03E00008   JR RA
9D00C964  00000000   NOP
9D00C970  3C02BF80   LUI V0, -16512
9D00C974  24030002   ADDIU V1, ZERO, 2
9D00C978  24420E00   ADDIU V0, V0, 3584
9D00C97C  AC430008   SW V1, 8(V0)
9D00C980  03E00008   JR RA
9D00C984  00000000   NOP
9D00C990  3C02BF80   LUI V0, -16512
9D00C994  24030002   ADDIU V1, ZERO, 2
9D00C998  24420600   ADDIU V0, V0, 1536
9D00C99C  AC430008   SW V1, 8(V0)
9D00C9A0  03E00008   JR RA
9D00C9A4  00000000   NOP
9D00C9B0  3C02BF80   LUI V0, -16512
9D00C9B4  24030002   ADDIU V1, ZERO, 2
9D00C9B8  24420800   ADDIU V0, V0, 2048
9D00C9BC  AC430008   SW V1, 8(V0)
9D00C9C0  03E00008   JR RA
9D00C9C4  00000000   NOP
9D00C9D0  3C02BF80   LUI V0, -16512
9D00C9D4  24030002   ADDIU V1, ZERO, 2
9D00C9D8  24420C00   ADDIU V0, V0, 3072
9D00C9DC  AC430008   SW V1, 8(V0)
9D00C9E0  03E00008   JR RA
9D00C9E4  00000000   NOP
9D00C8B0  3C02BF80   LUI V0, -16512
9D00C8B4  24030002   ADDIU V1, ZERO, 2
9D00C8B8  24420E00   ADDIU V0, V0, 3584
9D00C8BC  AC430004   SW V1, 4(V0)
9D00C8C0  03E00008   JR RA
9D00C8C4  00000000   NOP
9D00C8D0  3C02BF80   LUI V0, -16512
9D00C8D4  24030002   ADDIU V1, ZERO, 2
9D00C8D8  24420A00   ADDIU V0, V0, 2560
9D00C8DC  AC430004   SW V1, 4(V0)
9D00C8E0  03E00008   JR RA
9D00C8E4  00000000   NOP
9D00C8F0  3C02BF80   LUI V0, -16512
9D00C8F4  24030002   ADDIU V1, ZERO, 2
9D00C8F8  24420800   ADDIU V0, V0, 2048
9D00C8FC  AC430004   SW V1, 4(V0)
9D00C900  03E00008   JR RA
9D00C904  00000000   NOP
9D00C910  3C02BF80   LUI V0, -16512
9D00C914  24030002   ADDIU V1, ZERO, 2
9D00C918  24420600   ADDIU V0, V0, 1536
9D00C91C  AC430004   SW V1, 4(V0)
9D00C920  03E00008   JR RA
9D00C924  00000000   NOP
9D00C930  3C02BF80   LUI V0, -16512
9D00C934  24030002   ADDIU V1, ZERO, 2
9D00C938  24420C00   ADDIU V0, V0, 3072
9D00C93C  AC430004   SW V1, 4(V0)
9D00C940  03E00008   JR RA
9D00C944  00000000   NOP
---  f:/isp_release/software/isp_root/framework/peripheral/tmr/processor/tmr_p32mx795f512l.h  -----------
00000000  00000000   NOP
0000007C  00000000   NOP
00000094  00000000   NOP
000000AC  00000000   NOP
00000064  00000000   NOP
00000000  00000000   NOP
0000007C  00000000   NOP
00000094  00000000   NOP
000000AC  00000000   NOP
00000064  00000000   NOP
00000000  00000000   NOP
00000004  00000000   NOP
00000008  00000000   NOP
00000060  00000000   NOP
00000000  00000000   NOP
00000004  00000000   NOP
00000008  00000000   NOP
00000060  00000000   NOP
00000000  00000000   NOP
00000004  00000000   NOP
00000008  00000000   NOP
00000060  00000000   NOP
00000000  00000000   NOP
00000004  00000000   NOP
00000008  00000000   NOP
00000060  00000000   NOP
00000000  00000000   NOP
00000004  00000000   NOP
00000008  00000000   NOP
00000060  00000000   NOP
00000000  00000000   NOP
00000004  00000000   NOP
00000008  00000000   NOP
00000060  00000000   NOP
00000000  00000000   NOP
00000004  00000000   NOP
00000008  00000000   NOP
00000020  00000000   NOP
00000010  00000000   NOP
00000000  00000000   NOP
00000004  00000000   NOP
00000008  00000000   NOP
00000020  00000000   NOP
00000010  00000000   NOP
00000000  00000000   NOP
00000004  00000000   NOP
00000008  00000000   NOP
00000060  00000000   NOP
00000000  00000000   NOP
9D00C86C  2C820005   SLTIU V0, A0, 5
9D00C870  1040005B   BEQ V0, ZERO, 0x9D00C9E0
9D00C874  00000000   NOP
9D00C878  3C029D01   LUI V0, -25343
9D00C87C  2442C894   ADDIU V0, V0, -14188
9D00C880  00042080   SLL A0, A0, 2
9D00C884  00442021   ADDU A0, V0, A0
9D00C888  8C820000   LW V0, 0(A0)
9D00C88C  00400008   JR V0
9D00C890  00000000   NOP
00000000  00000000   NOP
00000004  00000000   NOP
00000008  00000000   NOP
00000060  00000000   NOP
00000000  00000000   NOP
00000004  00000000   NOP
00000008  00000000   NOP
00000060  00000000   NOP
00000000  00000000   NOP
9D00C6CC  27BDFFE8   ADDIU SP, SP, -24
9D00C6D0  2C820005   SLTIU V0, A0, 5
9D00C6D4  10400019   BEQ V0, ZERO, 0x9D00C73C
9D00C6D8  AFBF0014   SW RA, 20(SP)
9D00C6DC  3C029D01   LUI V0, -25343
9D00C6E0  2442C6F8   ADDIU V0, V0, -14600
9D00C6E4  00042080   SLL A0, A0, 2
9D00C6E8  00442021   ADDU A0, V0, A0
9D00C6EC  8C820000   LW V0, 0(A0)
9D00C6F0  00400008   JR V0
9D00C6F4  00000000   NOP
9D00C73C  8FBF0014   LW RA, 20(SP)
9D00C740  03E00008   JR RA
9D00C744  27BD0018   ADDIU SP, SP, 24
9D00C768  0B4031D0   J 0x9D00C740
9D00C76C  8FBF0014   LW RA, 20(SP)
9D00C790  0B4031D0   J 0x9D00C740
9D00C794  8FBF0014   LW RA, 20(SP)
9D00C7B8  0B4031D0   J 0x9D00C740
9D00C7BC  8FBF0014   LW RA, 20(SP)
9D00C7E0  0B4031D0   J 0x9D00C740
9D00C7E4  8FBF0014   LW RA, 20(SP)
9D00C824  0B4031D0   J 0x9D00C740
9D00C828  8FBF0014   LW RA, 20(SP)
9D00C844  0B4031D0   J 0x9D00C740
9D00C848  8FBF0014   LW RA, 20(SP)
9D00C864  0B4031D0   J 0x9D00C740
9D00C868  8FBF0014   LW RA, 20(SP)
00000000  00000000   NOP
00000014  00000000   NOP
00000060  00000000   NOP
00000088  00000000   NOP
00000090  00000000   NOP
00000040  00000000   NOP
000000A0  00000000   NOP
00000048  00000000   NOP
00000058  00000000   NOP
0000000C  00000000   NOP
00000000  00000000   NOP
00000004  00000000   NOP
00000008  00000000   NOP
00000070  00000000   NOP
00000000  00000000   NOP
00000004  00000000   NOP
00000008  00000000   NOP
00000070  00000000   NOP
00000000  00000000   NOP
00000004  00000000   NOP
00000008  00000000   NOP
00000060  00000000   NOP
00000000  00000000   NOP
9D00D46C  27BDFFE8   ADDIU SP, SP, -24
9D00D470  2C820005   SLTIU V0, A0, 5
9D00D474  10400019   BEQ V0, ZERO, 0x9D00D4DC
9D00D478  AFBF0014   SW RA, 20(SP)
9D00D47C  3C029D01   LUI V0, -25343
9D00D480  2442D498   ADDIU V0, V0, -11112
9D00D484  00042080   SLL A0, A0, 2
9D00D488  00442021   ADDU A0, V0, A0
9D00D48C  8C820000   LW V0, 0(A0)
9D00D490  00400008   JR V0
9D00D494  00000000   NOP
9D00D4DC  8FBF0014   LW RA, 20(SP)
9D00D4E0  03E00008   JR RA
9D00D4E4  27BD0018   ADDIU SP, SP, 24
9D00D4EC  8FBF0014   LW RA, 20(SP)
9D00D4FC  03E00008   JR RA
9D00D500  27BD0018   ADDIU SP, SP, 24
00000000  00000000   NOP
00000004  00000000   NOP
00000008  00000000   NOP
00000070  00000000   NOP
00000080  00000000   NOP
00000090  00000000   NOP
00000000  00000000   NOP
9D00D250  2C820005   SLTIU V0, A0, 5
9D00D254  10400029   BEQ V0, ZERO, 0x9D00D2FC
9D00D258  00000000   NOP
9D00D25C  3C029D01   LUI V0, -25343
9D00D260  2442D278   ADDIU V0, V0, -11656
9D00D264  00042080   SLL A0, A0, 2
9D00D268  00442021   ADDU A0, V0, A0
9D00D26C  8C820000   LW V0, 0(A0)
9D00D270  00400008   JR V0
9D00D274  00000000   NOP
9D00D2CC  03E00008   JR RA
9D00D2D0  00000000   NOP
9D00D2E4  03E00008   JR RA
9D00D2E8  00000000   NOP
9D00D2FC  03E00008   JR RA
9D00D300  00000000   NOP
9D00D2B4  03E00008   JR RA
9D00D2B8  00000000   NOP
9D00D304  2C820005   SLTIU V0, A0, 5
9D00D308  10400029   BEQ V0, ZERO, 0x9D00D3B0
9D00D30C  00000000   NOP
9D00D310  3C029D01   LUI V0, -25343
9D00D314  2442D32C   ADDIU V0, V0, -11476
9D00D318  00042080   SLL A0, A0, 2
9D00D31C  00442021   ADDU A0, V0, A0
9D00D320  8C820000   LW V0, 0(A0)
9D00D324  00400008   JR V0
9D00D328  00000000   NOP
9D00D380  03E00008   JR RA
9D00D384  00000000   NOP
9D00D398  03E00008   JR RA
9D00D39C  00000000   NOP
9D00D3B0  03E00008   JR RA
9D00D3B4  00000000   NOP
9D00D368  03E00008   JR RA
9D00D36C  00000000   NOP
00000000  00000000   NOP
00000004  00000000   NOP
00000008  00000000   NOP
00000060  00000000   NOP
00000000  00000000   NOP
00000004  00000000   NOP
00000008  00000000   NOP
00000020  00000000   NOP
00000010  00000000   NOP
00000000  00000000   NOP
00000004  00000000   NOP
00000008  00000000   NOP
00000020  00000000   NOP
00000010  00000000   NOP
00000000  00000000   NOP
00000004  00000000   NOP
00000008  00000000   NOP
00000060  00000000   NOP
00000000  00000000   NOP
00000004  00000000   NOP
00000008  00000000   NOP
00000020  00000000   NOP
00000010  00000000   NOP
00000000  00000000   NOP
00000004  00000000   NOP
00000008  00000000   NOP
00000060  00000000   NOP
00000000  00000000   NOP
00000004  00000000   NOP
00000008  00000000   NOP
00000060  00000000   NOP
00000000  00000000   NOP
0000007C  00000000   NOP
00000094  00000000   NOP
000000AC  00000000   NOP
00000064  00000000   NOP
00000000  00000000   NOP
0000007C  00000000   NOP
00000094  00000000   NOP
000000AC  00000000   NOP
00000064  00000000   NOP
00000000  00000000   NOP
00000004  00000000   NOP
00000008  00000000   NOP
00000060  00000000   NOP
00000000  00000000   NOP
00000004  00000000   NOP
00000008  00000000   NOP
00000060  00000000   NOP
00000000  00000000   NOP
00000004  00000000   NOP
00000008  00000000   NOP
00000060  00000000   NOP
00000000  00000000   NOP
00000004  00000000   NOP
00000008  00000000   NOP
00000060  00000000   NOP
00000000  00000000   NOP
00000004  00000000   NOP
00000008  00000000   NOP
00000060  00000000   NOP
00000000  00000000   NOP
00000004  00000000   NOP
00000008  00000000   NOP
00000060  00000000   NOP
00000000  00000000   NOP
00000004  00000000   NOP
00000008  00000000   NOP
00000060  00000000   NOP
00000000  00000000   NOP
00000004  00000000   NOP
00000008  00000000   NOP
00000060  00000000   NOP
00000000  00000000   NOP
00000004  00000000   NOP
00000008  00000000   NOP
00000020  00000000   NOP
00000010  00000000   NOP
00000000  00000000   NOP
00000004  00000000   NOP
00000008  00000000   NOP
00000060  00000000   NOP
00000000  00000000   NOP
00000014  00000000   NOP
00000060  00000000   NOP
00000068  00000000   NOP
00000078  00000000   NOP
00000040  00000000   NOP
00000088  00000000   NOP
00000048  00000000   NOP
00000058  00000000   NOP
0000000C  00000000   NOP
9D00D598  2C820005   SLTIU V0, A0, 5
9D00D59C  1040001F   BEQ V0, ZERO, 0x9D00D61C
9D00D5A0  00000000   NOP
9D00D5A4  3C029D01   LUI V0, -25343
9D00D5A8  2442D5C0   ADDIU V0, V0, -10816
9D00D5AC  00042080   SLL A0, A0, 2
9D00D5B0  00442021   ADDU A0, V0, A0
9D00D5B4  8C820000   LW V0, 0(A0)
9D00D5B8  00400008   JR V0
9D00D5BC  00000000   NOP
9D00D5F4  3C02BF80   LUI V0, -16512
9D00D5FC  03E00008   JR RA
9D00D600  00000000   NOP
9D00D604  3C02BF80   LUI V0, -16512
9D00D60C  03E00008   JR RA
9D00D610  00000000   NOP
9D00D614  3C02BF80   LUI V0, -16512
9D00D5E4  3C02BF80   LUI V0, -16512
9D00D61C  03E00008   JR RA
9D00D620  00000000   NOP
9D00D5D4  3C02BF80   LUI V0, -16512
9D00D5EC  03E00008   JR RA
9D00D5F0  00000000   NOP
00000000  00000000   NOP
00000004  00000000   NOP
00000008  00000000   NOP
00000024  00000000   NOP
0000005C  00000000   NOP
00000064  00000000   NOP
0000006C  00000000   NOP
00000070  00000000   NOP
00000088  00000000   NOP
00000090  00000000   NOP
00000098  00000000   NOP
000000C0  00000000   NOP
000000E8  00000000   NOP
00000000  00000000   NOP
00000004  00000000   NOP
00000008  00000000   NOP
00000070  00000000   NOP
00000024  00000000   NOP
00000028  00000000   NOP
0000005C  00000000   NOP
00000068  00000000   NOP
00000080  00000000   NOP
0000008C  00000000   NOP
00000000  00000000   NOP
00000004  00000000   NOP
00000008  00000000   NOP
00000024  00000000   NOP
00000034  00000000   NOP
00000060  00000000   NOP
0000006C  00000000   NOP
00000074  00000000   NOP
00000000  00000000   NOP
00000004  00000000   NOP
00000008  00000000   NOP
00000060  00000000   NOP
00000000  00000000   NOP
00000004  00000000   NOP
00000008  00000000   NOP
00000020  00000000   NOP
00000010  00000000   NOP
00000000  00000000   NOP
9D00CB44  2C820005   SLTIU V0, A0, 5
9D00CB48  10400014   BEQ V0, ZERO, 0x9D00CB9C
9D00CB4C  30A5FFFF   ANDI A1, A1, -1
9D00CB50  3C029D01   LUI V0, -25343
9D00CB54  2442CB6C   ADDIU V0, V0, -13460
9D00CB58  00042080   SLL A0, A0, 2
9D00CB5C  00442021   ADDU A0, V0, A0
9D00CB60  8C820000   LW V0, 0(A0)
9D00CB64  00400008   JR V0
9D00CB68  00000000   NOP
00000000  00000000   NOP
00000014  00000000   NOP
00000060  00000000   NOP
00000068  00000000   NOP
00000078  00000000   NOP
00000040  00000000   NOP
00000088  00000000   NOP
00000048  00000000   NOP
00000058  00000000   NOP
0000000C  00000000   NOP
00000000  00000000   NOP
00000004  00000000   NOP
00000008  00000000   NOP
00000024  00000000   NOP
00000070  00000000   NOP
000000A0  00000000   NOP
000000BC  00000000   NOP
000000D8  00000000   NOP
00000000  00000000   NOP
00000004  00000000   NOP
00000008  00000000   NOP
00000070  00000000   NOP
00000024  00000000   NOP
00000028  00000000   NOP
0000005C  00000000   NOP
00000068  00000000   NOP
00000080  00000000   NOP
0000008C  00000000   NOP
00000000  00000000   NOP
00000004  00000000   NOP
00000008  00000000   NOP
00000070  00000000   NOP
00000000  00000000   NOP
00000004  00000000   NOP
00000008  00000000   NOP
00000070  00000000   NOP
00000000  00000000   NOP
00000004  00000000   NOP
00000008  00000000   NOP
00000020  00000000   NOP
00000070  00000000   NOP
00000014  00000000   NOP
00000010  00000000   NOP
00000018  00000000   NOP
00000078  00000000   NOP
00000080  00000000   NOP
00000000  00000000   NOP
00000004  00000000   NOP
00000008  00000000   NOP
00000020  00000000   NOP
00000010  00000000   NOP
00000000  00000000   NOP
00000040  00000000   NOP
00000000  00000000   NOP
00000014  00000000   NOP
0000000C  00000000   NOP
00000000  00000000   NOP
00000000  00000000   NOP
---  f:/isp_release/software/isp_root/framework/peripheral/spi/templates/spi_transmitunderrunstatus_default.h
00000034  00000000   NOP
00000040  00000000   NOP
0000004C  00000000   NOP
00000058  00000000   NOP
---  f:/isp_release/software/isp_root/framework/peripheral/spi/templates/spi_transmitbufferfullstatus_default.h
00000034  00000000   NOP
00000040  00000000   NOP
0000004C  00000000   NOP
00000058  00000000   NOP
---  f:/isp_release/software/isp_root/framework/peripheral/spi/templates/spi_transmitbufferemptystatus_default.h
00000034  00000000   NOP
00000040  00000000   NOP
0000004C  00000000   NOP
00000058  00000000   NOP
---  f:/isp_release/software/isp_root/framework/peripheral/spi/templates/spi_stopinidle_default.h  ------
00000030  00000000   NOP
00000044  00000000   NOP
0000006C  00000000   NOP
00000030  00000000   NOP
00000044  00000000   NOP
0000006C  00000000   NOP
---  f:/isp_release/software/isp_root/framework/peripheral/spi/templates/spi_slaveselectcontrol_default.h
00000030  00000000   NOP
00000044  00000000   NOP
0000006C  00000000   NOP
00000030  00000000   NOP
00000044  00000000   NOP
0000006C  00000000   NOP
---  f:/isp_release/software/isp_root/framework/peripheral/spi/templates/spi_secondaryprescale_unsupported.h
00000034  00000000   NOP
00000034  00000000   NOP
00000040  00000000   NOP
0000004C  00000000   NOP
00000058  00000000   NOP
00000030  00000000   NOP
00000044  00000000   NOP
0000006C  00000000   NOP
---  f:/isp_release/software/isp_root/framework/peripheral/spi/templates/spi_receivefifostatus_default.h  
00000034  00000000   NOP
00000040  00000000   NOP
0000004C  00000000   NOP
00000058  00000000   NOP
---  f:/isp_release/software/isp_root/framework/peripheral/spi/templates/spi_receivebufferstatus_default.h
00000034  00000000   NOP
00000040  00000000   NOP
0000004C  00000000   NOP
00000058  00000000   NOP
---  f:/isp_release/software/isp_root/framework/peripheral/spi/templates/spi_readdatasignstatus_unsupported.h
00000038  00000000   NOP
---  f:/isp_release/software/isp_root/framework/peripheral/spi/templates/spi_primaryprescale_unsupported.h
00000034  00000000   NOP
---  f:/isp_release/software/isp_root/framework/peripheral/spi/templates/spi_pincontrol_pic32_1.h  ------
0000002C  00000000   NOP
00000048  00000000   NOP
00000064  00000000   NOP
00000080  00000000   NOP
0000009C  00000000   NOP
000000BC  00000000   NOP
000000DC  00000000   NOP
000000FC  00000000   NOP
00000034  00000000   NOP
00000050  00000000   NOP
0000006C  00000000   NOP
00000088  00000000   NOP
000000A4  00000000   NOP
000000C4  00000000   NOP
000000E4  00000000   NOP
00000104  00000000   NOP
0000002C  00000000   NOP
00000048  00000000   NOP
00000064  00000000   NOP
00000080  00000000   NOP
0000009C  00000000   NOP
000000BC  00000000   NOP
000000DC  00000000   NOP
000000FC  00000000   NOP
00000034  00000000   NOP
00000050  00000000   NOP
0000006C  00000000   NOP
00000088  00000000   NOP
000000A4  00000000   NOP
000000C4  00000000   NOP
000000E4  00000000   NOP
000000E8  00000000   NOP
00000104  00000000   NOP
---  f:/isp_release/software/isp_root/framework/peripheral/spi/templates/spi_outputdataphase_default.h  -
0000002C  00000000   NOP
00000048  00000000   NOP
00000064  00000000   NOP
00000080  00000000   NOP
0000009C  00000000   NOP
000000BC  00000000   NOP
000000DC  00000000   NOP
000000FC  00000000   NOP
000000A4  00000000   NOP
000000C4  00000000   NOP
000000E4  00000000   NOP
00000104  00000000   NOP
00000034  00000000   NOP
00000050  00000000   NOP
0000006C  00000000   NOP
00000088  00000000   NOP
---  f:/isp_release/software/isp_root/framework/peripheral/spi/templates/spi_mastercontrol_default.h  ---
00000030  00000000   NOP
00000044  00000000   NOP
0000006C  00000000   NOP
00000030  00000000   NOP
00000044  00000000   NOP
0000006C  00000000   NOP
---  f:/isp_release/software/isp_root/framework/peripheral/spi/templates/spi_inputsamplephase_default.h  
0000002C  00000000   NOP
00000048  00000000   NOP
00000064  00000000   NOP
00000080  00000000   NOP
0000009C  00000000   NOP
000000BC  00000000   NOP
000000DC  00000000   NOP
000000FC  00000000   NOP
000000A4  00000000   NOP
000000C4  00000000   NOP
000000E4  00000000   NOP
00000104  00000000   NOP
00000034  00000000   NOP
00000050  00000000   NOP
0000006C  00000000   NOP
00000088  00000000   NOP
---  f:/isp_release/software/isp_root/framework/peripheral/spi/templates/spi_framesyncpulsewidth_default.h
0000002C  00000000   NOP
00000048  00000000   NOP
00000064  00000000   NOP
00000080  00000000   NOP
0000009C  00000000   NOP
000000BC  00000000   NOP
000000DC  00000000   NOP
000000FC  00000000   NOP
000000A4  00000000   NOP
000000C4  00000000   NOP
000000E4  00000000   NOP
00000104  00000000   NOP
00000034  00000000   NOP
00000050  00000000   NOP
00000054  00000000   NOP
00000058  00000000   NOP
0000005C  00000000   NOP
0000006C  00000000   NOP
00000088  00000000   NOP
---  f:/isp_release/software/isp_root/framework/peripheral/spi/templates/spi_framesyncpulsepolarity_default.h
0000002C  00000000   NOP
00000048  00000000   NOP
00000064  00000000   NOP
00000080  00000000   NOP
0000009C  00000000   NOP
000000BC  00000000   NOP
000000DC  00000000   NOP
000000FC  00000000   NOP
000000A4  00000000   NOP
000000A8  00000000   NOP
000000C4  00000000   NOP
000000E4  00000000   NOP
00000104  00000000   NOP
00000034  00000000   NOP
00000050  00000000   NOP
0000006C  00000000   NOP
00000088  00000000   NOP
---  f:/isp_release/software/isp_root/framework/peripheral/spi/templates/spi_framesyncpulseedge_default.h
0000002C  00000000   NOP
00000048  00000000   NOP
00000064  00000000   NOP
00000080  00000000   NOP
0000009C  00000000   NOP
000000BC  00000000   NOP
000000DC  00000000   NOP
000000FC  00000000   NOP
00000100  00000000   NOP
000000A4  00000000   NOP
000000C4  00000000   NOP
000000E4  00000000   NOP
00000104  00000000   NOP
00000034  00000000   NOP
00000050  00000000   NOP
0000006C  00000000   NOP
00000088  00000000   NOP
---  f:/isp_release/software/isp_root/framework/peripheral/spi/templates/spi_framesyncpulsedirection_default.h
0000002C  00000000   NOP
00000048  00000000   NOP
00000064  00000000   NOP
00000080  00000000   NOP
0000009C  00000000   NOP
000000BC  00000000   NOP
000000DC  00000000   NOP
000000FC  00000000   NOP
000000A4  00000000   NOP
000000A8  00000000   NOP
000000C4  00000000   NOP
000000E4  00000000   NOP
000000E8  00000000   NOP
000000EC  00000000   NOP
000000F0  00000000   NOP
00000104  00000000   NOP
00000034  00000000   NOP
00000050  00000000   NOP
0000006C  00000000   NOP
00000088  00000000   NOP
---  f:/isp_release/software/isp_root/framework/peripheral/spi/templates/spi_framesyncpulsecounter_pic32.h
00000030  00000000   NOP
0000005C  00000000   NOP
000000B8  00000000   NOP
---  f:/isp_release/software/isp_root/framework/peripheral/spi/templates/spi_frameerrorstatus_unsupported.h
00000038  00000000   NOP
---  f:/isp_release/software/isp_root/framework/peripheral/spi/templates/spi_framedcommunication_default.h
00000030  00000000   NOP
00000044  00000000   NOP
0000006C  00000000   NOP
00000030  00000000   NOP
00000044  00000000   NOP
0000006C  00000000   NOP
---  f:/isp_release/software/isp_root/framework/peripheral/spi/templates/spi_fifoshiftregisteremptystatus_default.h
00000034  00000000   NOP
00000040  00000000   NOP
0000004C  00000000   NOP
00000058  00000000   NOP
---  f:/isp_release/software/isp_root/framework/peripheral/spi/templates/spi_fifointerruptmode_pic32.h  -
00000030  00000000   NOP
000001F8  00000000   NOP
000002E0  00000000   NOP
000003C8  00000000   NOP
000003CC  00000000   NOP
000004B0  00000000   NOP
000001D8  00000000   NOP
000001FC  00000000   NOP
000002C0  00000000   NOP
000002E4  00000000   NOP
000002E8  00000000   NOP
000002EC  00000000   NOP
000002F0  00000000   NOP
000002F4  00000000   NOP
000002F8  00000000   NOP
000003A8  00000000   NOP
000003CC  00000000   NOP
000003D0  00000000   NOP
000003D4  00000000   NOP
000003D8  00000000   NOP
000003DC  00000000   NOP
000003E0  00000000   NOP
000003E4  00000000   NOP
00000490  00000000   NOP
000004B4  00000000   NOP
000004B8  00000000   NOP
000004BC  00000000   NOP
000004C0  00000000   NOP
000004C4  00000000   NOP
000001B8  00000000   NOP
000001DC  00000000   NOP
000002A0  00000000   NOP
000002A4  00000000   NOP
000002A8  00000000   NOP
000002C4  00000000   NOP
000002C8  00000000   NOP
00000388  00000000   NOP
000003AC  00000000   NOP
000003B0  00000000   NOP
000003B4  00000000   NOP
000003B8  00000000   NOP
000003BC  00000000   NOP
000003C0  00000000   NOP
000003C4  00000000   NOP
000003C8  00000000   NOP
00000470  00000000   NOP
00000494  00000000   NOP
00000498  00000000   NOP
0000049C  00000000   NOP
000004A0  00000000   NOP
000004A4  00000000   NOP
000004A8  00000000   NOP
000004AC  00000000   NOP
0000019C  00000000   NOP
000001BC  00000000   NOP
00000284  00000000   NOP
000002A4  00000000   NOP
000002A8  00000000   NOP
000002AC  00000000   NOP
0000036C  00000000   NOP
0000038C  00000000   NOP
00000390  00000000   NOP
00000394  00000000   NOP
00000398  00000000   NOP
0000039C  00000000   NOP
000003A0  00000000   NOP
000003A4  00000000   NOP
00000454  00000000   NOP
00000474  00000000   NOP
00000478  00000000   NOP
0000047C  00000000   NOP
00000480  00000000   NOP
00000484  00000000   NOP
00000488  00000000   NOP
0000048C  00000000   NOP
00000184  00000000   NOP
000001A0  00000000   NOP
0000026C  00000000   NOP
00000270  00000000   NOP
00000274  00000000   NOP
00000288  00000000   NOP
00000354  00000000   NOP
00000370  00000000   NOP
00000374  00000000   NOP
00000378  00000000   NOP
0000037C  00000000   NOP
00000380  00000000   NOP
00000384  00000000   NOP
0000043C  00000000   NOP
00000458  00000000   NOP
0000045C  00000000   NOP
00000460  00000000   NOP
00000464  00000000   NOP
00000468  00000000   NOP
0000046C  00000000   NOP
00000164  00000000   NOP
00000188  00000000   NOP
0000024C  00000000   NOP
00000250  00000000   NOP
00000270  00000000   NOP
00000334  00000000   NOP
00000358  00000000   NOP
0000035C  00000000   NOP
00000360  00000000   NOP
00000364  00000000   NOP
00000368  00000000   NOP
0000041C  00000000   NOP
00000420  00000000   NOP
00000440  00000000   NOP
00000444  00000000   NOP
00000448  00000000   NOP
0000044C  00000000   NOP
00000450  00000000   NOP
00000144  00000000   NOP
00000148  00000000   NOP
00000168  00000000   NOP
0000022C  00000000   NOP
00000250  00000000   NOP
00000314  00000000   NOP
00000338  00000000   NOP
0000033C  00000000   NOP
00000340  00000000   NOP
00000344  00000000   NOP
00000348  00000000   NOP
0000034C  00000000   NOP
00000350  00000000   NOP
000003FC  00000000   NOP
00000400  00000000   NOP
00000420  00000000   NOP
00000424  00000000   NOP
00000428  00000000   NOP
0000042C  00000000   NOP
00000430  00000000   NOP
00000434  00000000   NOP
00000438  00000000   NOP
00000148  00000000   NOP
0000014C  00000000   NOP
00000210  00000000   NOP
00000214  00000000   NOP
00000230  00000000   NOP
00000234  00000000   NOP
000002F8  00000000   NOP
000002FC  00000000   NOP
00000318  00000000   NOP
0000031C  00000000   NOP
00000320  00000000   NOP
00000324  00000000   NOP
00000328  00000000   NOP
0000032C  00000000   NOP
00000330  00000000   NOP
00000334  00000000   NOP
000003E0  00000000   NOP
00000400  00000000   NOP
00000404  00000000   NOP
00000408  00000000   NOP
0000040C  00000000   NOP
00000410  00000000   NOP
00000414  00000000   NOP
00000418  00000000   NOP
000004C8  00000000   NOP
00000214  00000000   NOP
000002FC  00000000   NOP
00000300  00000000   NOP
00000304  00000000   NOP
00000308  00000000   NOP
0000030C  00000000   NOP
00000310  00000000   NOP
00000314  00000000   NOP
000003E4  00000000   NOP
000003E8  00000000   NOP
000003EC  00000000   NOP
000003F0  00000000   NOP
000003F4  00000000   NOP
000003F8  00000000   NOP
000003FC  00000000   NOP
000004CC  00000000   NOP
000004D0  00000000   NOP
000004D4  00000000   NOP
000004D8  00000000   NOP
000004DC  00000000   NOP
000004E0  00000000   NOP
---  f:/isp_release/software/isp_root/framework/peripheral/spi/templates/spi_fifocount_pic32.h  ---------
00000030  00000000   NOP
00000048  00000000   NOP
0000006C  00000000   NOP
00000090  00000000   NOP
000000B4  00000000   NOP
0000003C  00000000   NOP
00000058  00000000   NOP
0000007C  00000000   NOP
000000A0  00000000   NOP
000000BC  00000000   NOP
000000CC  00000000   NOP
0000005C  00000000   NOP
00000080  00000000   NOP
000000A4  00000000   NOP
000000C0  00000000   NOP
---  f:/isp_release/software/isp_root/framework/peripheral/spi/templates/spi_fifocontrol_default.h  -----
00000030  00000000   NOP
00000044  00000000   NOP
0000006C  00000000   NOP
00000030  00000000   NOP
00000044  00000000   NOP
0000006C  00000000   NOP
---  f:/isp_release/software/isp_root/framework/peripheral/spi/templates/spi_errorinterruptcontrol_unsupported.h
00000034  00000000   NOP
---  f:/isp_release/software/isp_root/framework/peripheral/spi/templates/spi_enablecontrol_default.h  ---
00000030  00000000   NOP
00000044  00000000   NOP
0000006C  00000000   NOP
00000030  00000000   NOP
00000044  00000000   NOP
0000006C  00000000   NOP
---  f:/isp_release/software/isp_root/framework/peripheral/spi/templates/spi_communicationwidth_pic32.h  
0000002C  00000000   NOP
0000005C  00000000   NOP
00000084  00000000   NOP
000000B4  00000000   NOP
0000014C  00000000   NOP
0000016C  00000000   NOP
00000170  00000000   NOP
00000174  00000000   NOP
0000018C  00000000   NOP
000001AC  00000000   NOP
00000154  00000000   NOP
00000174  00000000   NOP
00000194  00000000   NOP
00000198  00000000   NOP
0000019C  00000000   NOP
000001A0  00000000   NOP
000001A4  00000000   NOP
000001B4  00000000   NOP
000001B8  00000000   NOP
000000DC  00000000   NOP
000000F8  00000000   NOP
00000114  00000000   NOP
00000130  00000000   NOP
000000E8  00000000   NOP
00000104  00000000   NOP
00000120  00000000   NOP
0000013C  00000000   NOP
0000003C  00000000   NOP
0000006C  00000000   NOP
00000094  00000000   NOP
000000C4  00000000   NOP
0000004C  00000000   NOP
00000074  00000000   NOP
000000A4  00000000   NOP
000000CC  00000000   NOP
---  f:/isp_release/software/isp_root/framework/peripheral/spi/templates/spi_clockpolarity_default.h  ---
0000002C  00000000   NOP
00000048  00000000   NOP
00000064  00000000   NOP
00000080  00000000   NOP
0000009C  00000000   NOP
000000BC  00000000   NOP
000000DC  00000000   NOP
000000FC  00000000   NOP
000000A4  00000000   NOP
000000C4  00000000   NOP
000000E4  00000000   NOP
000000E8  00000000   NOP
00000104  00000000   NOP
00000034  00000000   NOP
00000050  00000000   NOP
0000006C  00000000   NOP
00000088  00000000   NOP
---  f:/isp_release/software/isp_root/framework/peripheral/spi/templates/spi_busstatus_default.h  -------
00000034  00000000   NOP
00000040  00000000   NOP
0000004C  00000000   NOP
00000058  00000000   NOP
---  f:/isp_release/software/isp_root/framework/peripheral/spi/templates/spi_buffer_default.h  ----------
00000030  00000000   NOP
00000044  00000000   NOP
0000006C  00000000   NOP
00000034  00000000   NOP
00000040  00000000   NOP
0000004C  00000000   NOP
00000058  00000000   NOP
00000030  00000000   NOP
0000003C  00000000   NOP
0000004C  00000000   NOP
0000005C  00000000   NOP
---  f:/isp_release/software/isp_root/framework/peripheral/spi/templates/spi_baudrateclock_unsupported.h  
00000034  00000000   NOP
---  f:/isp_release/software/isp_root/framework/peripheral/spi/templates/spi_baudrate_default.h  --------
00000030  00000000   NOP
0000003C  00000000   NOP
00000054  00000000   NOP
00000060  00000000   NOP
00000078  00000000   NOP
00000084  00000000   NOP
0000009C  00000000   NOP
000000AC  00000000   NOP
00000038  00000000   NOP
00000048  00000000   NOP
0000005C  00000000   NOP
0000006C  00000000   NOP
00000080  00000000   NOP
00000090  00000000   NOP
000000A8  00000000   NOP
000000B8  00000000   NOP
---  f:/isp_release/software/isp_root/framework/peripheral/spi/templates/spi_audiotransmitmode_unsupported.h
00000034  00000000   NOP
00000034  00000000   NOP
00000034  00000000   NOP
00000034  00000000   NOP
00000034  00000000   NOP
---  f:/isp_release/software/isp_root/framework/peripheral/spi/processor/spi_p32mx795f512l.h  -----------
00000000  00000000   NOP
0000003C  00000000   NOP
00000064  00000000   NOP
0000007C  00000000   NOP
00000000  00000000   NOP
0000003C  00000000   NOP
00000064  00000000   NOP
0000007C  00000000   NOP
00000000  00000000   NOP
0000003C  00000000   NOP
00000064  00000000   NOP
0000007C  00000000   NOP
00000000  00000000   NOP
0000003C  00000000   NOP
00000064  00000000   NOP
0000007C  00000000   NOP
00000000  00000000   NOP
00000038  00000000   NOP
00000050  00000000   NOP
0000005C  00000000   NOP
00000044  00000000   NOP
0000002C  00000000   NOP
00000000  00000000   NOP
0000003C  00000000   NOP
00000064  00000000   NOP
0000007C  00000000   NOP
00000000  00000000   NOP
00000038  00000000   NOP
00000050  00000000   NOP
0000005C  00000000   NOP
00000044  00000000   NOP
0000002C  00000000   NOP
00000000  00000000   NOP
00000038  00000000   NOP
00000050  00000000   NOP
0000005C  00000000   NOP
00000044  00000000   NOP
0000002C  00000000   NOP
00000000  00000000   NOP
00000038  00000000   NOP
00000050  00000000   NOP
0000005C  00000000   NOP
00000044  00000000   NOP
0000002C  00000000   NOP
00000000  00000000   NOP
00000004  00000000   NOP
00000008  00000000   NOP
0000002C  00000000   NOP
00000000  00000000   NOP
0000003C  00000000   NOP
00000064  00000000   NOP
0000007C  00000000   NOP
00000000  00000000   NOP
0000003C  00000000   NOP
00000064  00000000   NOP
0000007C  00000000   NOP
00000000  00000000   NOP
00000004  00000000   NOP
00000008  00000000   NOP
0000002C  00000000   NOP
00000000  00000000   NOP
00000004  00000000   NOP
00000008  00000000   NOP
0000002C  00000000   NOP
00000000  00000000   NOP
0000004C  00000000   NOP
00000094  00000000   NOP
000000BC  00000000   NOP
00000000  00000000   NOP
00000038  00000000   NOP
00000050  00000000   NOP
0000005C  00000000   NOP
00000044  00000000   NOP
0000002C  00000000   NOP
00000000  00000000   NOP
00000004  00000000   NOP
00000008  00000000   NOP
0000002C  00000000   NOP
00000000  00000000   NOP
0000003C  00000000   NOP
00000064  00000000   NOP
0000007C  00000000   NOP
00000000  00000000   NOP
0000003C  00000000   NOP
00000064  00000000   NOP
0000007C  00000000   NOP
00000000  00000000   NOP
00000038  00000000   NOP
00000050  00000000   NOP
0000005C  00000000   NOP
00000044  00000000   NOP
0000002C  00000000   NOP
00000000  00000000   NOP
0000003C  00000000   NOP
00000064  00000000   NOP
0000007C  00000000   NOP
00000000  00000000   NOP
0000003C  00000000   NOP
00000064  00000000   NOP
0000007C  00000000   NOP
00000000  00000000   NOP
00000088  00000000   NOP
000000AC  00000000   NOP
00000064  00000000   NOP
00000028  00000000   NOP
00000000  00000000   NOP
00000038  00000000   NOP
00000050  00000000   NOP
0000005C  00000000   NOP
00000044  00000000   NOP
0000002C  00000000   NOP
00000000  00000000   NOP
00000038  00000000   NOP
00000050  00000000   NOP
0000005C  00000000   NOP
00000044  00000000   NOP
0000002C  00000000   NOP
00000000  00000000   NOP
0000003C  00000000   NOP
00000064  00000000   NOP
0000007C  00000000   NOP
00000000  00000000   NOP
0000003C  00000000   NOP
00000064  00000000   NOP
0000007C  00000000   NOP
00000000  00000000   NOP
00000054  00000000   NOP
000000AC  00000000   NOP
000000DC  00000000   NOP
00000000  00000000   NOP
00000004  00000000   NOP
00000008  00000000   NOP
0000002C  00000000   NOP
00000000  00000000   NOP
0000003C  00000000   NOP
00000064  00000000   NOP
0000007C  00000000   NOP
00000000  00000000   NOP
00000038  00000000   NOP
00000050  00000000   NOP
0000005C  00000000   NOP
00000044  00000000   NOP
0000002C  00000000   NOP
00000000  00000000   NOP
00000034  00000000   NOP
00000048  00000000   NOP
00000050  00000000   NOP
00000060  00000000   NOP
00000000  00000000   NOP
00000004  00000000   NOP
00000008  00000000   NOP
0000002C  00000000   NOP
00000000  00000000   NOP
00000004  00000000   NOP
00000008  00000000   NOP
0000002C  00000000   NOP
00000000  00000000   NOP
00000004  00000000   NOP
00000008  00000000   NOP
0000002C  00000000   NOP
00000000  00000000   NOP
00000004  00000000   NOP
00000008  00000000   NOP
0000002C  00000000   NOP
00000000  00000000   NOP
00000004  00000000   NOP
00000008  00000000   NOP
0000002C  00000000   NOP
00000000  00000000   NOP
00000004  00000000   NOP
00000008  00000000   NOP
0000002C  00000000   NOP
00000000  00000000   NOP
00000004  00000000   NOP
00000008  00000000   NOP
0000002C  00000000   NOP
00000000  00000000   NOP
00000004  00000000   NOP
00000008  00000000   NOP
0000002C  00000000   NOP
00000000  00000000   NOP
00000004  00000000   NOP
00000008  00000000   NOP
0000002C  00000000   NOP
00000000  00000000   NOP
00000000  00000000   NOP
---  f:/isp_release/software/isp_root/framework/peripheral/rtcc/templates/rtcc_writeenable_default.h  ---
00000008  00000000   NOP
00000008  00000000   NOP
---  f:/isp_release/software/isp_root/framework/peripheral/rtcc/templates/rtcc_rtctime_default.h  -------
00000010  00000000   NOP
00000008  00000000   NOP
00000010  00000000   NOP
00000008  00000000   NOP
00000010  00000000   NOP
00000008  00000000   NOP
00000010  00000000   NOP
00000008  00000000   NOP
---  f:/isp_release/software/isp_root/framework/peripheral/rtcc/templates/rtcc_rtcdate_default.h  -------
00000010  00000000   NOP
00000008  00000000   NOP
00000010  00000000   NOP
00000008  00000000   NOP
00000010  00000000   NOP
00000008  00000000   NOP
00000010  00000000   NOP
00000008  00000000   NOP
00000010  00000000   NOP
00000008  00000000   NOP
00000008  00000000   NOP
00000008  00000000   NOP
---  f:/isp_release/software/isp_root/framework/peripheral/rtcc/templates/rtcc_halfsecond_default.h  ----
00000010  00000000   NOP
---  f:/isp_release/software/isp_root/framework/peripheral/rtcc/templates/rtcc_enablecontrol_default.h  -
00000008  00000000   NOP
---  f:/isp_release/software/isp_root/framework/peripheral/rtcc/templates/rtcc_clockselect_unsupported.h  
0000000C  00000000   NOP
---  f:/isp_release/software/isp_root/framework/peripheral/rtcc/templates/rtcc_clockrunning_default.h  --
00000010  00000000   NOP
00000010  00000000   NOP
00000008  00000000   NOP
---  f:/isp_release/software/isp_root/framework/peripheral/rtcc/templates/rtcc_alarmtime_default.h  -----
00000010  00000000   NOP
00000008  00000000   NOP
00000010  00000000   NOP
00000008  00000000   NOP
00000010  00000000   NOP
00000008  00000000   NOP
00000010  00000000   NOP
00000008  00000000   NOP
00000008  00000000   NOP
00000010  00000000   NOP
---  f:/isp_release/software/isp_root/framework/peripheral/rtcc/templates/rtcc_alarmpulseinitial_default.h
00000008  00000000   NOP
00000010  00000000   NOP
---  f:/isp_release/software/isp_root/framework/peripheral/rtcc/templates/rtcc_alarmmaskcontrol_default.h
00000008  00000000   NOP
---  f:/isp_release/software/isp_root/framework/peripheral/rtcc/templates/rtcc_alarmdate_default.h  -----
00000010  00000000   NOP
00000008  00000000   NOP
00000010  00000000   NOP
00000008  00000000   NOP
00000010  00000000   NOP
00000008  00000000   NOP
00000010  00000000   NOP
00000008  00000000   NOP
00000008  00000000   NOP
00000008  00000000   NOP
---  f:/isp_release/software/isp_root/framework/peripheral/rtcc/processor/rtcc_p32mx795f512l.h  ---------
00000000  00000000   NOP
00000004  00000000   NOP
0000002C  00000000   NOP
00000000  00000000   NOP
00000014  00000000   NOP
00000008  00000000   NOP
00000000  00000000   NOP
00000014  00000000   NOP
00000008  00000000   NOP
00000000  00000000   NOP
00000014  00000000   NOP
00000008  00000000   NOP
00000000  00000000   NOP
00000014  00000000   NOP
00000008  00000000   NOP
00000000  00000000   NOP
00000014  00000000   NOP
00000008  00000000   NOP
00000000  00000000   NOP
00000014  00000000   NOP
00000008  00000000   NOP
00000000  00000000   NOP
00000014  00000000   NOP
00000008  00000000   NOP
00000000  00000000   NOP
00000014  00000000   NOP
00000008  00000000   NOP
00000000  00000000   NOP
00000014  00000000   NOP
00000008  00000000   NOP
00000000  00000000   NOP
00000014  00000000   NOP
00000008  00000000   NOP
00000000  00000000   NOP
00000014  00000000   NOP
00000008  00000000   NOP
00000000  00000000   NOP
00000014  00000000   NOP
00000008  00000000   NOP
00000000  00000000   NOP
00000014  00000000   NOP
00000008  00000000   NOP
00000000  00000000   NOP
00000014  00000000   NOP
00000008  00000000   NOP
00000000  00000000   NOP
00000014  00000000   NOP
00000008  00000000   NOP
00000000  00000000   NOP
00000014  00000000   NOP
00000008  00000000   NOP
00000000  00000000   NOP
00000014  00000000   NOP
00000008  00000000   NOP
00000000  00000000   NOP
00000014  00000000   NOP
00000008  00000000   NOP
00000000  00000000   NOP
00000014  00000000   NOP
00000008  00000000   NOP
00000000  00000000   NOP
00000014  00000000   NOP
00000008  00000000   NOP
00000000  00000000   NOP
00000014  00000000   NOP
00000008  00000000   NOP
00000000  00000000   NOP
00000014  00000000   NOP
00000008  00000000   NOP
00000000  00000000   NOP
---  f:/isp_release/software/isp_root/framework/peripheral/reset/templates/reset_wdtoinsleep_unsupported.h
0000000C  00000000   NOP
0000000C  00000000   NOP
00000014  00000000   NOP
00000008  00000000   NOP
00000010  00000000   NOP
00000018  00000000   NOP
0000001C  00000000   NOP
00000028  00000000   NOP
00000034  00000000   NOP
0000003C  00000000   NOP
00000040  00000000   NOP
00000044  00000000   NOP
---  f:/isp_release/software/isp_root/framework/peripheral/reset/templates/reset_resetreasonstatus_mx.h  
00000010  00000000   NOP
00000008  00000000   NOP
---  f:/isp_release/software/isp_root/framework/peripheral/reset/templates/reset_nmicounter_unsupported.h
0000000C  00000000   NOP
0000000C  00000000   NOP
0000000C  00000000   NOP
---  f:/isp_release/software/isp_root/framework/peripheral/reset/processor/reset_p32mx795f512l.h  -------
00000000  00000000   NOP
00000018  00000000   NOP
00000008  00000000   NOP
00000000  00000000   NOP
00000004  00000000   NOP
0000002C  00000000   NOP
00000000  00000000   NOP
00000004  00000000   NOP
0000002C  00000000   NOP
00000000  00000000   NOP
00000004  00000000   NOP
0000002C  00000000   NOP
00000000  00000000   NOP
00000004  00000000   NOP
0000002C  00000000   NOP
00000000  00000000   NOP
00000004  00000000   NOP
0000002C  00000000   NOP
00000000  00000000   NOP
00000004  00000000   NOP
0000002C  00000000   NOP
00000000  00000000   NOP
00000004  00000000   NOP
0000002C  00000000   NOP
---  f:/isp_release/software/isp_root/framework/peripheral/power/templates/power_voltageregulatorcontrol_default.h
00000008  00000000   NOP
00000010  00000000   NOP
00000010  00000000   NOP
00000008  00000000   NOP
---  f:/isp_release/software/isp_root/framework/peripheral/power/templates/power_peripheralmodulecontrol_unsupported.h
0000000C  00000000   NOP
---  f:/isp_release/software/isp_root/framework/peripheral/power/templates/power_idlestatus_default.h  --
00000010  00000000   NOP
00000008  00000000   NOP
---  f:/isp_release/software/isp_root/framework/peripheral/power/templates/power_deepsleepporstatus_unsupported.h
0000000C  00000000   NOP
0000000C  00000000   NOP
0000000C  00000000   NOP
0000000C  00000000   NOP
0000000C  00000000   NOP
0000000C  00000000   NOP
---  f:/isp_release/software/isp_root/framework/peripheral/power/processor/power_p32mx795f512l.h  -------
00000000  00000000   NOP
00000004  00000000   NOP
0000002C  00000000   NOP
00000000  00000000   NOP
00000004  00000000   NOP
0000002C  00000000   NOP
00000000  00000000   NOP
00000004  00000000   NOP
0000002C  00000000   NOP
00000000  00000000   NOP
00000014  00000000   NOP
00000008  00000000   NOP
00000000  00000000   NOP
00000014  00000000   NOP
00000008  00000000   NOP
00000000  00000000   NOP
00000014  00000000   NOP
00000008  00000000   NOP
00000000  00000000   NOP
00000004  00000000   NOP
0000002C  00000000   NOP
00000000  00000000   NOP
00000004  00000000   NOP
0000002C  00000000   NOP
00000000  00000000   NOP
00000004  00000000   NOP
0000002C  00000000   NOP
00000000  00000000   NOP
00000004  00000000   NOP
0000002C  00000000   NOP
00000000  00000000   NOP
00000004  00000000   NOP
0000002C  00000000   NOP
00000000  00000000   NOP
00000004  00000000   NOP
0000002C  00000000   NOP
00000000  00000000   NOP
00000004  00000000   NOP
0000002C  00000000   NOP
00000000  00000000   NOP
00000004  00000000   NOP
0000002C  00000000   NOP
---  f:/isp_release/software/isp_root/framework/peripheral/ports/templates/ports_remapoutput_unsupported.h
0000000C  00000000   NOP
0000000C  00000000   NOP
---  f:/isp_release/software/isp_root/framework/peripheral/ports/templates/ports_portswrite_mcu32.h  ----
00000008  00000000   NOP
9D00D994  3C0203FF   LUI V0, 1023
9D00D998  3442FFFF   ORI V0, V0, -1
9D00D99C  00A21021   ADDU V0, A1, V0
9D00D9A0  00021180   SLL V0, V0, 6
9D00D9A4  3C05BF88   LUI A1, -16504
9D00D9A8  24420008   ADDIU V0, V0, 8
9D00D9AC  24A56060   ADDIU A1, A1, 24672
9D00D9B0  00A22821   ADDU A1, A1, V0
9D00D9B4  24020001   ADDIU V0, ZERO, 1
9D00D9B8  00C23004   SLLV A2, V0, A2
9D00D9BC  ACA60000   SW A2, 0(A1)
9D00D9C0  03E00008   JR RA
9D00D9C4  00000000   NOP
9D00D9D0  3C0203FF   LUI V0, 1023
9D00D9D4  3442FFFF   ORI V0, V0, -1
9D00D9D8  00A21021   ADDU V0, A1, V0
9D00D9DC  00021180   SLL V0, V0, 6
9D00D9E0  3C05BF88   LUI A1, -16504
9D00D9E4  24420004   ADDIU V0, V0, 4
9D00D9E8  24A56060   ADDIU A1, A1, 24672
9D00D9EC  00A22821   ADDU A1, A1, V0
9D00D9F0  24020001   ADDIU V0, ZERO, 1
9D00D9F4  00C23004   SLLV A2, V0, A2
9D00D9F8  ACA60000   SW A2, 0(A1)
9D00D9FC  03E00008   JR RA
9D00DA00  00000000   NOP
00000008  00000000   NOP
---  f:/isp_release/software/isp_root/framework/peripheral/ports/templates/ports_portsread_mcu32.h  -----
9D00D95C  3442FFFF   ORI V0, V0, -1
9D00D960  00A22821   ADDU A1, A1, V0
9D00D964  3C02BF88   LUI V0, -16504
9D00D968  24426050   ADDIU V0, V0, 24656
9D00D96C  00052980   SLL A1, A1, 6
9D00D970  00452821   ADDU A1, V0, A1
9D00D974  8CA30000   LW V1, 0(A1)
9D00D978  24020001   ADDIU V0, ZERO, 1
9D00D97C  00C21004   SLLV V0, V0, A2
9D00D980  00431024   AND V0, V0, V1
00000010  00000000   NOP
---  f:/isp_release/software/isp_root/framework/peripheral/ports/templates/ports_portsopendrain_mcu32.h  
00000008  00000000   NOP
---  f:/isp_release/software/isp_root/framework/peripheral/ports/templates/ports_portsdirection_mcu32.h  
9D00DA0C  3C0203FF   LUI V0, 1023
9D00DA10  3442FFFF   ORI V0, V0, -1
9D00DA14  00A21021   ADDU V0, A1, V0
9D00DA18  00021180   SLL V0, V0, 6
9D00DA1C  3C05BF88   LUI A1, -16504
9D00DA20  24420008   ADDIU V0, V0, 8
9D00DA24  24A56040   ADDIU A1, A1, 24640
9D00DA28  00A22821   ADDU A1, A1, V0
9D00DA2C  24020001   ADDIU V0, ZERO, 1
9D00DA30  00C23004   SLLV A2, V0, A2
9D00DA34  ACA60000   SW A2, 0(A1)
9D00DA38  03E00008   JR RA
9D00DA3C  00000000   NOP
9D00DA48  3C0203FF   LUI V0, 1023
9D00DA4C  3442FFFF   ORI V0, V0, -1
9D00DA50  00A21021   ADDU V0, A1, V0
9D00DA54  00021180   SLL V0, V0, 6
9D00DA58  3C05BF88   LUI A1, -16504
9D00DA5C  24420004   ADDIU V0, V0, 4
9D00DA60  24A56040   ADDIU A1, A1, 24640
9D00DA64  00A22821   ADDU A1, A1, V0
9D00DA68  24020001   ADDIU V0, ZERO, 1
9D00DA6C  00C23004   SLLV A2, V0, A2
9D00DA70  ACA60000   SW A2, 0(A1)
9D00DA74  03E00008   JR RA
9D00DA78  00000000   NOP
00000008  00000000   NOP
00000010  00000000   NOP
---  f:/isp_release/software/isp_root/framework/peripheral/ports/templates/ports_pinmodeperport_unsupported.h
0000000C  00000000   NOP
---  f:/isp_release/software/isp_root/framework/peripheral/ports/templates/ports_pinmode_default.h  -----
00000008  00000000   NOP
00000024  00000000   NOP
00000014  00000000   NOP
---  f:/isp_release/software/isp_root/framework/peripheral/ports/templates/ports_pinchangenoticeperport_unsupported.h
0000000C  00000000   NOP
---  f:/isp_release/software/isp_root/framework/peripheral/ports/templates/ports_pinchangenotice_default.h
00000008  00000000   NOP
---  f:/isp_release/software/isp_root/framework/peripheral/ports/templates/ports_changenoticepullupperport_unsupported.h
0000000C  00000000   NOP
---  f:/isp_release/software/isp_root/framework/peripheral/ports/templates/ports_changenoticepullup_default.h
9D00DBEC  24020001   ADDIU V0, ZERO, 1
9D00DBF0  00A22804   SLLV A1, V0, A1
9D00DBF4  3C02BF88   LUI V0, -16504
9D00DBF8  AC4561E8   SW A1, 25064(V0)
9D00DBFC  03E00008   JR RA
9D00DC00  00000000   NOP
00000008  00000000   NOP
---  f:/isp_release/software/isp_root/framework/peripheral/ports/templates/ports_changenoticepulldownperport_unsupported.h
0000000C  00000000   NOP
0000000C  00000000   NOP
0000000C  00000000   NOP
0000000C  00000000   NOP
---  f:/isp_release/software/isp_root/framework/peripheral/ports/templates/ports_changenoticeinidle_default.h
00000008  00000000   NOP
00000008  00000000   NOP
---  f:/isp_release/software/isp_root/framework/peripheral/ports/processor/ports_p32mx795f512l.h  -------
00000000  00000000   NOP
00000004  00000000   NOP
0000002C  00000000   NOP
00000000  00000000   NOP
00000004  00000000   NOP
0000002C  00000000   NOP
00000000  00000000   NOP
9D00D94C  50800003   BEQL A0, ZERO, 0x9D00D95C
9D00D950  3C020FFF   LUI V0, 4095
9D00D984  03E00008   JR RA
9D00D988  0002102B   SLTU V0, ZERO, V0
9D00D954  03E00008   JR RA
9D00D958  00001021   ADDU V0, ZERO, ZERO
00000000  00000000   NOP
0000002C  00000000   NOP
00000008  00000000   NOP
00000000  00000000   NOP
9D00D98C  1480000C   BNE A0, ZERO, 0x9D00D9C0
9D00D990  00000000   NOP
9D00D9C8  1480000C   BNE A0, ZERO, 0x9D00D9FC
9D00D9CC  00000000   NOP
00000000  00000000   NOP
9D00DA04  1480000C   BNE A0, ZERO, 0x9D00DA38
9D00DA08  00000000   NOP
9D00DA40  1480000C   BNE A0, ZERO, 0x9D00DA74
9D00DA44  00000000   NOP
00000000  00000000   NOP
0000002C  00000000   NOP
00000008  00000000   NOP
00000000  00000000   NOP
9D00DBE4  14800005   BNE A0, ZERO, 0x9D00DBFC
9D00DBE8  00000000   NOP
00000000  00000000   NOP
00000004  00000000   NOP
0000002C  00000000   NOP
00000000  00000000   NOP
00000004  00000000   NOP
0000002C  00000000   NOP
00000000  00000000   NOP
00000004  00000000   NOP
0000002C  00000000   NOP
00000000  00000000   NOP
00000004  00000000   NOP
0000002C  00000000   NOP
00000000  00000000   NOP
00000004  00000000   NOP
0000002C  00000000   NOP
00000000  00000000   NOP
00000004  00000000   NOP
0000002C  00000000   NOP
00000000  00000000   NOP
00000004  00000000   NOP
0000002C  00000000   NOP
00000000  00000000   NOP
00000004  00000000   NOP
0000002C  00000000   NOP
00000000  00000000   NOP
00000004  00000000   NOP
0000002C  00000000   NOP
00000000  00000000   NOP
00000004  00000000   NOP
0000002C  00000000   NOP
00000000  00000000   NOP
00000004  00000000   NOP
0000002C  00000000   NOP
00000000  00000000   NOP
00000004  00000000   NOP
0000002C  00000000   NOP
00000000  00000000   NOP
---  f:/isp_release/software/isp_root/framework/peripheral/pmp/templates/pmp_writeenableportcontrol_default.h
00000008  00000000   NOP
00000008  00000000   NOP
---  f:/isp_release/software/isp_root/framework/peripheral/pmp/templates/pmp_waitstatesaddrlatchstrobe_unsupported.h
0000000C  00000000   NOP
0000000C  00000000   NOP
0000000C  00000000   NOP
0000000C  00000000   NOP
---  f:/isp_release/software/isp_root/framework/peripheral/pmp/templates/pmp_stopinidlecontrol_default.h  
00000008  00000000   NOP
---  f:/isp_release/software/isp_root/framework/peripheral/pmp/templates/pmp_smartaddress_unsupported.h  
0000000C  00000000   NOP
---  f:/isp_release/software/isp_root/framework/peripheral/pmp/templates/pmp_slavetx_default.h  ---------
00000008  00000000   NOP
---  f:/isp_release/software/isp_root/framework/peripheral/pmp/templates/pmp_slaverx_default.h  ---------
00000010  00000000   NOP
---  f:/isp_release/software/isp_root/framework/peripheral/pmp/templates/pmp_reservedaddrspace_unsupported.h
0000000C  00000000   NOP
---  f:/isp_release/software/isp_root/framework/peripheral/pmp/templates/pmp_readwritestrobeportcontrol_default.h
00000008  00000000   NOP
00000008  00000000   NOP
---  f:/isp_release/software/isp_root/framework/peripheral/pmp/templates/pmp_outputbufferxstatus_default.h
00000010  00000000   NOP
00000010  00000000   NOP
---  f:/isp_release/software/isp_root/framework/peripheral/pmp/templates/pmp_operationmode_default.h  ---
00000008  00000000   NOP
00000010  00000000   NOP
---  f:/isp_release/software/isp_root/framework/peripheral/pmp/templates/pmp_muxmodeselect_default.h  ---
00000008  00000000   NOP
00000010  00000000   NOP
---  f:/isp_release/software/isp_root/framework/peripheral/pmp/templates/pmp_masterrxtx_default.h  ------
00000008  00000000   NOP
00000010  00000000   NOP
---  f:/isp_release/software/isp_root/framework/peripheral/pmp/templates/pmp_interruptmode_default.h  ---
00000008  00000000   NOP
00000010  00000000   NOP
00000010  00000000   NOP
00000010  00000000   NOP
---  f:/isp_release/software/isp_root/framework/peripheral/pmp/templates/pmp_incrementmode_default.h  ---
00000008  00000000   NOP
00000010  00000000   NOP
---  f:/isp_release/software/isp_root/framework/peripheral/pmp/templates/pmp_enhancedmastermode_unsupported.h
0000000C  00000000   NOP
---  f:/isp_release/software/isp_root/framework/peripheral/pmp/templates/pmp_enablecontrol_default.h  ---
00000008  00000000   NOP
00000010  00000000   NOP
---  f:/isp_release/software/isp_root/framework/peripheral/pmp/templates/pmp_datatransfersize_default.h  
00000008  00000000   NOP
00000008  00000000   NOP
00000008  00000000   NOP
00000008  00000000   NOP
---  f:/isp_release/software/isp_root/framework/peripheral/pmp/templates/pmp_currentmaster_unsupported.h  
0000000C  00000000   NOP
0000000C  00000000   NOP
---  f:/isp_release/software/isp_root/framework/peripheral/pmp/templates/pmp_csxactivestatus_default.h  -
00000010  00000000   NOP
---  f:/isp_release/software/isp_root/framework/peripheral/pmp/templates/pmp_chipxwriteenablepolarity_unsupported.h
0000000C  00000000   NOP
0000000C  00000000   NOP
0000000C  00000000   NOP
---  f:/isp_release/software/isp_root/framework/peripheral/pmp/templates/pmp_chipxpolarity_default.h  ---
00000008  00000000   NOP
---  f:/isp_release/software/isp_root/framework/peripheral/pmp/templates/pmp_chipxenablestorbeselect_unsupported.h
0000000C  00000000   NOP
0000000C  00000000   NOP
0000000C  00000000   NOP
0000000C  00000000   NOP
0000000C  00000000   NOP
0000000C  00000000   NOP
0000000C  00000000   NOP
0000000C  00000000   NOP
0000000C  00000000   NOP
---  f:/isp_release/software/isp_root/framework/peripheral/pmp/templates/pmp_chipselectoperation_default.h
00000008  00000000   NOP
00000008  00000000   NOP
---  f:/isp_release/software/isp_root/framework/peripheral/pmp/templates/pmp_byteenableportcontrol_unsupported.h
0000000C  00000000   NOP
0000000C  00000000   NOP
---  f:/isp_release/software/isp_root/framework/peripheral/pmp/templates/pmp_busystatus_default.h  ------
00000010  00000000   NOP
---  f:/isp_release/software/isp_root/framework/peripheral/pmp/templates/pmp_buskeeper_unsupported.h  ---
0000000C  00000000   NOP
0000000C  00000000   NOP
---  f:/isp_release/software/isp_root/framework/peripheral/pmp/templates/pmp_bufferunderflow_default.h  -
00000010  00000000   NOP
00000008  00000000   NOP
00000008  00000000   NOP
00000024  00000000   NOP
00000010  00000000   NOP
0000002C  00000000   NOP
---  f:/isp_release/software/isp_root/framework/peripheral/pmp/templates/pmp_bufferread_32bit.h  --------
00000010  00000000   NOP
00000010  00000000   NOP
00000008  00000000   NOP
---  f:/isp_release/software/isp_root/framework/peripheral/pmp/templates/pmp_altmasterrequest_unsupported.h
0000000C  00000000   NOP
---  f:/isp_release/software/isp_root/framework/peripheral/pmp/templates/pmp_addressportpincontrol_basic.h
00000008  00000000   NOP
00000008  00000000   NOP
00000008  00000000   NOP
00000008  00000000   NOP
00000010  00000000   NOP
00000008  00000000   NOP
00000010  00000000   NOP
---  f:/isp_release/software/isp_root/framework/peripheral/pmp/processor/pmp_p32mx795f512l.h  -----------
00000000  00000000   NOP
00000014  00000000   NOP
00000008  00000000   NOP
00000000  00000000   NOP
00000014  00000000   NOP
00000008  00000000   NOP
00000000  00000000   NOP
00000014  00000000   NOP
00000008  00000000   NOP
00000000  00000000   NOP
00000014  00000000   NOP
00000008  00000000   NOP
00000000  00000000   NOP
00000014  00000000   NOP
00000008  00000000   NOP
00000000  00000000   NOP
00000014  00000000   NOP
00000008  00000000   NOP
00000000  00000000   NOP
00000004  00000000   NOP
00000008  00000000   NOP
00000000  00000000   NOP
00000014  00000000   NOP
00000008  00000000   NOP
00000000  00000000   NOP
00000014  00000000   NOP
00000008  00000000   NOP
00000000  00000000   NOP
00000014  00000000   NOP
00000008  00000000   NOP
00000000  00000000   NOP
00000014  00000000   NOP
00000008  00000000   NOP
00000000  00000000   NOP
00000028  00000000   NOP
00000008  00000000   NOP
00000000  00000000   NOP
00000028  00000000   NOP
00000008  00000000   NOP
00000000  00000000   NOP
00000014  00000000   NOP
00000008  00000000   NOP
00000000  00000000   NOP
00000014  00000000   NOP
00000008  00000000   NOP
00000000  00000000   NOP
00000024  00000000   NOP
00000000  00000000   NOP
00000008  00000000   NOP
00000000  00000000   NOP
00000024  00000000   NOP
00000008  00000000   NOP
00000000  00000000   NOP
0000002C  00000000   NOP
00000008  00000000   NOP
00000000  00000000   NOP
00000004  00000000   NOP
00000000  00000000   NOP
00000014  00000000   NOP
00000008  00000000   NOP
00000000  00000000   NOP
00000014  00000000   NOP
00000008  00000000   NOP
00000000  00000000   NOP
00000028  00000000   NOP
00000008  00000000   NOP
00000000  00000000   NOP
00000004  00000000   NOP
0000002C  00000000   NOP
00000000  00000000   NOP
00000004  00000000   NOP
0000002C  00000000   NOP
00000000  00000000   NOP
00000004  00000000   NOP
0000002C  00000000   NOP
00000000  00000000   NOP
00000004  00000000   NOP
0000002C  00000000   NOP
00000000  00000000   NOP
00000004  00000000   NOP
0000002C  00000000   NOP
00000000  00000000   NOP
00000004  00000000   NOP
0000002C  00000000   NOP
00000000  00000000   NOP
00000004  00000000   NOP
0000002C  00000000   NOP
00000000  00000000   NOP
00000004  00000000   NOP
0000002C  00000000   NOP
00000000  00000000   NOP
00000004  00000000   NOP
0000002C  00000000   NOP
00000000  00000000   NOP
00000004  00000000   NOP
0000002C  00000000   NOP
00000000  00000000   NOP
00000004  00000000   NOP
0000002C  00000000   NOP
00000000  00000000   NOP
00000004  00000000   NOP
0000002C  00000000   NOP
00000000  00000000   NOP
00000004  00000000   NOP
0000002C  00000000   NOP
00000000  00000000   NOP
00000004  00000000   NOP
0000002C  00000000   NOP
00000000  00000000   NOP
00000004  00000000   NOP
0000002C  00000000   NOP
00000000  00000000   NOP
00000004  00000000   NOP
0000002C  00000000   NOP
00000000  00000000   NOP
00000004  00000000   NOP
0000002C  00000000   NOP
00000000  00000000   NOP
00000004  00000000   NOP
0000002C  00000000   NOP
00000000  00000000   NOP
00000004  00000000   NOP
0000002C  00000000   NOP
00000000  00000000   NOP
00000004  00000000   NOP
0000002C  00000000   NOP
00000000  00000000   NOP
00000004  00000000   NOP
0000002C  00000000   NOP
00000000  00000000   NOP
00000004  00000000   NOP
0000002C  00000000   NOP
00000000  00000000   NOP
00000004  00000000   NOP
0000002C  00000000   NOP
00000000  00000000   NOP
00000004  00000000   NOP
0000002C  00000000   NOP
00000000  00000000   NOP
00000004  00000000   NOP
0000002C  00000000   NOP
00000000  00000000   NOP
00000004  00000000   NOP
0000002C  00000000   NOP
00000000  00000000   NOP
00000004  00000000   NOP
0000002C  00000000   NOP
00000000  00000000   NOP
00000004  00000000   NOP
0000002C  00000000   NOP
00000000  00000000   NOP
00000004  00000000   NOP
0000002C  00000000   NOP
00000000  00000000   NOP
00000004  00000000   NOP
0000002C  00000000   NOP
00000000  00000000   NOP
00000004  00000000   NOP
0000002C  00000000   NOP
00000000  00000000   NOP
00000004  00000000   NOP
0000002C  00000000   NOP
---  f:/isp_release/software/isp_root/framework/peripheral/peripheral_common_32bit.h  -------------------
00000008  00000000   NOP
00000030  00000000   NOP
---  f:/isp_release/software/isp_root/framework/peripheral/pcache/templates/pcache_word_default.h  ------
00000008  00000000   NOP
0000003C  00000000   NOP
00000010  00000000   NOP
00000054  00000000   NOP
0000001C  00000000   NOP
00000048  00000000   NOP
00000028  00000000   NOP
00000060  00000000   NOP
00000008  00000000   NOP
0000002C  00000000   NOP
0000001C  00000000   NOP
0000004C  00000000   NOP
00000058  00000000   NOP
0000003C  00000000   NOP
---  f:/isp_release/software/isp_root/framework/peripheral/pcache/templates/pcache_waitstate_default.h  -
00000008  00000000   NOP
00000010  00000000   NOP
---  f:/isp_release/software/isp_root/framework/peripheral/pcache/templates/pcache_prefetchenable_default.h
00000008  00000000   NOP
00000010  00000000   NOP
00000010  00000000   NOP
00000008  00000000   NOP
---  f:/isp_release/software/isp_root/framework/peripheral/pcache/templates/pcache_leastrecentlyusedstate_default.h
00000010  00000000   NOP
---  f:/isp_release/software/isp_root/framework/peripheral/pcache/templates/pcache_invalidateonpfmprogram_default.h
00000008  00000000   NOP
---  f:/isp_release/software/isp_root/framework/peripheral/pcache/templates/pcache_flashsecstatus_unsupported.h
0000000C  00000000   NOP
0000000C  00000000   NOP
0000000C  00000000   NOP
0000000C  00000000   NOP
---  f:/isp_release/software/isp_root/framework/peripheral/pcache/templates/pcache_datacacheenable_default.h
00000008  00000000   NOP
00000010  00000000   NOP
00000010  00000000   NOP
00000008  00000000   NOP
00000008  00000000   NOP
00000010  00000000   NOP
---  f:/isp_release/software/isp_root/framework/peripheral/pcache/templates/pcache_cachelinetype_default.h
00000008  00000000   NOP
00000010  00000000   NOP
---  f:/isp_release/software/isp_root/framework/peripheral/pcache/templates/pcache_cachelineselect_default.h
00000008  00000000   NOP
00000024  00000000   NOP
00000008  00000000   NOP
00000024  00000000   NOP
---  f:/isp_release/software/isp_root/framework/peripheral/pcache/templates/pcache_cachelinemask_default.h
00000008  00000000   NOP
00000010  00000000   NOP
---  f:/isp_release/software/isp_root/framework/peripheral/pcache/templates/pcache_cachelinelock_default.h
00000008  00000000   NOP
00000010  00000000   NOP
---  f:/isp_release/software/isp_root/framework/peripheral/pcache/templates/pcache_cachelineflashtype_default.h
00000008  00000000   NOP
00000010  00000000   NOP
---  f:/isp_release/software/isp_root/framework/peripheral/pcache/templates/pcache_cachelineaddr_default.h
00000008  00000000   NOP
00000010  00000000   NOP
00000010  00000000   NOP
00000008  00000000   NOP
---  f:/isp_release/software/isp_root/framework/peripheral/pcache/processor/pcache_p32mx795f512l.h  -----
00000000  00000000   NOP
00000014  00000000   NOP
00000008  00000000   NOP
00000000  00000000   NOP
00000014  00000000   NOP
00000008  00000000   NOP
00000000  00000000   NOP
00000014  00000000   NOP
00000008  00000000   NOP
00000000  00000000   NOP
00000004  00000000   NOP
0000002C  00000000   NOP
00000000  00000000   NOP
00000004  00000000   NOP
0000002C  00000000   NOP
00000000  00000000   NOP
00000004  00000000   NOP
0000002C  00000000   NOP
00000000  00000000   NOP
00000004  00000000   NOP
0000002C  00000000   NOP
00000000  00000000   NOP
00000004  00000000   NOP
0000002C  00000000   NOP
00000000  00000000   NOP
00000004  00000000   NOP
0000002C  00000000   NOP
00000000  00000000   NOP
00000004  00000000   NOP
0000002C  00000000   NOP
00000000  00000000   NOP
00000004  00000000   NOP
0000002C  00000000   NOP
00000000  00000000   NOP
00000004  00000000   NOP
0000002C  00000000   NOP
00000000  00000000   NOP
00000014  00000000   NOP
00000008  00000000   NOP
00000000  00000000   NOP
00000014  00000000   NOP
00000008  00000000   NOP
00000000  00000000   NOP
00000014  00000000   NOP
00000008  00000000   NOP
00000000  00000000   NOP
0000001C  00000000   NOP
00000008  00000000   NOP
00000000  00000000   NOP
00000014  00000000   NOP
00000008  00000000   NOP
00000000  00000000   NOP
00000014  00000000   NOP
00000008  00000000   NOP
00000000  00000000   NOP
00000034  00000000   NOP
00000000  00000000   NOP
00000014  00000000   NOP
00000008  00000000   NOP
00000000  00000000   NOP
00000014  00000000   NOP
00000008  00000000   NOP
00000000  00000000   NOP
00000014  00000000   NOP
00000008  00000000   NOP
00000000  00000000   NOP
00000014  00000000   NOP
00000008  00000000   NOP
00000000  00000000   NOP
---  f:/isp_release/software/isp_root/framework/peripheral/osc/templates/osc_usbclocksource_default.h  --
0000000C  00000000   NOP
00000014  00000000   NOP
00000008  00000000   NOP
00000010  00000000   NOP
00000018  00000000   NOP
0000001C  00000000   NOP
00000028  00000000   NOP
00000048  00000000   NOP
00000010  00000000   NOP
00000010  00000000   NOP
---  f:/isp_release/software/isp_root/framework/peripheral/osc/templates/osc_secondaryenable_default.h  -
0000000C  00000000   NOP
00000014  00000000   NOP
00000008  00000000   NOP
00000010  00000000   NOP
00000018  00000000   NOP
0000001C  00000000   NOP
00000028  00000000   NOP
00000034  00000000   NOP
0000000C  00000000   NOP
00000014  00000000   NOP
00000008  00000000   NOP
00000010  00000000   NOP
00000018  00000000   NOP
0000001C  00000000   NOP
00000028  00000000   NOP
00000034  00000000   NOP
00000010  00000000   NOP
---  f:/isp_release/software/isp_root/framework/peripheral/osc/templates/osc_referenceoutputenable_unsupported.h
0000000C  00000000   NOP
---  f:/isp_release/software/isp_root/framework/peripheral/osc/templates/osc_referenceosctrim_unsupported.h
00000014  00000000   NOP
00000034  00000000   NOP
---  f:/isp_release/software/isp_root/framework/peripheral/osc/templates/osc_referenceoscstopinsleep_unsupported.h
0000000C  00000000   NOP
0000000C  00000000   NOP
0000000C  00000000   NOP
---  f:/isp_release/software/isp_root/framework/peripheral/osc/templates/osc_referenceoscdivisor_unsupported.h
00000014  00000000   NOP
00000034  00000000   NOP
---  f:/isp_release/software/isp_root/framework/peripheral/osc/templates/osc_referenceoscchangeactive_unsupported.h
0000000C  00000000   NOP
0000000C  00000000   NOP
0000000C  00000000   NOP
0000000C  00000000   NOP
00000014  00000000   NOP
00000008  00000000   NOP
00000010  00000000   NOP
00000018  00000000   NOP
0000001C  00000000   NOP
00000028  00000000   NOP
00000050  00000000   NOP
00000010  00000000   NOP
---  f:/isp_release/software/isp_root/framework/peripheral/osc/templates/osc_pllmultiplier_pic32_1.h  ---
0000001C  00000000   NOP
00000024  00000000   NOP
00000014  00000000   NOP
00000020  00000000   NOP
00000028  00000000   NOP
0000002C  00000000   NOP
00000038  00000000   NOP
00000034  00000000   NOP
0000003C  00000000   NOP
0000007C  00000000   NOP
00000084  00000000   NOP
00000044  00000000   NOP
00000050  00000000   NOP
000000BC  00000000   NOP
0000006C  00000000   NOP
000000B0  00000000   NOP
00000010  00000000   NOP
00000018  00000000   NOP
00000014  00000000   NOP
0000001C  00000000   NOP
00000024  00000000   NOP
---  f:/isp_release/software/isp_root/framework/peripheral/osc/templates/osc_plllockstatus_default.h  ---
00000010  00000000   NOP
00000024  00000000   NOP
00000018  00000000   NOP
---  f:/isp_release/software/isp_root/framework/peripheral/osc/templates/osc_pllinputdivisor_unsupported.h
0000000C  00000000   NOP
0000000C  00000000   NOP
0000000C  00000000   NOP
0000000C  00000000   NOP
00000014  00000000   NOP
00000008  00000000   NOP
00000010  00000000   NOP
00000018  00000000   NOP
0000001C  00000000   NOP
00000028  00000000   NOP
00000034  00000000   NOP
0000000C  00000000   NOP
00000014  00000000   NOP
00000008  00000000   NOP
00000010  00000000   NOP
00000018  00000000   NOP
0000001C  00000000   NOP
00000028  00000000   NOP
00000034  00000000   NOP
00000010  00000000   NOP
---  f:/isp_release/software/isp_root/framework/peripheral/osc/templates/osc_pbclockready_unsupported.h  
0000000C  00000000   NOP
0000000C  00000000   NOP
---  f:/isp_release/software/isp_root/framework/peripheral/osc/templates/osc_pbclockdivisor_pic32_1.h  --
00000010  00000000   NOP
00000018  00000000   NOP
00000024  00000000   NOP
00000014  00000000   NOP
0000001C  00000000   NOP
00000028  00000000   NOP
0000002C  00000000   NOP
00000038  00000000   NOP
00000080  00000000   NOP
00000058  00000000   NOP
000000AC  00000000   NOP
000000D8  00000000   NOP
00000104  00000000   NOP
00000090  00000000   NOP
00000070  00000000   NOP
000000CC  00000000   NOP
000000F8  00000000   NOP
00000124  00000000   NOP
---  f:/isp_release/software/isp_root/framework/peripheral/osc/templates/osc_oscswitchinit_default.h  ---
0000000C  00000000   NOP
00000014  00000000   NOP
00000008  00000000   NOP
00000010  00000000   NOP
00000018  00000000   NOP
0000001C  00000000   NOP
00000028  00000000   NOP
0000002C  00000000   NOP
00000034  00000000   NOP
00000010  00000000   NOP
---  f:/isp_release/software/isp_root/framework/peripheral/osc/templates/osc_oscselect_default.h  -------
0000000C  00000000   NOP
00000014  00000000   NOP
00000008  00000000   NOP
00000010  00000000   NOP
00000018  00000000   NOP
0000001C  00000000   NOP
00000028  00000000   NOP
00000048  00000000   NOP
00000054  00000000   NOP
00000058  00000000   NOP
0000005C  00000000   NOP
---  f:/isp_release/software/isp_root/framework/peripheral/osc/templates/osc_osccurrentget_default.h  ---
00000010  00000000   NOP
---  f:/isp_release/software/isp_root/framework/peripheral/osc/templates/osc_onwaitaction_default.h  ----
0000000C  00000000   NOP
00000014  00000000   NOP
00000008  00000000   NOP
00000010  00000000   NOP
00000018  00000000   NOP
0000001C  00000000   NOP
00000028  00000000   NOP
00000048  00000000   NOP
00000010  00000000   NOP
---  f:/isp_release/software/isp_root/framework/peripheral/osc/templates/osc_frctuning_default.h  -------
0000000C  00000000   NOP
00000014  00000000   NOP
---  f:/isp_release/software/isp_root/framework/peripheral/osc/templates/osc_frcdivisor_default.h  ------
0000000C  00000000   NOP
00000014  00000000   NOP
00000008  00000000   NOP
00000010  00000000   NOP
00000018  00000000   NOP
0000001C  00000000   NOP
00000028  00000000   NOP
00000050  00000000   NOP
00000010  00000000   NOP
00000010  00000000   NOP
---  f:/isp_release/software/isp_root/framework/peripheral/osc/processor/osc_p32mx795f512l.h  -----------
00000000  00000000   NOP
00000014  00000000   NOP
00000008  00000000   NOP
00000000  00000000   NOP
00000014  00000000   NOP
00000008  00000000   NOP
00000000  00000000   NOP
00000014  00000000   NOP
00000008  00000000   NOP
00000000  00000000   NOP
00000014  00000000   NOP
00000008  00000000   NOP
00000000  00000000   NOP
00000018  00000000   NOP
00000008  00000000   NOP
00000000  00000000   NOP
00000014  00000000   NOP
00000008  00000000   NOP
00000000  00000000   NOP
0000001C  00000000   NOP
00000008  00000000   NOP
00000000  00000000   NOP
00000008  00000000   NOP
0000000C  00000000   NOP
00000020  00000000   NOP
00000074  00000000   NOP
000000D0  00000000   NOP
000000FC  00000000   NOP
00000128  00000000   NOP
00000000  00000000   NOP
00000004  00000000   NOP
0000002C  00000000   NOP
00000000  00000000   NOP
00000014  00000000   NOP
00000008  00000000   NOP
00000000  00000000   NOP
00000008  00000000   NOP
00000000  00000000   NOP
00000014  00000000   NOP
00000008  00000000   NOP
00000000  00000000   NOP
00000008  00000000   NOP
0000000C  00000000   NOP
00000018  00000000   NOP
00000070  00000000   NOP
000000B4  00000000   NOP
00000000  00000000   NOP
00000008  00000000   NOP
00000000  00000000   NOP
00000014  00000000   NOP
00000008  00000000   NOP
00000000  00000000   NOP
00000014  00000000   NOP
00000008  00000000   NOP
00000000  00000000   NOP
00000004  00000000   NOP
00000010  00000000   NOP
00000000  00000000   NOP
00000004  00000000   NOP
0000002C  00000000   NOP
00000000  00000000   NOP
00000004  00000000   NOP
0000002C  00000000   NOP
00000000  00000000   NOP
00000004  00000000   NOP
0000002C  00000000   NOP
00000000  00000000   NOP
00000004  00000000   NOP
0000002C  00000000   NOP
00000000  00000000   NOP
00000004  00000000   NOP
0000002C  00000000   NOP
00000000  00000000   NOP
00000004  00000000   NOP
0000002C  00000000   NOP
00000000  00000000   NOP
00000004  00000000   NOP
0000002C  00000000   NOP
00000000  00000000   NOP
00000004  00000000   NOP
0000002C  00000000   NOP
00000000  00000000   NOP
00000004  00000000   NOP
0000002C  00000000   NOP
00000000  00000000   NOP
00000004  00000000   NOP
0000002C  00000000   NOP
00000000  00000000   NOP
00000004  00000000   NOP
0000002C  00000000   NOP
00000000  00000000   NOP
00000004  00000000   NOP
0000002C  00000000   NOP
00000000  00000000   NOP
00000004  00000000   NOP
0000002C  00000000   NOP
00000000  00000000   NOP
00000004  00000000   NOP
0000002C  00000000   NOP
00000000  00000000   NOP
00000004  00000000   NOP
0000002C  00000000   NOP
00000000  00000000   NOP
00000008  00000000   NOP
0000000C  00000000   NOP
00000030  00000000   NOP
0000003C  00000000   NOP
00000000  00000000   NOP
00000008  00000000   NOP
0000000C  00000000   NOP
00000030  00000000   NOP
0000003C  00000000   NOP
00000000  00000000   NOP
00000004  00000000   NOP
0000002C  00000000   NOP
00000000  00000000   NOP
00000004  00000000   NOP
0000002C  00000000   NOP
00000000  00000000   NOP
00000004  00000000   NOP
0000002C  00000000   NOP
00000000  00000000   NOP
00000004  00000000   NOP
0000002C  00000000   NOP
00000000  00000000   NOP
00000004  00000000   NOP
0000002C  00000000   NOP
00000000  00000000   NOP
00000004  00000000   NOP
0000002C  00000000   NOP
00000000  00000000   NOP
00000004  00000000   NOP
0000002C  00000000   NOP
00000000  00000000   NOP
00000004  00000000   NOP
0000002C  00000000   NOP
00000000  00000000   NOP
00000004  00000000   NOP
0000002C  00000000   NOP
---  f:/isp_release/software/isp_root/framework/peripheral/oc/templates/oc_triggerstatusmodeselect_unsupported.h
00000040  00000000   NOP
00000040  00000000   NOP
---  f:/isp_release/software/isp_root/framework/peripheral/oc/templates/oc_timertriggered_unsupported.h  
00000050  00000000   NOP
---  f:/isp_release/software/isp_root/framework/peripheral/oc/templates/oc_timerselect_default.h  -------
00000040  00000000   NOP
00000068  00000000   NOP
00000090  00000000   NOP
000000B8  00000000   NOP
000000E0  00000000   NOP
---  f:/isp_release/software/isp_root/framework/peripheral/oc/templates/oc_syncsourceselect_unsupported.h
00000040  00000000   NOP
00000040  00000000   NOP
---  f:/isp_release/software/isp_root/framework/peripheral/oc/templates/oc_stopinidle_default.h  --------
0000003C  00000000   NOP
0000006C  00000000   NOP
00000084  00000000   NOP
0000009C  00000000   NOP
0000003C  00000000   NOP
0000006C  00000000   NOP
00000084  00000000   NOP
0000009C  00000000   NOP
---  f:/isp_release/software/isp_root/framework/peripheral/oc/templates/oc_pwmdutycycleresolution_unsupported.h
00000040  00000000   NOP
00000040  00000000   NOP
00000050  00000000   NOP
00000060  00000000   NOP
00000070  00000000   NOP
00000080  00000000   NOP
00000040  00000000   NOP
00000050  00000000   NOP
00000060  00000000   NOP
00000070  00000000   NOP
00000080  00000000   NOP
---  f:/isp_release/software/isp_root/framework/peripheral/oc/templates/oc_polarityinvert_unsupported.h  
00000040  00000000   NOP
00000040  00000000   NOP
---  f:/isp_release/software/isp_root/framework/peripheral/oc/templates/oc_faultstatus_default.h  -------
00000044  00000000   NOP
00000054  00000000   NOP
00000064  00000000   NOP
00000074  00000000   NOP
00000084  00000000   NOP
---  f:/isp_release/software/isp_root/framework/peripheral/oc/templates/oc_faultout_unsupported.h  ------
00000040  00000000   NOP
00000040  00000000   NOP
00000040  00000000   NOP
00000064  00000000   NOP
00000088  00000000   NOP
000000AC  00000000   NOP
000000D0  00000000   NOP
000000D4  00000000   NOP
---  f:/isp_release/software/isp_root/framework/peripheral/oc/templates/oc_enablecontrol_default.h  -----
0000003C  00000000   NOP
0000006C  00000000   NOP
00000084  00000000   NOP
0000009C  00000000   NOP
0000003C  00000000   NOP
0000006C  00000000   NOP
00000084  00000000   NOP
0000009C  00000000   NOP
---  f:/isp_release/software/isp_root/framework/peripheral/oc/templates/oc_comparemodeselect_default.h  -
00000040  00000000   NOP
00000064  00000000   NOP
00000088  00000000   NOP
000000AC  00000000   NOP
000000D0  00000000   NOP
---  f:/isp_release/software/isp_root/framework/peripheral/oc/templates/oc_buffervalue_32bit_variant.h  -
00000040  00000000   NOP
00000050  00000000   NOP
00000060  00000000   NOP
00000070  00000000   NOP
00000080  00000000   NOP
00000084  00000000   NOP
00000040  00000000   NOP
00000050  00000000   NOP
00000060  00000000   NOP
00000070  00000000   NOP
00000080  00000000   NOP
---  f:/isp_release/software/isp_root/framework/peripheral/oc/templates/oc_buffersize_default.h  --------
00000040  00000000   NOP
00000068  00000000   NOP
00000090  00000000   NOP
000000B8  00000000   NOP
000000E0  00000000   NOP
---  f:/isp_release/software/isp_root/framework/peripheral/oc/templates/oc_alternateclock_default.h  ----
00000040  00000000   NOP
---  f:/isp_release/software/isp_root/framework/peripheral/oc/processor/oc_p32mx795f512l.h  -------------
00000000  00000000   NOP
0000007C  00000000   NOP
00000094  00000000   NOP
000000AC  00000000   NOP
00000064  00000000   NOP
00000000  00000000   NOP
0000007C  00000000   NOP
00000094  00000000   NOP
000000AC  00000000   NOP
00000064  00000000   NOP
00000000  00000000   NOP
00000004  00000000   NOP
00000008  00000000   NOP
00000060  00000000   NOP
00000000  00000000   NOP
00000004  00000000   NOP
00000008  00000000   NOP
00000060  00000000   NOP
00000000  00000000   NOP
0000007C  00000000   NOP
00000094  00000000   NOP
000000AC  00000000   NOP
00000064  00000000   NOP
00000000  00000000   NOP
0000007C  00000000   NOP
00000094  00000000   NOP
000000AC  00000000   NOP
00000064  00000000   NOP
00000000  00000000   NOP
00000084  00000000   NOP
000000A0  00000000   NOP
000000C4  00000000   NOP
00000060  00000000   NOP
000000E8  00000000   NOP
0000003C  00000000   NOP
0000007C  00000000   NOP
00000000  00000000   NOP
00000004  00000000   NOP
00000008  00000000   NOP
00000060  00000000   NOP
00000000  00000000   NOP
00000014  00000000   NOP
00000060  00000000   NOP
00000068  00000000   NOP
00000078  00000000   NOP
00000040  00000000   NOP
00000088  00000000   NOP
00000048  00000000   NOP
00000058  00000000   NOP
0000000C  00000000   NOP
00000000  00000000   NOP
0000008C  00000000   NOP
000000AC  00000000   NOP
000000D4  00000000   NOP
00000064  00000000   NOP
000000FC  00000000   NOP
0000003C  00000000   NOP
00000084  00000000   NOP
00000000  00000000   NOP
0000005C  00000000   NOP
00000064  00000000   NOP
00000074  00000000   NOP
0000004C  00000000   NOP
00000084  00000000   NOP
0000003C  00000000   NOP
00000054  00000000   NOP
00000000  00000000   NOP
0000005C  00000000   NOP
00000064  00000000   NOP
00000074  00000000   NOP
0000004C  00000000   NOP
00000084  00000000   NOP
0000003C  00000000   NOP
00000054  00000000   NOP
00000000  00000000   NOP
0000005C  00000000   NOP
00000064  00000000   NOP
00000074  00000000   NOP
0000004C  00000000   NOP
00000084  00000000   NOP
0000003C  00000000   NOP
00000054  00000000   NOP
00000000  00000000   NOP
0000005C  00000000   NOP
00000064  00000000   NOP
00000074  00000000   NOP
0000004C  00000000   NOP
00000084  00000000   NOP
0000003C  00000000   NOP
00000054  00000000   NOP
00000000  00000000   NOP
0000008C  00000000   NOP
000000AC  00000000   NOP
000000D4  00000000   NOP
00000064  00000000   NOP
000000FC  00000000   NOP
0000003C  00000000   NOP
00000084  00000000   NOP
00000000  00000000   NOP
00000084  00000000   NOP
000000A0  00000000   NOP
000000C4  00000000   NOP
00000060  00000000   NOP
000000E8  00000000   NOP
0000003C  00000000   NOP
0000007C  00000000   NOP
00000000  00000000   NOP
00000004  00000000   NOP
00000008  00000000   NOP
00000060  00000000   NOP
00000000  00000000   NOP
00000004  00000000   NOP
00000008  00000000   NOP
00000060  00000000   NOP
00000000  00000000   NOP
00000004  00000000   NOP
00000008  00000000   NOP
00000060  00000000   NOP
00000000  00000000   NOP
00000004  00000000   NOP
00000008  00000000   NOP
00000060  00000000   NOP
00000000  00000000   NOP
00000004  00000000   NOP
00000008  00000000   NOP
00000060  00000000   NOP
00000000  00000000   NOP
00000004  00000000   NOP
00000008  00000000   NOP
00000060  00000000   NOP
00000000  00000000   NOP
00000004  00000000   NOP
00000008  00000000   NOP
00000060  00000000   NOP
00000000  00000000   NOP
00000004  00000000   NOP
00000008  00000000   NOP
00000060  00000000   NOP
00000000  00000000   NOP
00000004  00000000   NOP
00000008  00000000   NOP
00000060  00000000   NOP
00000000  00000000   NOP
00000004  00000000   NOP
00000008  00000000   NOP
00000060  00000000   NOP
00000000  00000000   NOP
00000004  00000000   NOP
00000008  00000000   NOP
00000020  00000000   NOP
00000010  00000000   NOP
00000000  00000000   NOP
---  f:/isp_release/software/isp_root/framework/peripheral/nvm/templates/nvm_writeoperation_default.h  --
00000010  00000000   NOP
00000008  00000000   NOP
---  f:/isp_release/software/isp_root/framework/peripheral/nvm/templates/nvm_writeerrorstatus_default.h  
00000010  00000000   NOP
---  f:/isp_release/software/isp_root/framework/peripheral/nvm/templates/nvm_stopinidle_unsupported.h  --
0000000C  00000000   NOP
---  f:/isp_release/software/isp_root/framework/peripheral/nvm/templates/nvm_sourceaddress_default.h  ---
00000008  00000000   NOP
---  f:/isp_release/software/isp_root/framework/peripheral/nvm/templates/nvm_providequaddata_unsupported.h
0000000C  00000000   NOP
---  f:/isp_release/software/isp_root/framework/peripheral/nvm/templates/nvm_providedata_default.h  -----
00000008  00000000   NOP
---  f:/isp_release/software/isp_root/framework/peripheral/nvm/templates/nvm_programeraseoperation_unsupported.h
0000000C  00000000   NOP
---  f:/isp_release/software/isp_root/framework/peripheral/nvm/templates/nvm_operationmode_default.h  ---
00000008  00000000   NOP
00000008  00000000   NOP
---  f:/isp_release/software/isp_root/framework/peripheral/nvm/templates/nvm_lowvoltagestatus_default.h  
00000010  00000000   NOP
00000010  00000000   NOP
---  f:/isp_release/software/isp_root/framework/peripheral/nvm/templates/nvm_lockpfmselect_unsupported.h  
0000000C  00000000   NOP
0000000C  00000000   NOP
---  f:/isp_release/software/isp_root/framework/peripheral/nvm/templates/nvm_keysequence_default.h  -----
00000008  00000000   NOP
---  f:/isp_release/software/isp_root/framework/peripheral/nvm/templates/nvm_flashwpmemoryrangeprovide_unsupported.h
0000000C  00000000   NOP
0000000C  00000000   NOP
0000000C  00000000   NOP
0000000C  00000000   NOP
---  f:/isp_release/software/isp_root/framework/peripheral/nvm/templates/nvm_addressmodifycontrol_default.h
00000008  00000000   NOP
---  f:/isp_release/software/isp_root/framework/peripheral/nvm/templates/nvm_accessenablecontrol_unsupported.h
0000000C  00000000   NOP
---  f:/isp_release/software/isp_root/framework/peripheral/nvm/processor/nvm_p32mx795f512l.h  -----------
00000000  00000000   NOP
00000004  00000000   NOP
0000002C  00000000   NOP
00000000  00000000   NOP
00000004  00000000   NOP
0000002C  00000000   NOP
00000000  00000000   NOP
00000004  00000000   NOP
0000002C  00000000   NOP
00000000  00000000   NOP
00000004  00000000   NOP
0000002C  00000000   NOP
00000000  00000000   NOP
00000004  00000000   NOP
0000002C  00000000   NOP
00000000  00000000   NOP
00000004  00000000   NOP
0000002C  00000000   NOP
00000000  00000000   NOP
00000004  00000000   NOP
0000002C  00000000   NOP
00000000  00000000   NOP
00000014  00000000   NOP
00000008  00000000   NOP
00000000  00000000   NOP
00000014  00000000   NOP
00000008  00000000   NOP
00000000  00000000   NOP
00000014  00000000   NOP
00000008  00000000   NOP
00000000  00000000   NOP
00000014  00000000   NOP
00000008  00000000   NOP
00000000  00000000   NOP
00000014  00000000   NOP
00000008  00000000   NOP
00000000  00000000   NOP
00000014  00000000   NOP
00000008  00000000   NOP
00000000  00000000   NOP
00000004  00000000   NOP
0000002C  00000000   NOP
00000000  00000000   NOP
00000004  00000000   NOP
0000002C  00000000   NOP
00000000  00000000   NOP
00000004  00000000   NOP
0000002C  00000000   NOP
00000000  00000000   NOP
00000004  00000000   NOP
0000002C  00000000   NOP
00000000  00000000   NOP
00000004  00000000   NOP
0000002C  00000000   NOP
00000000  00000000   NOP
00000004  00000000   NOP
0000002C  00000000   NOP
00000000  00000000   NOP
00000004  00000000   NOP
0000002C  00000000   NOP
00000000  00000000   NOP
00000004  00000000   NOP
0000002C  00000000   NOP
00000000  00000000   NOP
00000004  00000000   NOP
0000002C  00000000   NOP
00000000  00000000   NOP
00000004  00000000   NOP
0000002C  00000000   NOP
00000000  00000000   NOP
00000004  00000000   NOP
0000002C  00000000   NOP
---  f:/isp_release/software/isp_root/framework/peripheral/int/templates/int_vectorselect_default.h  ----
9D00DC0C  24031000   ADDIU V1, ZERO, 4096
9D00DC10  3C02BF88   LUI V0, -16504
9D00DC14  AC431008   SW V1, 4104(V0)
9D00DC18  03E00008   JR RA
9D00DC1C  00000000   NOP
00000008  00000000   NOP
---  f:/isp_release/software/isp_root/framework/peripheral/int/templates/int_vectorpriority_default.h  --
9D00D820  7CA22940   EXT V0, A1, 5, 6
9D00D824  00021080   SLL V0, V0, 2
9D00D828  24430001   ADDIU V1, V0, 1
9D00D830  30A5001F   ANDI A1, A1, 31
9D00D834  3C02BF88   LUI V0, -16504
9D00D838  24421090   ADDIU V0, V0, 4240
9D00D83C  24A50002   ADDIU A1, A1, 2
9D00D840  00031880   SLL V1, V1, 2
9D00D848  24040007   ADDIU A0, ZERO, 7
9D00D84C  00431821   ADDU V1, V0, V1
9D00D850  00A42004   SLLV A0, A0, A1
9D00D85C  AC640000   SW A0, 0(V1)
9D00D82C  24470002   ADDIU A3, V0, 2
9D00D844  00073880   SLL A3, A3, 2
9D00D854  00471021   ADDU V0, V0, A3
9D00D858  00A62804   SLLV A1, A2, A1
9D00D860  AC450000   SW A1, 0(V0)
9D00D864  03E00008   JR RA
9D00D868  00000000   NOP
00000010  00000000   NOP
9D00D874  7CA22940   EXT V0, A1, 5, 6
9D00D878  00021080   SLL V0, V0, 2
9D00D87C  24430001   ADDIU V1, V0, 1
9D00D884  3C02BF88   LUI V0, -16504
9D00D888  24421090   ADDIU V0, V0, 4240
9D00D88C  30A5001F   ANDI A1, A1, 31
9D00D890  00031880   SLL V1, V1, 2
9D00D898  24040003   ADDIU A0, ZERO, 3
9D00D89C  00431821   ADDU V1, V0, V1
9D00D8A0  00A42004   SLLV A0, A0, A1
9D00D8AC  AC640000   SW A0, 0(V1)
9D00D880  24470002   ADDIU A3, V0, 2
9D00D894  00073880   SLL A3, A3, 2
9D00D8A4  00471021   ADDU V0, V0, A3
9D00D8A8  00A62804   SLLV A1, A2, A1
9D00D8B0  AC450000   SW A1, 0(V0)
9D00D8B4  03E00008   JR RA
9D00D8B8  00000000   NOP
00000010  00000000   NOP
---  f:/isp_release/software/isp_root/framework/peripheral/int/templates/int_trapsource_unsupported.h  --
0000000C  00000000   NOP
---  f:/isp_release/software/isp_root/framework/peripheral/int/templates/int_sourceflag_default.h  ------
00000010  00000000   NOP
00000008  00000000   NOP
9D00DAF4  00051942   SRL V1, A1, 5
9D00DAF8  00031900   SLL V1, V1, 4
9D00DAFC  3C02BF88   LUI V0, -16504
9D00DB00  24630004   ADDIU V1, V1, 4
9D00DB04  24421030   ADDIU V0, V0, 4144
9D00DB08  00431021   ADDU V0, V0, V1
9D00DB0C  24030001   ADDIU V1, ZERO, 1
9D00DB10  00A32804   SLLV A1, V1, A1
9D00DB14  AC450000   SW A1, 0(V0)
9D00DB18  03E00008   JR RA
9D00DB1C  00000000   NOP
---  f:/isp_release/software/isp_root/framework/peripheral/int/templates/int_sourcecontrol_default.h  ---
9D00DB28  00051942   SRL V1, A1, 5
9D00DB2C  00031900   SLL V1, V1, 4
9D00DB30  3C02BF88   LUI V0, -16504
9D00DB34  24630008   ADDIU V1, V1, 8
9D00DB38  24421060   ADDIU V0, V0, 4192
9D00DB3C  00431021   ADDU V0, V0, V1
9D00DB40  24030001   ADDIU V1, ZERO, 1
9D00DB44  00A32804   SLLV A1, V1, A1
9D00DB48  AC450000   SW A1, 0(V0)
9D00DB4C  03E00008   JR RA
9D00DB50  00000000   NOP
00000008  00000000   NOP
00000010  00000000   NOP
---  f:/isp_release/software/isp_root/framework/peripheral/int/templates/int_singlevectorshadowset_default.h
00000008  00000000   NOP
00000008  00000000   NOP
00000008  00000000   NOP
00000010  00000000   NOP
---  f:/isp_release/software/isp_root/framework/peripheral/int/templates/int_priority_unsupported.h  ----
0000000C  00000000   NOP
0000000C  00000000   NOP
0000000C  00000000   NOP
0000000C  00000000   NOP
---  f:/isp_release/software/isp_root/framework/peripheral/int/templates/int_intcpuvector_default.h  ----
00000010  00000000   NOP
00000010  00000000   NOP
---  f:/isp_release/software/isp_root/framework/peripheral/int/templates/int_highpriority_unsupported.h  
0000000C  00000000   NOP
---  f:/isp_release/software/isp_root/framework/peripheral/int/templates/int_externalintedgeselect_default.h
00000008  00000000   NOP
---  f:/isp_release/software/isp_root/framework/peripheral/int/templates/int_enablecontrol_pic32.h  -----
9D00DC28  0B403720   J PLIB_INT_Enable_pic32
9D00DC2C  00000000   NOP
9D00DC30  03E00008   JR RA
9D00DC34  00000000   NOP
9D00DC40  0B403723   J PLIB_INT_Disable_pic32
9D00DC44  00000000   NOP
9D00DC48  03E00008   JR RA
9D00DC4C  00000000   NOP
00000008  00000000   NOP
00000008  00000000   NOP
---  f:/isp_release/software/isp_root/framework/peripheral/int/templates/int_alternatevectortable_unsupported.h
0000000C  00000000   NOP
---  f:/isp_release/software/isp_root/framework/peripheral/int/src/plib_int_pic32.c  --------------------
9D00DC80  41626020   EI V0
9D00DC84  03E00008   JR RA
9D00DC88  AF828064   SW V0, -32668(GP)
9D00DC8C  41626000   DI V0
9D00DC90  03E00008   JR RA
9D00DC94  AF828064   SW V0, -32668(GP)
---  f:/isp_release/software/isp_root/framework/peripheral/int/processor/int_p32mx795f512l.h  -----------
00000000  00000000   NOP
9D00DC04  14800004   BNE A0, ZERO, 0x9D00DC18
9D00DC08  00000000   NOP
00000000  00000000   NOP
00000014  00000000   NOP
00000008  00000000   NOP
00000000  00000000   NOP
00000014  00000000   NOP
00000008  00000000   NOP
00000000  00000000   NOP
00000014  00000000   NOP
00000008  00000000   NOP
00000000  00000000   NOP
00000030  00000000   NOP
00000008  00000000   NOP
00000000  00000000   NOP
9D00DAEC  1480000A   BNE A0, ZERO, 0x9D00DB18
9D00DAF0  00000000   NOP
00000000  00000000   NOP
9D00DB20  1480000A   BNE A0, ZERO, 0x9D00DB4C
9D00DB24  00000000   NOP
00000000  00000000   NOP
00000030  00000000   NOP
00000008  00000000   NOP
00000000  00000000   NOP
9D00D818  14800012   BNE A0, ZERO, 0x9D00D864
9D00D81C  00000000   NOP
00000000  00000000   NOP
00000028  00000000   NOP
00000008  00000000   NOP
9D00D86C  14800011   BNE A0, ZERO, 0x9D00D8B4
9D00D870  00000000   NOP
00000000  00000000   NOP
00000028  00000000   NOP
00000008  00000000   NOP
00000000  00000000   NOP
0000000C  00000000   NOP
00000000  00000000   NOP
9D00DC20  14800003   BNE A0, ZERO, 0x9D00DC30
9D00DC24  00000000   NOP
9D00DC38  14800003   BNE A0, ZERO, 0x9D00DC48
9D00DC3C  00000000   NOP
00000000  00000000   NOP
0000000C  00000000   NOP
00000000  00000000   NOP
00000004  00000000   NOP
0000002C  00000000   NOP
00000000  00000000   NOP
00000004  00000000   NOP
0000002C  00000000   NOP
00000000  00000000   NOP
00000004  00000000   NOP
0000002C  00000000   NOP
00000000  00000000   NOP
00000004  00000000   NOP
0000002C  00000000   NOP
00000000  00000000   NOP
00000004  00000000   NOP
0000002C  00000000   NOP
00000000  00000000   NOP
00000004  00000000   NOP
0000002C  00000000   NOP
00000000  00000000   NOP
00000004  00000000   NOP
0000002C  00000000   NOP
00000000  00000000   NOP
00000004  00000000   NOP
0000002C  00000000   NOP
00000000  00000000   NOP
00000004  00000000   NOP
0000002C  00000000   NOP
00000000  00000000   NOP
00000004  00000000   NOP
0000002C  00000000   NOP
00000000  00000000   NOP
00000004  00000000   NOP
0000002C  00000000   NOP
00000000  00000000   NOP
00000004  00000000   NOP
0000002C  00000000   NOP
00000000  00000000   NOP
00000004  00000000   NOP
0000002C  00000000   NOP
00000000  00000000   NOP
00000004  00000000   NOP
0000002C  00000000   NOP
---  f:/isp_release/software/isp_root/framework/peripheral/ic/templates/ic_timertriggered_unsupported.h  
00000050  00000000   NOP
---  f:/isp_release/software/isp_root/framework/peripheral/ic/templates/ic_timerselect_default.h  -------
00000040  00000000   NOP
00000068  00000000   NOP
00000090  00000000   NOP
000000B8  00000000   NOP
000000E0  00000000   NOP
---  f:/isp_release/software/isp_root/framework/peripheral/ic/templates/ic_syncmodeinput_unsupported.h  -
00000040  00000000   NOP
00000040  00000000   NOP
---  f:/isp_release/software/isp_root/framework/peripheral/ic/templates/ic_stopinidle_default.h  --------
0000003C  00000000   NOP
0000006C  00000000   NOP
00000084  00000000   NOP
0000009C  00000000   NOP
0000003C  00000000   NOP
0000006C  00000000   NOP
00000084  00000000   NOP
0000009C  00000000   NOP
---  f:/isp_release/software/isp_root/framework/peripheral/ic/templates/ic_eventsperinterruptselect_default.h
00000040  00000000   NOP
00000068  00000000   NOP
00000090  00000000   NOP
000000B8  00000000   NOP
000000E0  00000000   NOP
---  f:/isp_release/software/isp_root/framework/peripheral/ic/templates/ic_enablecontrol_default.h  -----
0000003C  00000000   NOP
0000006C  00000000   NOP
00000084  00000000   NOP
0000009C  00000000   NOP
0000003C  00000000   NOP
0000006C  00000000   NOP
00000084  00000000   NOP
0000009C  00000000   NOP
---  f:/isp_release/software/isp_root/framework/peripheral/ic/templates/ic_edgecapture_default.h  -------
00000040  00000000   NOP
00000068  00000000   NOP
00000090  00000000   NOP
000000B8  00000000   NOP
000000E0  00000000   NOP
---  f:/isp_release/software/isp_root/framework/peripheral/ic/templates/ic_clocksource_unsupported.h  ---
00000040  00000000   NOP
00000040  00000000   NOP
00000064  00000000   NOP
00000088  00000000   NOP
000000AC  00000000   NOP
000000D0  00000000   NOP
---  f:/isp_release/software/isp_root/framework/peripheral/ic/templates/ic_buffervalue_32bit_variant.h  -
00000044  00000000   NOP
00000054  00000000   NOP
00000064  00000000   NOP
00000074  00000000   NOP
00000084  00000000   NOP
00000044  00000000   NOP
00000054  00000000   NOP
00000064  00000000   NOP
00000074  00000000   NOP
00000084  00000000   NOP
---  f:/isp_release/software/isp_root/framework/peripheral/ic/templates/ic_buffersize_default.h  --------
00000040  00000000   NOP
00000068  00000000   NOP
00000090  00000000   NOP
000000B8  00000000   NOP
000000E0  00000000   NOP
---  f:/isp_release/software/isp_root/framework/peripheral/ic/templates/ic_bufferoverflowstatus_default.h
00000044  00000000   NOP
00000054  00000000   NOP
00000064  00000000   NOP
00000074  00000000   NOP
00000084  00000000   NOP
---  f:/isp_release/software/isp_root/framework/peripheral/ic/templates/ic_bufferisemptystatus_default.h  
00000044  00000000   NOP
00000058  00000000   NOP
0000006C  00000000   NOP
00000080  00000000   NOP
00000094  00000000   NOP
---  f:/isp_release/software/isp_root/framework/peripheral/ic/templates/ic_alternateclock_default.h  ----
00000040  00000000   NOP
---  f:/isp_release/software/isp_root/framework/peripheral/ic/processor/ic_p32mx795f512l.h  -------------
00000000  00000000   NOP
0000007C  00000000   NOP
00000094  00000000   NOP
000000AC  00000000   NOP
00000064  00000000   NOP
00000000  00000000   NOP
0000007C  00000000   NOP
00000094  00000000   NOP
000000AC  00000000   NOP
00000064  00000000   NOP
00000000  00000000   NOP
00000004  00000000   NOP
00000008  00000000   NOP
00000060  00000000   NOP
00000000  00000000   NOP
00000004  00000000   NOP
00000008  00000000   NOP
00000060  00000000   NOP
00000000  00000000   NOP
0000007C  00000000   NOP
00000094  00000000   NOP
000000AC  00000000   NOP
00000064  00000000   NOP
00000000  00000000   NOP
0000007C  00000000   NOP
00000094  00000000   NOP
000000AC  00000000   NOP
00000064  00000000   NOP
00000000  00000000   NOP
0000008C  00000000   NOP
000000AC  00000000   NOP
000000D4  00000000   NOP
00000064  00000000   NOP
000000FC  00000000   NOP
0000003C  00000000   NOP
00000084  00000000   NOP
00000000  00000000   NOP
0000008C  00000000   NOP
000000AC  00000000   NOP
000000D4  00000000   NOP
00000064  00000000   NOP
000000FC  00000000   NOP
0000003C  00000000   NOP
00000084  00000000   NOP
00000000  00000000   NOP
00000014  00000000   NOP
00000060  00000000   NOP
00000068  00000000   NOP
00000078  00000000   NOP
00000040  00000000   NOP
00000088  00000000   NOP
00000048  00000000   NOP
00000058  00000000   NOP
0000000C  00000000   NOP
00000000  00000000   NOP
00000014  00000000   NOP
00000060  00000000   NOP
00000068  00000000   NOP
00000078  00000000   NOP
00000040  00000000   NOP
00000088  00000000   NOP
00000048  00000000   NOP
00000058  00000000   NOP
0000000C  00000000   NOP
00000000  00000000   NOP
00000014  00000000   NOP
00000068  00000000   NOP
00000074  00000000   NOP
00000088  00000000   NOP
00000040  00000000   NOP
0000009C  00000000   NOP
0000004C  00000000   NOP
00000060  00000000   NOP
0000000C  00000000   NOP
00000000  00000000   NOP
00000014  00000000   NOP
00000060  00000000   NOP
00000068  00000000   NOP
00000078  00000000   NOP
00000040  00000000   NOP
00000088  00000000   NOP
00000048  00000000   NOP
00000058  00000000   NOP
0000000C  00000000   NOP
00000000  00000000   NOP
00000084  00000000   NOP
000000A0  00000000   NOP
000000C4  00000000   NOP
00000060  00000000   NOP
000000E8  00000000   NOP
0000003C  00000000   NOP
0000007C  00000000   NOP
00000000  00000000   NOP
0000008C  00000000   NOP
000000AC  00000000   NOP
000000D4  00000000   NOP
00000064  00000000   NOP
000000FC  00000000   NOP
0000003C  00000000   NOP
00000084  00000000   NOP
00000000  00000000   NOP
0000008C  00000000   NOP
000000AC  00000000   NOP
000000D4  00000000   NOP
00000064  00000000   NOP
000000FC  00000000   NOP
0000003C  00000000   NOP
00000084  00000000   NOP
00000000  00000000   NOP
00000004  00000000   NOP
00000008  00000000   NOP
00000060  00000000   NOP
00000000  00000000   NOP
00000004  00000000   NOP
00000008  00000000   NOP
00000060  00000000   NOP
00000000  00000000   NOP
00000004  00000000   NOP
00000008  00000000   NOP
00000060  00000000   NOP
00000000  00000000   NOP
00000004  00000000   NOP
00000008  00000000   NOP
00000020  00000000   NOP
00000010  00000000   NOP
00000000  00000000   NOP
---  f:/isp_release/software/isp_root/framework/peripheral/i2c/templates/i2c_transmitteroverflow_default.h
00000044  00000000   NOP
00000054  00000000   NOP
00000064  00000000   NOP
00000074  00000000   NOP
00000084  00000000   NOP
0000003C  00000000   NOP
0000006C  00000000   NOP
00000084  00000000   NOP
0000009C  00000000   NOP
---  f:/isp_release/software/isp_root/framework/peripheral/i2c/templates/i2c_transmitterbytesend_default.h
00000040  00000000   NOP
00000050  00000000   NOP
00000060  00000000   NOP
00000070  00000000   NOP
00000080  00000000   NOP
---  f:/isp_release/software/isp_root/framework/peripheral/i2c/templates/i2c_transmitterbytecomplete_default.h
00000044  00000000   NOP
00000058  00000000   NOP
0000006C  00000000   NOP
00000080  00000000   NOP
00000094  00000000   NOP
---  f:/isp_release/software/isp_root/framework/peripheral/i2c/templates/i2c_transmitterbyteacknowledge_default.h
00000044  00000000   NOP
00000058  00000000   NOP
0000006C  00000000   NOP
00000080  00000000   NOP
00000094  00000000   NOP
---  f:/isp_release/software/isp_root/framework/peripheral/i2c/templates/i2c_transmitterbusy_default.h  -
00000044  00000000   NOP
00000054  00000000   NOP
00000064  00000000   NOP
00000074  00000000   NOP
00000084  00000000   NOP
00000044  00000000   NOP
00000058  00000000   NOP
0000006C  00000000   NOP
00000080  00000000   NOP
00000094  00000000   NOP
---  f:/isp_release/software/isp_root/framework/peripheral/i2c/templates/i2c_stopinidle_default.h  ------
0000003C  00000000   NOP
0000006C  00000000   NOP
00000084  00000000   NOP
0000009C  00000000   NOP
0000003C  00000000   NOP
0000006C  00000000   NOP
00000084  00000000   NOP
0000009C  00000000   NOP
---  f:/isp_release/software/isp_root/framework/peripheral/i2c/templates/i2c_stopdetect_default.h  ------
00000044  00000000   NOP
00000048  00000000   NOP
00000054  00000000   NOP
00000064  00000000   NOP
00000074  00000000   NOP
00000084  00000000   NOP
0000003C  00000000   NOP
0000006C  00000000   NOP
00000084  00000000   NOP
0000009C  00000000   NOP
---  f:/isp_release/software/isp_root/framework/peripheral/i2c/templates/i2c_startdetect_default.h  -----
00000044  00000000   NOP
00000054  00000000   NOP
00000064  00000000   NOP
00000074  00000000   NOP
00000084  00000000   NOP
0000003C  00000000   NOP
0000006C  00000000   NOP
00000084  00000000   NOP
0000009C  00000000   NOP
---  f:/isp_release/software/isp_root/framework/peripheral/i2c/templates/i2c_smbus_default.h  -----------
0000003C  00000000   NOP
0000006C  00000000   NOP
00000084  00000000   NOP
0000009C  00000000   NOP
0000003C  00000000   NOP
0000006C  00000000   NOP
00000084  00000000   NOP
0000009C  00000000   NOP
---  f:/isp_release/software/isp_root/framework/peripheral/i2c/templates/i2c_slavereadrequest_default.h  
00000044  00000000   NOP
00000054  00000000   NOP
00000064  00000000   NOP
00000074  00000000   NOP
00000084  00000000   NOP
---  f:/isp_release/software/isp_root/framework/peripheral/i2c/templates/i2c_slavemask_default.h  -------
00000040  00000000   NOP
00000050  00000000   NOP
00000060  00000000   NOP
00000070  00000000   NOP
00000080  00000000   NOP
00000044  00000000   NOP
00000054  00000000   NOP
00000064  00000000   NOP
00000074  00000000   NOP
00000084  00000000   NOP
00000040  00000000   NOP
00000050  00000000   NOP
00000060  00000000   NOP
00000070  00000000   NOP
00000080  00000000   NOP
00000044  00000000   NOP
00000054  00000000   NOP
00000064  00000000   NOP
00000074  00000000   NOP
00000084  00000000   NOP
---  f:/isp_release/software/isp_root/framework/peripheral/i2c/templates/i2c_slaveinterruptonstop_unsupported.h
00000040  00000000   NOP
00000040  00000000   NOP
00000044  00000000   NOP
00000048  00000000   NOP
0000004C  00000000   NOP
00000040  00000000   NOP
---  f:/isp_release/software/isp_root/framework/peripheral/i2c/templates/i2c_slavedatadetect_default.h  -
00000044  00000000   NOP
00000054  00000000   NOP
00000064  00000000   NOP
00000074  00000000   NOP
00000084  00000000   NOP
00000044  00000000   NOP
00000058  00000000   NOP
0000006C  00000000   NOP
00000080  00000000   NOP
00000094  00000000   NOP
---  f:/isp_release/software/isp_root/framework/peripheral/i2c/templates/i2c_slaveclockhold_default.h  --
0000003C  00000000   NOP
0000006C  00000000   NOP
00000084  00000000   NOP
0000009C  00000000   NOP
0000003C  00000000   NOP
0000006C  00000000   NOP
00000084  00000000   NOP
0000009C  00000000   NOP
---  f:/isp_release/software/isp_root/framework/peripheral/i2c/templates/i2c_slavebuscollisiondetect_unsupported.h
00000040  00000000   NOP
00000040  00000000   NOP
00000040  00000000   NOP
---  f:/isp_release/software/isp_root/framework/peripheral/i2c/templates/i2c_slaveaddressdetect_default.h
00000044  00000000   NOP
00000054  00000000   NOP
00000064  00000000   NOP
00000074  00000000   NOP
00000084  00000000   NOP
---  f:/isp_release/software/isp_root/framework/peripheral/i2c/templates/i2c_slaveaddress7bit_default.h  
00000040  00000000   NOP
00000060  00000000   NOP
00000080  00000000   NOP
000000A0  00000000   NOP
000000C0  00000000   NOP
00000044  00000000   NOP
00000064  00000000   NOP
00000084  00000000   NOP
000000A4  00000000   NOP
000000C4  00000000   NOP
00000044  00000000   NOP
00000054  00000000   NOP
00000064  00000000   NOP
00000074  00000000   NOP
00000084  00000000   NOP
---  f:/isp_release/software/isp_root/framework/peripheral/i2c/templates/i2c_slaveaddress10bit_default.h  
00000040  00000000   NOP
00000060  00000000   NOP
00000080  00000000   NOP
000000A0  00000000   NOP
000000C0  00000000   NOP
00000044  00000000   NOP
00000064  00000000   NOP
00000084  00000000   NOP
000000A4  00000000   NOP
000000C4  00000000   NOP
00000044  00000000   NOP
00000054  00000000   NOP
00000064  00000000   NOP
00000074  00000000   NOP
00000084  00000000   NOP
00000044  00000000   NOP
00000054  00000000   NOP
00000064  00000000   NOP
00000074  00000000   NOP
00000084  00000000   NOP
---  f:/isp_release/software/isp_root/framework/peripheral/i2c/templates/i2c_reservedaddressprotect_default.h
0000003C  00000000   NOP
0000006C  00000000   NOP
00000084  00000000   NOP
0000009C  00000000   NOP
0000003C  00000000   NOP
0000006C  00000000   NOP
00000070  00000000   NOP
00000074  00000000   NOP
00000084  00000000   NOP
0000009C  00000000   NOP
---  f:/isp_release/software/isp_root/framework/peripheral/i2c/templates/i2c_receiveroverflow_default.h  
00000044  00000000   NOP
00000054  00000000   NOP
00000064  00000000   NOP
00000074  00000000   NOP
00000084  00000000   NOP
0000003C  00000000   NOP
0000006C  00000000   NOP
00000084  00000000   NOP
0000009C  00000000   NOP
---  f:/isp_release/software/isp_root/framework/peripheral/i2c/templates/i2c_receivedbyteget_default.h  -
00000044  00000000   NOP
00000054  00000000   NOP
00000064  00000000   NOP
00000074  00000000   NOP
00000084  00000000   NOP
---  f:/isp_release/software/isp_root/framework/peripheral/i2c/templates/i2c_receivedbyteavailable_default.h
00000044  00000000   NOP
00000054  00000000   NOP
00000064  00000000   NOP
00000074  00000000   NOP
00000084  00000000   NOP
---  f:/isp_release/software/isp_root/framework/peripheral/i2c/templates/i2c_receivedbyteacknowledge_default.h
0000003C  00000000   NOP
00000060  00000000   NOP
00000084  00000000   NOP
000000A0  00000000   NOP
000000BC  00000000   NOP
00000044  00000000   NOP
00000068  00000000   NOP
0000008C  00000000   NOP
000000A8  00000000   NOP
000000C4  00000000   NOP
000000D8  00000000   NOP
000000EC  00000000   NOP
00000100  00000000   NOP
00000114  00000000   NOP
00000130  00000000   NOP
00000050  00000000   NOP
00000074  00000000   NOP
00000098  00000000   NOP
000000B4  00000000   NOP
000000D0  00000000   NOP
000000E4  00000000   NOP
000000F8  00000000   NOP
0000010C  00000000   NOP
00000120  00000000   NOP
0000013C  00000000   NOP
00000044  00000000   NOP
00000054  00000000   NOP
00000064  00000000   NOP
00000074  00000000   NOP
00000084  00000000   NOP
00000044  00000000   NOP
00000058  00000000   NOP
0000006C  00000000   NOP
00000080  00000000   NOP
00000094  00000000   NOP
00000048  00000000   NOP
0000005C  00000000   NOP
00000070  00000000   NOP
00000084  00000000   NOP
00000098  00000000   NOP
---  f:/isp_release/software/isp_root/framework/peripheral/i2c/templates/i2c_moduleenable_default.h  ----
0000003C  00000000   NOP
0000006C  00000000   NOP
00000084  00000000   NOP
0000009C  00000000   NOP
0000003C  00000000   NOP
0000006C  00000000   NOP
00000084  00000000   NOP
00000088  00000000   NOP
0000008C  00000000   NOP
00000090  00000000   NOP
0000009C  00000000   NOP
---  f:/isp_release/software/isp_root/framework/peripheral/i2c/templates/i2c_masterstop_default.h  ------
0000003C  00000000   NOP
0000006C  00000000   NOP
00000084  00000000   NOP
0000009C  00000000   NOP
---  f:/isp_release/software/isp_root/framework/peripheral/i2c/templates/i2c_masterstartrepeat_default.h  
0000003C  00000000   NOP
0000006C  00000000   NOP
00000084  00000000   NOP
0000009C  00000000   NOP
---  f:/isp_release/software/isp_root/framework/peripheral/i2c/templates/i2c_masterstart_default.h  -----
0000003C  00000000   NOP
0000006C  00000000   NOP
00000084  00000000   NOP
0000009C  00000000   NOP
---  f:/isp_release/software/isp_root/framework/peripheral/i2c/templates/i2c_masterreceiverclock1byte_default.h
0000003C  00000000   NOP
0000006C  00000000   NOP
00000084  00000000   NOP
0000009C  00000000   NOP
---  f:/isp_release/software/isp_root/framework/peripheral/i2c/templates/i2c_ipmi_unsupported.h  --------
00000040  00000000   NOP
---  f:/isp_release/software/isp_root/framework/peripheral/i2c/templates/i2c_highfrequency_default.h  ---
0000003C  00000000   NOP
0000006C  00000000   NOP
00000084  00000000   NOP
0000009C  00000000   NOP
0000003C  00000000   NOP
0000006C  00000000   NOP
00000084  00000000   NOP
0000009C  00000000   NOP
---  f:/isp_release/software/isp_root/framework/peripheral/i2c/templates/i2c_generalcalladdressdetect_default.h
00000044  00000000   NOP
00000054  00000000   NOP
00000064  00000000   NOP
00000074  00000000   NOP
00000084  00000000   NOP
---  f:/isp_release/software/isp_root/framework/peripheral/i2c/templates/i2c_generalcall_default.h  -----
0000003C  00000000   NOP
0000006C  00000000   NOP
00000084  00000000   NOP
0000009C  00000000   NOP
0000003C  00000000   NOP
0000006C  00000000   NOP
00000084  00000000   NOP
0000009C  00000000   NOP
---  f:/isp_release/software/isp_root/framework/peripheral/i2c/templates/i2c_datalineholdtime_unsupported.h
00000040  00000000   NOP
---  f:/isp_release/software/isp_root/framework/peripheral/i2c/templates/i2c_clockstretching_default.h  -
0000003C  00000000   NOP
0000006C  00000000   NOP
00000084  00000000   NOP
0000009C  00000000   NOP
0000003C  00000000   NOP
0000006C  00000000   NOP
00000084  00000000   NOP
0000009C  00000000   NOP
---  f:/isp_release/software/isp_root/framework/peripheral/i2c/templates/i2c_busidle_default.h  ---------
00000044  00000000   NOP
0000006C  00000000   NOP
00000094  00000000   NOP
000000BC  00000000   NOP
000000E4  00000000   NOP
00000058  00000000   NOP
00000080  00000000   NOP
000000A8  00000000   NOP
000000D0  00000000   NOP
000000F8  00000000   NOP
0000004C  00000000   NOP
00000074  00000000   NOP
0000009C  00000000   NOP
000000A0  00000000   NOP
000000C4  00000000   NOP
000000C8  00000000   NOP
000000EC  00000000   NOP
---  f:/isp_release/software/isp_root/framework/peripheral/i2c/templates/i2c_baudrate_default.h  --------
0000004C  00000000   NOP
000000B4  00000000   NOP
000000CC  00000000   NOP
00000140  00000000   NOP
0000014C  00000000   NOP
000001C0  00000000   NOP
000001CC  00000000   NOP
000001D0  00000000   NOP
000001D4  00000000   NOP
000001D8  00000000   NOP
000001DC  00000000   NOP
000001E0  00000000   NOP
000001E4  00000000   NOP
000001E8  00000000   NOP
000001EC  00000000   NOP
000001F0  00000000   NOP
000001F4  00000000   NOP
000001F8  00000000   NOP
000001FC  00000000   NOP
00000200  00000000   NOP
00000204  00000000   NOP
00000208  00000000   NOP
0000020C  00000000   NOP
00000210  00000000   NOP
00000214  00000000   NOP
00000218  00000000   NOP
0000021C  00000000   NOP
00000220  00000000   NOP
00000224  00000000   NOP
00000228  00000000   NOP
0000022C  00000000   NOP
00000230  00000000   NOP
00000240  00000000   NOP
0000024C  00000000   NOP
00000250  00000000   NOP
00000254  00000000   NOP
00000258  00000000   NOP
0000025C  00000000   NOP
00000260  00000000   NOP
00000264  00000000   NOP
00000268  00000000   NOP
0000026C  00000000   NOP
00000270  00000000   NOP
00000274  00000000   NOP
00000278  00000000   NOP
0000027C  00000000   NOP
00000280  00000000   NOP
00000284  00000000   NOP
00000288  00000000   NOP
0000028C  00000000   NOP
00000290  00000000   NOP
00000294  00000000   NOP
00000298  00000000   NOP
0000029C  00000000   NOP
000002A0  00000000   NOP
000002A4  00000000   NOP
000002A8  00000000   NOP
000002AC  00000000   NOP
000002B0  00000000   NOP
000002B4  00000000   NOP
000002B8  00000000   NOP
000002BC  00000000   NOP
000002C0  00000000   NOP
00000064  00000000   NOP
00000070  00000000   NOP
00000090  00000000   NOP
000000AC  00000000   NOP
000000E4  00000000   NOP
000000F4  00000000   NOP
00000104  00000000   NOP
00000114  00000000   NOP
00000068  00000000   NOP
00000080  00000000   NOP
0000009C  00000000   NOP
---  f:/isp_release/software/isp_root/framework/peripheral/i2c/templates/i2c_arbitrationloss_default.h  -
00000044  00000000   NOP
00000054  00000000   NOP
00000064  00000000   NOP
00000074  00000000   NOP
00000084  00000000   NOP
0000003C  00000000   NOP
0000006C  00000000   NOP
00000084  00000000   NOP
0000009C  00000000   NOP
---  f:/isp_release/software/isp_root/framework/peripheral/i2c/templates/i2c_acksequenceisinprogress_unsupported.h
00000050  00000000   NOP
---  f:/isp_release/software/isp_root/framework/peripheral/i2c/processor/i2c_p32mx795f512l.h  -----------
00000000  00000000   NOP
0000007C  00000000   NOP
00000094  00000000   NOP
000000AC  00000000   NOP
00000064  00000000   NOP
00000000  00000000   NOP
0000007C  00000000   NOP
00000094  00000000   NOP
000000AC  00000000   NOP
00000064  00000000   NOP
00000000  00000000   NOP
0000007C  00000000   NOP
00000094  00000000   NOP
000000AC  00000000   NOP
00000064  00000000   NOP
00000000  00000000   NOP
0000007C  00000000   NOP
00000094  00000000   NOP
000000AC  00000000   NOP
000000B0  00000000   NOP
00000064  00000000   NOP
00000068  00000000   NOP
00000000  00000000   NOP
0000007C  00000000   NOP
00000094  00000000   NOP
000000AC  00000000   NOP
00000064  00000000   NOP
00000000  00000000   NOP
0000007C  00000000   NOP
00000094  00000000   NOP
000000AC  00000000   NOP
00000064  00000000   NOP
00000000  00000000   NOP
0000007C  00000000   NOP
00000094  00000000   NOP
000000AC  00000000   NOP
00000064  00000000   NOP
00000000  00000000   NOP
0000007C  00000000   NOP
00000094  00000000   NOP
000000AC  00000000   NOP
00000064  00000000   NOP
00000000  00000000   NOP
0000007C  00000000   NOP
00000094  00000000   NOP
00000098  00000000   NOP
000000AC  00000000   NOP
00000064  00000000   NOP
00000000  00000000   NOP
0000007C  00000000   NOP
00000094  00000000   NOP
000000AC  00000000   NOP
00000064  00000000   NOP
00000000  00000000   NOP
0000007C  00000000   NOP
00000094  00000000   NOP
000000AC  00000000   NOP
00000064  00000000   NOP
00000000  00000000   NOP
0000007C  00000000   NOP
00000094  00000000   NOP
000000AC  00000000   NOP
00000064  00000000   NOP
00000000  00000000   NOP
00000004  00000000   NOP
00000008  00000000   NOP
00000060  00000000   NOP
00000000  00000000   NOP
00000004  00000000   NOP
00000008  00000000   NOP
00000060  00000000   NOP
00000000  00000000   NOP
0000007C  00000000   NOP
00000094  00000000   NOP
00000098  00000000   NOP
000000AC  00000000   NOP
00000064  00000000   NOP
00000000  00000000   NOP
0000007C  00000000   NOP
00000080  00000000   NOP
00000084  00000000   NOP
00000094  00000000   NOP
000000AC  00000000   NOP
00000064  00000000   NOP
00000000  00000000   NOP
00000014  00000000   NOP
00000060  00000000   NOP
00000068  00000000   NOP
00000078  00000000   NOP
00000040  00000000   NOP
00000088  00000000   NOP
0000008C  00000000   NOP
00000048  00000000   NOP
00000058  00000000   NOP
0000000C  00000000   NOP
00000000  00000000   NOP
0000007C  00000000   NOP
00000094  00000000   NOP
000000AC  00000000   NOP
00000064  00000000   NOP
00000000  00000000   NOP
00000014  00000000   NOP
00000060  00000000   NOP
00000068  00000000   NOP
00000078  00000000   NOP
00000040  00000000   NOP
00000088  00000000   NOP
00000048  00000000   NOP
00000058  00000000   NOP
0000000C  00000000   NOP
00000000  00000000   NOP
0000007C  00000000   NOP
00000094  00000000   NOP
000000AC  00000000   NOP
00000064  00000000   NOP
00000068  00000000   NOP
0000006C  00000000   NOP
00000000  00000000   NOP
00000014  00000000   NOP
00000060  00000000   NOP
00000068  00000000   NOP
00000078  00000000   NOP
00000040  00000000   NOP
00000088  00000000   NOP
00000048  00000000   NOP
00000058  00000000   NOP
0000000C  00000000   NOP
00000000  00000000   NOP
0000007C  00000000   NOP
00000094  00000000   NOP
000000AC  00000000   NOP
00000064  00000000   NOP
00000000  00000000   NOP
00000060  00000000   NOP
00000088  00000000   NOP
000000B0  00000000   NOP
000000D8  00000000   NOP
00000100  00000000   NOP
00000000  00000000   NOP
00000014  00000000   NOP
000000E0  00000000   NOP
000000E4  00000000   NOP
000000E8  00000000   NOP
000000EC  00000000   NOP
000000F0  00000000   NOP
00000090  00000000   NOP
000000B8  00000000   NOP
000000BC  00000000   NOP
00000040  00000000   NOP
00000068  00000000   NOP
0000000C  00000000   NOP
00000010  00000000   NOP
00000014  00000000   NOP
00000018  00000000   NOP
0000001C  00000000   NOP
00000000  00000000   NOP
00000008  00000000   NOP
00000004  00000000   NOP
00000014  00000000   NOP
000001B4  00000000   NOP
00000234  00000000   NOP
00000238  00000000   NOP
0000023C  00000000   NOP
00000240  00000000   NOP
000002B4  00000000   NOP
00000134  00000000   NOP
000000B0  00000000   NOP
000000B8  00000000   NOP
00000130  00000000   NOP
00000138  00000000   NOP
00000144  00000000   NOP
000001B0  00000000   NOP
000001B8  00000000   NOP
000001C4  00000000   NOP
00000230  00000000   NOP
00000238  00000000   NOP
0000023C  00000000   NOP
00000240  00000000   NOP
00000244  00000000   NOP
00000248  00000000   NOP
0000024C  00000000   NOP
000002B0  00000000   NOP
000002B8  00000000   NOP
000002BC  00000000   NOP
000002C0  00000000   NOP
000002C4  00000000   NOP
000002C8  00000000   NOP
000002CC  00000000   NOP
000002D0  00000000   NOP
000002D4  00000000   NOP
000002D8  00000000   NOP
000002DC  00000000   NOP
000002E0  00000000   NOP
00000000  00000000   NOP
00000008  00000000   NOP
00000004  00000000   NOP
00000010  00000000   NOP
00000030  00000000   NOP
000000F0  00000000   NOP
00000100  00000000   NOP
00000110  00000000   NOP
00000060  00000000   NOP
000000E0  00000000   NOP
0000001C  00000000   NOP
00000018  00000000   NOP
00000020  00000000   NOP
000000CC  00000000   NOP
00000000  00000000   NOP
0000007C  00000000   NOP
00000094  00000000   NOP
000000B4  00000000   NOP
0000005C  00000000   NOP
000000D4  00000000   NOP
0000003C  00000000   NOP
00000074  00000000   NOP
00000000  00000000   NOP
00000014  00000000   NOP
00000060  00000000   NOP
00000068  00000000   NOP
0000006C  00000000   NOP
00000078  00000000   NOP
00000040  00000000   NOP
00000088  00000000   NOP
00000048  00000000   NOP
00000058  00000000   NOP
0000000C  00000000   NOP
00000000  00000000   NOP
0000007C  00000000   NOP
00000094  00000000   NOP
000000B4  00000000   NOP
0000005C  00000000   NOP
000000D4  00000000   NOP
0000003C  00000000   NOP
00000074  00000000   NOP
00000000  00000000   NOP
00000014  00000000   NOP
00000060  00000000   NOP
00000068  00000000   NOP
00000078  00000000   NOP
00000040  00000000   NOP
00000088  00000000   NOP
00000048  00000000   NOP
00000058  00000000   NOP
0000000C  00000000   NOP
00000000  00000000   NOP
00000014  00000000   NOP
00000060  00000000   NOP
00000068  00000000   NOP
00000078  00000000   NOP
00000040  00000000   NOP
00000088  00000000   NOP
00000048  00000000   NOP
00000058  00000000   NOP
0000000C  00000000   NOP
00000000  00000000   NOP
00000014  00000000   NOP
00000060  00000000   NOP
00000068  00000000   NOP
00000078  00000000   NOP
00000040  00000000   NOP
00000088  00000000   NOP
00000048  00000000   NOP
00000058  00000000   NOP
0000000C  00000000   NOP
00000000  00000000   NOP
00000014  00000000   NOP
00000060  00000000   NOP
00000068  00000000   NOP
00000078  00000000   NOP
00000040  00000000   NOP
00000088  00000000   NOP
00000048  00000000   NOP
00000058  00000000   NOP
0000000C  00000000   NOP
00000000  00000000   NOP
0000005C  00000000   NOP
00000064  00000000   NOP
00000074  00000000   NOP
0000004C  00000000   NOP
00000084  00000000   NOP
0000003C  00000000   NOP
00000054  00000000   NOP
00000000  00000000   NOP
00000014  00000000   NOP
00000060  00000000   NOP
00000068  00000000   NOP
00000078  00000000   NOP
00000040  00000000   NOP
00000088  00000000   NOP
00000048  00000000   NOP
00000058  00000000   NOP
0000000C  00000000   NOP
00000000  00000000   NOP
0000005C  00000000   NOP
00000064  00000000   NOP
00000074  00000000   NOP
0000004C  00000000   NOP
00000084  00000000   NOP
00000088  00000000   NOP
0000003C  00000000   NOP
00000054  00000000   NOP
00000000  00000000   NOP
00000014  00000000   NOP
00000060  00000000   NOP
00000068  00000000   NOP
00000078  00000000   NOP
00000040  00000000   NOP
00000088  00000000   NOP
00000048  00000000   NOP
00000058  00000000   NOP
0000000C  00000000   NOP
00000000  00000000   NOP
00000014  00000000   NOP
00000060  00000000   NOP
00000068  00000000   NOP
00000078  00000000   NOP
00000040  00000000   NOP
00000088  00000000   NOP
00000048  00000000   NOP
00000058  00000000   NOP
0000000C  00000000   NOP
00000000  00000000   NOP
00000014  00000000   NOP
00000060  00000000   NOP
00000068  00000000   NOP
00000078  00000000   NOP
00000040  00000000   NOP
00000088  00000000   NOP
00000048  00000000   NOP
00000058  00000000   NOP
0000000C  00000000   NOP
00000000  00000000   NOP
00000014  00000000   NOP
00000068  00000000   NOP
00000074  00000000   NOP
00000088  00000000   NOP
00000040  00000000   NOP
0000009C  00000000   NOP
0000004C  00000000   NOP
00000060  00000000   NOP
0000000C  00000000   NOP
00000000  00000000   NOP
0000007C  00000000   NOP
00000094  00000000   NOP
000000AC  00000000   NOP
00000064  00000000   NOP
00000000  00000000   NOP
0000007C  00000000   NOP
00000094  00000000   NOP
000000AC  00000000   NOP
00000064  00000000   NOP
00000000  00000000   NOP
0000007C  00000000   NOP
00000094  00000000   NOP
000000AC  00000000   NOP
00000064  00000000   NOP
00000000  00000000   NOP
0000007C  00000000   NOP
00000094  00000000   NOP
000000AC  00000000   NOP
00000064  00000000   NOP
00000000  00000000   NOP
0000007C  00000000   NOP
00000094  00000000   NOP
000000AC  00000000   NOP
00000064  00000000   NOP
00000000  00000000   NOP
0000007C  00000000   NOP
00000094  00000000   NOP
000000AC  00000000   NOP
00000064  00000000   NOP
00000000  00000000   NOP
00000014  00000000   NOP
00000060  00000000   NOP
00000068  00000000   NOP
00000078  00000000   NOP
00000040  00000000   NOP
00000088  00000000   NOP
00000048  00000000   NOP
00000058  00000000   NOP
0000000C  00000000   NOP
00000000  00000000   NOP
00000014  00000000   NOP
00000068  00000000   NOP
00000074  00000000   NOP
00000088  00000000   NOP
00000040  00000000   NOP
0000009C  00000000   NOP
0000004C  00000000   NOP
00000060  00000000   NOP
0000000C  00000000   NOP
00000000  00000000   NOP
0000005C  00000000   NOP
00000064  00000000   NOP
00000074  00000000   NOP
0000004C  00000000   NOP
00000084  00000000   NOP
0000003C  00000000   NOP
00000054  00000000   NOP
00000000  00000000   NOP
00000014  00000000   NOP
00000068  00000000   NOP
00000074  00000000   NOP
00000088  00000000   NOP
00000040  00000000   NOP
0000009C  00000000   NOP
0000004C  00000000   NOP
00000060  00000000   NOP
0000000C  00000000   NOP
00000000  00000000   NOP
00000014  00000000   NOP
00000068  00000000   NOP
00000074  00000000   NOP
00000088  00000000   NOP
00000040  00000000   NOP
0000009C  00000000   NOP
0000004C  00000000   NOP
00000060  00000000   NOP
0000000C  00000000   NOP
00000000  00000000   NOP
00000014  00000000   NOP
00000060  00000000   NOP
00000068  00000000   NOP
00000078  00000000   NOP
00000040  00000000   NOP
00000088  00000000   NOP
00000048  00000000   NOP
00000058  00000000   NOP
0000000C  00000000   NOP
00000000  00000000   NOP
0000007C  00000000   NOP
00000094  00000000   NOP
000000AC  00000000   NOP
00000064  00000000   NOP
00000000  00000000   NOP
00000014  00000000   NOP
00000060  00000000   NOP
00000068  00000000   NOP
00000078  00000000   NOP
00000040  00000000   NOP
00000088  00000000   NOP
00000048  00000000   NOP
00000058  00000000   NOP
0000000C  00000000   NOP
00000000  00000000   NOP
00000014  00000000   NOP
00000060  00000000   NOP
00000064  00000000   NOP
00000068  00000000   NOP
00000078  00000000   NOP
00000040  00000000   NOP
00000088  00000000   NOP
00000048  00000000   NOP
00000058  00000000   NOP
0000000C  00000000   NOP
00000000  00000000   NOP
0000007C  00000000   NOP
00000000  00000000   NOP
00000014  00000000   NOP
00000060  00000000   NOP
00000068  00000000   NOP
00000078  00000000   NOP
00000040  00000000   NOP
00000088  00000000   NOP
00000048  00000000   NOP
00000058  00000000   NOP
0000000C  00000000   NOP
00000000  00000000   NOP
00000014  00000000   NOP
00000068  00000000   NOP
00000074  00000000   NOP
00000088  00000000   NOP
00000040  00000000   NOP
0000009C  00000000   NOP
0000004C  00000000   NOP
00000060  00000000   NOP
0000000C  00000000   NOP
00000000  00000000   NOP
00000014  00000000   NOP
00000060  00000000   NOP
00000068  00000000   NOP
00000078  00000000   NOP
00000040  00000000   NOP
00000088  00000000   NOP
00000048  00000000   NOP
00000058  00000000   NOP
0000000C  00000000   NOP
00000000  00000000   NOP
0000007C  00000000   NOP
00000094  00000000   NOP
000000AC  00000000   NOP
00000064  00000000   NOP
00000000  00000000   NOP
00000004  00000000   NOP
00000008  00000000   NOP
00000060  00000000   NOP
00000000  00000000   NOP
00000004  00000000   NOP
00000008  00000000   NOP
00000060  00000000   NOP
00000000  00000000   NOP
00000004  00000000   NOP
00000008  00000000   NOP
00000060  00000000   NOP
00000000  00000000   NOP
00000004  00000000   NOP
00000008  00000000   NOP
00000060  00000000   NOP
00000000  00000000   NOP
00000004  00000000   NOP
00000008  00000000   NOP
00000060  00000000   NOP
00000000  00000000   NOP
00000004  00000000   NOP
00000008  00000000   NOP
00000060  00000000   NOP
00000000  00000000   NOP
00000004  00000000   NOP
00000008  00000000   NOP
00000060  00000000   NOP
00000000  00000000   NOP
00000004  00000000   NOP
00000008  00000000   NOP
00000060  00000000   NOP
00000000  00000000   NOP
00000004  00000000   NOP
00000008  00000000   NOP
00000060  00000000   NOP
00000000  00000000   NOP
00000004  00000000   NOP
00000008  00000000   NOP
00000060  00000000   NOP
00000000  00000000   NOP
00000004  00000000   NOP
00000008  00000000   NOP
00000060  00000000   NOP
00000000  00000000   NOP
00000004  00000000   NOP
00000008  00000000   NOP
00000020  00000000   NOP
00000010  00000000   NOP
00000000  00000000   NOP
---  f:/isp_release/software/isp_root/framework/peripheral/eth/templates/eth_txpacketdescriptoraddress_default.h
00000008  00000000   NOP
00000010  00000000   NOP
---  f:/isp_release/software/isp_root/framework/peripheral/eth/templates/eth_transmitrts_default.h  -----
00000008  00000000   NOP
00000010  00000000   NOP
---  f:/isp_release/software/isp_root/framework/peripheral/eth/templates/eth_stopinidle_default.h  ------
00000008  00000000   NOP
00000010  00000000   NOP
00000010  00000000   NOP
00000024  00000000   NOP
000000A8  00000000   NOP
00000098  00000000   NOP
00000088  00000000   NOP
00000078  00000000   NOP
00000068  00000000   NOP
0000006C  00000000   NOP
00000058  00000000   NOP
0000000C  00000000   NOP
0000010C  00000000   NOP
000000E4  00000000   NOP
000000C4  00000000   NOP
0000009C  00000000   NOP
0000007C  00000000   NOP
00000054  00000000   NOP
---  f:/isp_release/software/isp_root/framework/peripheral/eth/templates/eth_rxpacketdescriptoraddress_default.h
00000008  00000000   NOP
00000010  00000000   NOP
---  f:/isp_release/software/isp_root/framework/peripheral/eth/templates/eth_rxbuffercountdecrement_default.h
00000008  00000000   NOP
00000008  00000000   NOP
00000010  00000000   NOP
00000008  00000000   NOP
---  f:/isp_release/software/isp_root/framework/peripheral/eth/templates/eth_retransmissionmaximum_default.h
00000010  00000000   NOP
00000008  00000000   NOP
00000008  00000000   NOP
00000010  00000000   NOP
00000008  00000000   NOP
00000010  00000000   NOP
---  f:/isp_release/software/isp_root/framework/peripheral/eth/templates/eth_receiveoverflowcount_default.h
00000008  00000000   NOP
00000010  00000000   NOP
---  f:/isp_release/software/isp_root/framework/peripheral/eth/templates/eth_receivefilters_default.h  --
00000008  00000000   NOP
00000010  00000000   NOP
---  f:/isp_release/software/isp_root/framework/peripheral/eth/templates/eth_receiveenable_default.h  ---
00000008  00000000   NOP
00000010  00000000   NOP
00000010  00000000   NOP
0000004C  00000000   NOP
00000024  00000000   NOP
---  f:/isp_release/software/isp_root/framework/peripheral/eth/templates/eth_pausetimer_default.h  ------
00000008  00000000   NOP
00000010  00000000   NOP
---  f:/isp_release/software/isp_root/framework/peripheral/eth/templates/eth_patternmatch_default.h  ----
0000000C  00000000   NOP
0000003C  00000000   NOP
00000020  00000000   NOP
00000028  00000000   NOP
0000001C  00000000   NOP
00000010  00000000   NOP
00000038  00000000   NOP
00000024  00000000   NOP
00000010  00000000   NOP
00000038  00000000   NOP
00000024  00000000   NOP
00000010  00000000   NOP
0000000C  00000000   NOP
00000048  00000000   NOP
00000020  00000000   NOP
00000010  00000000   NOP
---  f:/isp_release/software/isp_root/framework/peripheral/eth/templates/eth_miiwritereaddata_default.h  
00000008  00000000   NOP
00000020  00000000   NOP
00000010  00000000   NOP
---  f:/isp_release/software/isp_root/framework/peripheral/eth/templates/eth_miimscanmode_default.h  ----
00000008  00000000   NOP
00000010  00000000   NOP
---  f:/isp_release/software/isp_root/framework/peripheral/eth/templates/eth_miimreadwrite_default.h  ---
00000008  00000000   NOP
00000014  00000000   NOP
00000008  00000000   NOP
---  f:/isp_release/software/isp_root/framework/peripheral/eth/templates/eth_miimaddresses_default.h  ---
00000010  00000000   NOP
00000008  00000000   NOP
00000010  00000000   NOP
00000008  00000000   NOP
---  f:/isp_release/software/isp_root/framework/peripheral/eth/templates/eth_miim_indicators_default.h  -
00000010  00000000   NOP
---  f:/isp_release/software/isp_root/framework/peripheral/eth/templates/eth_miim_config_default.h  -----
00000008  00000000   NOP
00000010  00000000   NOP
00000014  00000000   NOP
00000018  00000000   NOP
00000008  00000000   NOP
00000010  00000000   NOP
00000008  00000000   NOP
00000010  00000000   NOP
00000010  00000000   NOP
00000008  00000000   NOP
00000008  00000000   NOP
00000010  00000000   NOP
---  f:/isp_release/software/isp_root/framework/peripheral/eth/templates/eth_mac_testing_default.h  -----
00000008  00000000   NOP
00000010  00000000   NOP
00000008  00000000   NOP
00000010  00000000   NOP
00000008  00000000   NOP
00000010  00000000   NOP
---  f:/isp_release/software/isp_root/framework/peripheral/eth/templates/eth_mac_resets_default.h  ------
00000008  00000000   NOP
00000010  00000000   NOP
00000008  00000000   NOP
00000010  00000000   NOP
00000008  00000000   NOP
00000010  00000000   NOP
00000008  00000000   NOP
00000010  00000000   NOP
00000008  00000000   NOP
00000010  00000000   NOP
00000008  00000000   NOP
00000010  00000000   NOP
---  f:/isp_release/software/isp_root/framework/peripheral/eth/templates/eth_mac_configuration_default.h  
00000008  00000000   NOP
00000010  00000000   NOP
00000008  00000000   NOP
00000010  00000000   NOP
00000008  00000000   NOP
00000010  00000000   NOP
00000008  00000000   NOP
00000010  00000000   NOP
00000008  00000000   NOP
00000010  00000000   NOP
00000008  00000000   NOP
00000010  00000000   NOP
00000008  00000000   NOP
00000010  00000000   NOP
00000008  00000000   NOP
00000010  00000000   NOP
00000008  00000000   NOP
00000010  00000000   NOP
00000008  00000000   NOP
00000010  00000000   NOP
00000008  00000000   NOP
00000010  00000000   NOP
00000008  00000000   NOP
00000010  00000000   NOP
00000008  00000000   NOP
00000010  00000000   NOP
00000008  00000000   NOP
00000010  00000000   NOP
00000008  00000000   NOP
00000010  00000000   NOP
---  f:/isp_release/software/isp_root/framework/peripheral/eth/templates/eth_interrupt_default.h  -------
00000008  00000000   NOP
00000010  00000000   NOP
00000008  00000000   NOP
00000010  00000000   NOP
00000010  00000000   NOP
00000008  00000000   NOP
00000010  00000000   NOP
00000008  00000000   NOP
00000010  00000000   NOP
00000008  00000000   NOP
---  f:/isp_release/software/isp_root/framework/peripheral/eth/templates/eth_hashtable_default.h  -------
0000000C  00000000   NOP
0000003C  00000000   NOP
00000020  00000000   NOP
00000028  00000000   NOP
00000010  00000000   NOP
---  f:/isp_release/software/isp_root/framework/peripheral/eth/templates/eth_framexreceivedok_default.h  
00000008  00000000   NOP
00000010  00000000   NOP
---  f:/isp_release/software/isp_root/framework/peripheral/eth/templates/eth_framestransmittedok_default.h
00000008  00000000   NOP
00000010  00000000   NOP
---  f:/isp_release/software/isp_root/framework/peripheral/eth/templates/eth_fcserrorcount_default.h  ---
00000008  00000000   NOP
00000010  00000000   NOP
00000010  00000000   NOP
---  f:/isp_release/software/isp_root/framework/peripheral/eth/templates/eth_enable_default.h  ----------
00000008  00000000   NOP
00000010  00000000   NOP
00000010  00000000   NOP
00000008  00000000   NOP
00000008  00000000   NOP
00000010  00000000   NOP
00000008  00000000   NOP
00000010  00000000   NOP
---  f:/isp_release/software/isp_root/framework/peripheral/eth/templates/eth_autoflowcontrol_default.h  -
00000008  00000000   NOP
00000010  00000000   NOP
---  f:/isp_release/software/isp_root/framework/peripheral/eth/templates/eth_alignmenterrorcount_default.h
00000008  00000000   NOP
00000010  00000000   NOP
---  f:/isp_release/software/isp_root/framework/peripheral/eth/processor/eth_p32mx795f512l.h  -----------
00000000  00000000   NOP
00000014  00000000   NOP
00000008  00000000   NOP
00000000  00000000   NOP
00000014  00000000   NOP
00000000  00000000   NOP
00000008  00000000   NOP
00000000  00000000   NOP
00000014  00000000   NOP
00000000  00000000   NOP
00000008  00000000   NOP
00000000  00000000   NOP
00000014  00000000   NOP
00000000  00000000   NOP
00000008  00000000   NOP
00000000  00000000   NOP
00000014  00000000   NOP
00000000  00000000   NOP
00000008  00000000   NOP
00000000  00000000   NOP
00000014  00000000   NOP
00000000  00000000   NOP
00000008  00000000   NOP
00000000  00000000   NOP
00000014  00000000   NOP
00000000  00000000   NOP
00000008  00000000   NOP
00000000  00000000   NOP
00000014  00000000   NOP
00000008  00000000   NOP
00000000  00000000   NOP
00000008  00000000   NOP
00000040  00000000   NOP
00000000  00000000   NOP
00000014  00000000   NOP
00000008  00000000   NOP
00000000  00000000   NOP
00000014  00000000   NOP
00000008  00000000   NOP
00000000  00000000   NOP
00000004  00000000   NOP
00000030  00000000   NOP
00000000  00000000   NOP
0000001C  00000000   NOP
00000008  00000000   NOP
00000000  00000000   NOP
00000004  00000000   NOP
00000030  00000000   NOP
00000000  00000000   NOP
00000008  00000000   NOP
00000010  00000000   NOP
00000030  00000000   NOP
00000000  00000000   NOP
00000008  00000000   NOP
0000002C  00000000   NOP
00000000  00000000   NOP
00000014  00000000   NOP
00000008  00000000   NOP
00000000  00000000   NOP
00000008  00000000   NOP
0000002C  00000000   NOP
00000000  00000000   NOP
00000014  00000000   NOP
00000008  00000000   NOP
00000000  00000000   NOP
00000004  00000000   NOP
0000003C  00000000   NOP
00000040  00000000   NOP
00000000  00000000   NOP
00000014  00000000   NOP
00000008  00000000   NOP
00000000  00000000   NOP
0000001C  00000000   NOP
00000008  00000000   NOP
00000000  00000000   NOP
00000014  00000000   NOP
00000008  00000000   NOP
00000000  00000000   NOP
00000014  00000000   NOP
00000008  00000000   NOP
00000000  00000000   NOP
00000018  00000000   NOP
00000008  00000000   NOP
00000000  00000000   NOP
00000014  00000000   NOP
00000008  00000000   NOP
00000000  00000000   NOP
00000014  00000000   NOP
00000008  00000000   NOP
00000000  00000000   NOP
00000018  00000000   NOP
00000008  00000000   NOP
00000000  00000000   NOP
00000014  00000000   NOP
00000008  00000000   NOP
00000014  00000000   NOP
00000000  00000000   NOP
00000008  00000000   NOP
00000014  00000000   NOP
00000000  00000000   NOP
00000008  00000000   NOP
00000014  00000000   NOP
00000000  00000000   NOP
00000008  00000000   NOP
00000000  00000000   NOP
00000014  00000000   NOP
00000008  00000000   NOP
00000000  00000000   NOP
00000014  00000000   NOP
00000008  00000000   NOP
00000000  00000000   NOP
00000014  00000000   NOP
00000008  00000000   NOP
00000000  00000000   NOP
00000014  00000000   NOP
00000018  00000000   NOP
00000008  00000000   NOP
00000000  00000000   NOP
00000014  00000000   NOP
00000008  00000000   NOP
00000000  00000000   NOP
00000014  00000000   NOP
00000008  00000000   NOP
00000000  00000000   NOP
00000014  00000000   NOP
00000008  00000000   NOP
00000000  00000000   NOP
00000014  00000000   NOP
00000000  00000000   NOP
00000008  00000000   NOP
00000000  00000000   NOP
00000014  00000000   NOP
00000000  00000000   NOP
00000008  00000000   NOP
00000000  00000000   NOP
00000014  00000000   NOP
00000000  00000000   NOP
00000008  00000000   NOP
00000000  00000000   NOP
00000014  00000000   NOP
00000000  00000000   NOP
00000008  00000000   NOP
00000000  00000000   NOP
00000014  00000000   NOP
00000000  00000000   NOP
00000008  00000000   NOP
00000000  00000000   NOP
00000014  00000000   NOP
00000000  00000000   NOP
00000008  00000000   NOP
00000000  00000000   NOP
00000014  00000000   NOP
00000000  00000000   NOP
00000008  00000000   NOP
00000000  00000000   NOP
00000014  00000000   NOP
00000000  00000000   NOP
00000008  00000000   NOP
00000000  00000000   NOP
00000014  00000000   NOP
00000000  00000000   NOP
00000008  00000000   NOP
00000000  00000000   NOP
00000014  00000000   NOP
00000000  00000000   NOP
00000008  00000000   NOP
00000000  00000000   NOP
00000014  00000000   NOP
00000000  00000000   NOP
00000008  00000000   NOP
00000000  00000000   NOP
00000014  00000000   NOP
00000000  00000000   NOP
00000008  00000000   NOP
00000000  00000000   NOP
00000014  00000000   NOP
00000000  00000000   NOP
00000008  00000000   NOP
00000000  00000000   NOP
00000014  00000000   NOP
00000000  00000000   NOP
00000008  00000000   NOP
00000000  00000000   NOP
00000014  00000000   NOP
00000000  00000000   NOP
00000008  00000000   NOP
00000000  00000000   NOP
00000014  00000000   NOP
00000000  00000000   NOP
00000008  00000000   NOP
00000000  00000000   NOP
00000014  00000000   NOP
00000008  00000000   NOP
00000000  00000000   NOP
00000014  00000000   NOP
00000000  00000000   NOP
00000008  00000000   NOP
00000000  00000000   NOP
00000014  00000000   NOP
00000000  00000000   NOP
00000008  00000000   NOP
00000000  00000000   NOP
00000014  00000000   NOP
00000000  00000000   NOP
00000008  00000000   NOP
00000000  00000000   NOP
00000014  00000000   NOP
00000000  00000000   NOP
00000008  00000000   NOP
00000000  00000000   NOP
00000014  00000000   NOP
00000000  00000000   NOP
00000008  00000000   NOP
00000000  00000000   NOP
00000014  00000000   NOP
00000008  00000000   NOP
00000000  00000000   NOP
00000014  00000000   NOP
00000008  00000000   NOP
00000000  00000000   NOP
00000014  00000000   NOP
00000008  00000000   NOP
00000000  00000000   NOP
00000014  00000000   NOP
00000008  00000000   NOP
00000000  00000000   NOP
00000014  00000000   NOP
00000008  00000000   NOP
00000000  00000000   NOP
00000014  00000000   NOP
00000008  00000000   NOP
00000000  00000000   NOP
00000014  00000000   NOP
00000000  00000000   NOP
00000008  00000000   NOP
00000000  00000000   NOP
00000014  00000000   NOP
00000008  00000000   NOP
00000000  00000000   NOP
00000014  00000000   NOP
00000000  00000000   NOP
00000008  00000000   NOP
00000000  00000000   NOP
00000014  00000000   NOP
00000000  00000000   NOP
00000008  00000000   NOP
00000000  00000000   NOP
00000014  00000000   NOP
00000000  00000000   NOP
00000008  00000000   NOP
00000000  00000000   NOP
00000014  00000000   NOP
00000000  00000000   NOP
00000008  00000000   NOP
00000000  00000000   NOP
00000014  00000000   NOP
00000008  00000000   NOP
00000000  00000000   NOP
00000014  00000000   NOP
00000000  00000000   NOP
00000008  00000000   NOP
00000000  00000000   NOP
00000014  00000000   NOP
00000000  00000000   NOP
00000008  00000000   NOP
00000000  00000000   NOP
00000014  00000000   NOP
00000000  00000000   NOP
00000008  00000000   NOP
00000000  00000000   NOP
00000014  00000000   NOP
00000008  00000000   NOP
00000000  00000000   NOP
00000018  00000000   NOP
00000008  00000000   NOP
00000000  00000000   NOP
00000014  00000000   NOP
00000008  00000000   NOP
00000000  00000000   NOP
00000014  00000000   NOP
00000000  00000000   NOP
00000008  00000000   NOP
00000014  00000000   NOP
00000000  00000000   NOP
00000008  00000000   NOP
00000014  00000000   NOP
00000000  00000000   NOP
00000008  00000000   NOP
00000014  00000000   NOP
00000000  00000000   NOP
00000008  00000000   NOP
00000000  00000000   NOP
00000008  00000000   NOP
0000001C  00000000   NOP
00000000  00000000   NOP
00000004  00000000   NOP
00000000  00000000   NOP
00000000  00000000   NOP
00000000  00000000   NOP
---  f:/isp_release/software/isp_root/framework/peripheral/dma/templates/dma_suspend_default.h  ---------
00000008  00000000   NOP
00000010  00000000   NOP
---  f:/isp_release/software/isp_root/framework/peripheral/dma/templates/dma_stopinidle_unsupported.h  --
0000000C  00000000   NOP
---  f:/isp_release/software/isp_root/framework/peripheral/dma/templates/dma_starttransfer_default.h  ---
00000008  00000000   NOP
---  f:/isp_release/software/isp_root/framework/peripheral/dma/templates/dma_recentaddress_default.h  ---
00000010  00000000   NOP
00000010  00000000   NOP
---  f:/isp_release/software/isp_root/framework/peripheral/dma/templates/dma_enablecontrol_default.h  ---
00000008  00000000   NOP
00000010  00000000   NOP
---  f:/isp_release/software/isp_root/framework/peripheral/dma/templates/dma_crcxorenable_default.h  ----
00000008  00000000   NOP
00000010  00000000   NOP
---  f:/isp_release/software/isp_root/framework/peripheral/dma/templates/dma_crcwritebyteorder_default.h  
00000008  00000000   NOP
---  f:/isp_release/software/isp_root/framework/peripheral/dma/templates/dma_crctype_default.h  ---------
00000010  00000000   NOP
00000008  00000000   NOP
00000008  00000000   NOP
00000010  00000000   NOP
00000010  00000000   NOP
00000008  00000000   NOP
00000008  00000000   NOP
00000010  00000000   NOP
---  f:/isp_release/software/isp_root/framework/peripheral/dma/templates/dma_crcbyteorder_default.h  ----
00000008  00000000   NOP
00000010  00000000   NOP
---  f:/isp_release/software/isp_root/framework/peripheral/dma/templates/dma_crcbitorder_default.h  -----
00000008  00000000   NOP
00000008  00000000   NOP
00000010  00000000   NOP
---  f:/isp_release/software/isp_root/framework/peripheral/dma/templates/dma_crc_default.h  -------------
00000008  00000000   NOP
0000000C  00000000   NOP
00000008  00000000   NOP
00000010  00000000   NOP
---  f:/isp_release/software/isp_root/framework/peripheral/dma/templates/dma_channelxtrigger_default.h  -
00000008  00000000   NOP
0000002C  00000000   NOP
00000010  00000000   NOP
0000007C  00000000   NOP
0000001C  00000000   NOP
00000054  00000000   NOP
00000014  00000000   NOP
00000054  00000000   NOP
0000001C  00000000   NOP
00000074  00000000   NOP
00000028  00000000   NOP
00000030  00000000   NOP
00000008  00000000   NOP
0000002C  00000000   NOP
00000010  00000000   NOP
00000014  00000000   NOP
00000018  00000000   NOP
0000007C  00000000   NOP
0000001C  00000000   NOP
00000054  00000000   NOP
---  f:/isp_release/software/isp_root/framework/peripheral/dma/templates/dma_channelxstartirq_default.h  
00000008  00000000   NOP
0000000C  00000000   NOP
00000010  00000000   NOP
00000010  00000000   NOP
00000008  00000000   NOP
---  f:/isp_release/software/isp_root/framework/peripheral/dma/templates/dma_channelxsourcesize_default.h
00000010  00000000   NOP
00000008  00000000   NOP
---  f:/isp_release/software/isp_root/framework/peripheral/dma/templates/dma_channelxsourcepointer_default.h
00000010  00000000   NOP
---  f:/isp_release/software/isp_root/framework/peripheral/dma/templates/dma_channelxpriority_default.h  
00000008  00000000   NOP
00000010  00000000   NOP
---  f:/isp_release/software/isp_root/framework/peripheral/dma/templates/dma_channelxpatternlength_unsupported.h
0000000C  00000000   NOP
0000000C  00000000   NOP
0000000C  00000000   NOP
---  f:/isp_release/software/isp_root/framework/peripheral/dma/templates/dma_channelxpatterndata_default.h
00000010  00000000   NOP
00000008  00000000   NOP
00000024  00000000   NOP
---  f:/isp_release/software/isp_root/framework/peripheral/dma/templates/dma_channelxintsourceflag_default.h
00000014  00000000   NOP
00000064  00000000   NOP
00000110  00000000   NOP
00000114  00000000   NOP
00000118  00000000   NOP
0000011C  00000000   NOP
00000120  00000000   NOP
00000040  00000000   NOP
000000C8  00000000   NOP
00000168  00000000   NOP
0000016C  00000000   NOP
00000170  00000000   NOP
00000174  00000000   NOP
00000178  00000000   NOP
0000017C  00000000   NOP
00000180  00000000   NOP
00000184  00000000   NOP
00000188  00000000   NOP
000000A4  00000000   NOP
00000080  00000000   NOP
000000EC  00000000   NOP
00000144  00000000   NOP
00000148  00000000   NOP
00000120  00000000   NOP
00000008  00000000   NOP
00000084  00000000   NOP
0000005C  00000000   NOP
00000094  00000000   NOP
00000008  00000000   NOP
00000084  00000000   NOP
0000005C  00000000   NOP
00000094  00000000   NOP
---  f:/isp_release/software/isp_root/framework/peripheral/dma/templates/dma_channelxintsource_default.h  
00000008  00000000   NOP
00000134  00000000   NOP
00000138  00000000   NOP
0000013C  00000000   NOP
00000140  00000000   NOP
0000010C  00000000   NOP
000000B4  00000000   NOP
0000019C  00000000   NOP
000001A0  00000000   NOP
000001A4  00000000   NOP
000001A8  00000000   NOP
000001AC  00000000   NOP
000001B0  00000000   NOP
000001B4  00000000   NOP
000001B8  00000000   NOP
000001BC  00000000   NOP
000001C0  00000000   NOP
000001C4  00000000   NOP
000001C8  00000000   NOP
000001CC  00000000   NOP
00000088  00000000   NOP
0000005C  00000000   NOP
000000E0  00000000   NOP
00000170  00000000   NOP
00000144  00000000   NOP
00000008  00000000   NOP
00000134  00000000   NOP
0000010C  00000000   NOP
000000B4  00000000   NOP
0000019C  00000000   NOP
000001A0  00000000   NOP
000001A4  00000000   NOP
000001A8  00000000   NOP
000001AC  00000000   NOP
000001B0  00000000   NOP
00000088  00000000   NOP
0000005C  00000000   NOP
000000E0  00000000   NOP
00000170  00000000   NOP
00000174  00000000   NOP
00000178  00000000   NOP
00000144  00000000   NOP
00000148  00000000   NOP
0000014C  00000000   NOP
00000150  00000000   NOP
00000154  00000000   NOP
00000158  00000000   NOP
0000015C  00000000   NOP
00000014  00000000   NOP
00000018  00000000   NOP
0000001C  00000000   NOP
00000020  00000000   NOP
00000024  00000000   NOP
00000028  00000000   NOP
0000002C  00000000   NOP
00000064  00000000   NOP
00000110  00000000   NOP
00000040  00000000   NOP
000000C8  00000000   NOP
000000CC  00000000   NOP
00000168  00000000   NOP
0000016C  00000000   NOP
00000170  00000000   NOP
000000A4  00000000   NOP
00000080  00000000   NOP
000000EC  00000000   NOP
00000144  00000000   NOP
00000148  00000000   NOP
00000120  00000000   NOP
---  f:/isp_release/software/isp_root/framework/peripheral/dma/templates/dma_channelxevent_default.h  ---
00000010  00000000   NOP
---  f:/isp_release/software/isp_root/framework/peripheral/dma/templates/dma_channelxdisabled_default.h  
00000008  00000000   NOP
---  f:/isp_release/software/isp_root/framework/peripheral/dma/templates/dma_channelxdestinationstartaddress_default.h
00000010  00000000   NOP
00000008  00000000   NOP
---  f:/isp_release/software/isp_root/framework/peripheral/dma/templates/dma_channelxdestinationsize_default.h
00000010  00000000   NOP
00000008  00000000   NOP
---  f:/isp_release/software/isp_root/framework/peripheral/dma/templates/dma_channelxdestinationpointer_default.h
00000010  00000000   NOP
---  f:/isp_release/software/isp_root/framework/peripheral/dma/templates/dma_channelxchainenbl_default.h  
00000008  00000000   NOP
00000010  00000000   NOP
---  f:/isp_release/software/isp_root/framework/peripheral/dma/templates/dma_channelxchain_default.h  ---
00000008  00000000   NOP
---  f:/isp_release/software/isp_root/framework/peripheral/dma/templates/dma_channelxcellsize_default.h  
00000010  00000000   NOP
00000008  00000000   NOP
---  f:/isp_release/software/isp_root/framework/peripheral/dma/templates/dma_channelxcellprogresspointer_default.h
00000010  00000000   NOP
---  f:/isp_release/software/isp_root/framework/peripheral/dma/templates/dma_channelxbusy_default.h  ----
00000008  00000000   NOP
00000010  00000000   NOP
---  f:/isp_release/software/isp_root/framework/peripheral/dma/templates/dma_channelxauto_default.h  ----
00000008  00000000   NOP
00000010  00000000   NOP
---  f:/isp_release/software/isp_root/framework/peripheral/dma/templates/dma_channelxabortirq_default.h  
00000008  00000000   NOP
00000008  00000000   NOP
00000010  00000000   NOP
00000008  00000000   NOP
---  f:/isp_release/software/isp_root/framework/peripheral/dma/templates/dma_channelbits_default.h  -----
00000010  00000000   NOP
---  f:/isp_release/software/isp_root/framework/peripheral/dma/templates/dma_busy_default.h  ------------
00000008  00000000   NOP
00000010  00000000   NOP
---  f:/isp_release/software/isp_root/framework/peripheral/dma/templates/dma_aborttransfer_default.h  ---
00000008  00000000   NOP
---  f:/isp_release/software/isp_root/framework/peripheral/dma/processor/dma_p32mx795f512l.h  -----------
00000000  00000000   NOP
00000014  00000000   NOP
00000008  00000000   NOP
00000000  00000000   NOP
00000014  00000000   NOP
00000008  00000000   NOP
00000000  00000000   NOP
00000004  00000000   NOP
0000002C  00000000   NOP
00000000  00000000   NOP
00000004  00000000   NOP
0000002C  00000000   NOP
00000000  00000000   NOP
00000014  00000000   NOP
00000008  00000000   NOP
00000000  00000000   NOP
00000014  00000000   NOP
00000008  00000000   NOP
00000000  00000000   NOP
00000014  00000000   NOP
00000008  00000000   NOP
00000000  00000000   NOP
00000018  00000000   NOP
00000008  00000000   NOP
00000000  00000000   NOP
00000018  00000000   NOP
00000008  00000000   NOP
00000000  00000000   NOP
00000014  00000000   NOP
00000008  00000000   NOP
00000000  00000000   NOP
00000014  00000000   NOP
00000008  00000000   NOP
00000000  00000000   NOP
00000014  00000000   NOP
00000008  00000000   NOP
00000000  00000000   NOP
00000014  00000000   NOP
00000008  00000000   NOP
00000000  00000000   NOP
00000014  00000000   NOP
00000008  00000000   NOP
00000000  00000000   NOP
00000014  00000000   NOP
00000008  00000000   NOP
00000000  00000000   NOP
00000014  00000000   NOP
00000008  00000000   NOP
00000000  00000000   NOP
00000014  00000000   NOP
00000008  00000000   NOP
00000000  00000000   NOP
00000028  00000000   NOP
00000008  00000000   NOP
00000000  00000000   NOP
00000028  00000000   NOP
00000008  00000000   NOP
00000000  00000000   NOP
00000028  00000000   NOP
00000008  00000000   NOP
00000000  00000000   NOP
00000028  00000000   NOP
00000008  00000000   NOP
00000000  00000000   NOP
00000028  00000000   NOP
00000008  00000000   NOP
00000000  00000000   NOP
00000004  00000000   NOP
00000000  00000000   NOP
00000004  00000000   NOP
0000002C  00000000   NOP
00000000  00000000   NOP
00000004  00000000   NOP
0000002C  00000000   NOP
00000000  00000000   NOP
00000004  00000000   NOP
0000002C  00000000   NOP
00000000  00000000   NOP
00000004  00000000   NOP
0000002C  00000000   NOP
00000000  00000000   NOP
00000004  00000000   NOP
0000002C  00000000   NOP
00000000  00000000   NOP
00000028  00000000   NOP
00000008  00000000   NOP
00000000  00000000   NOP
00000004  00000000   NOP
0000002C  00000000   NOP
00000000  00000000   NOP
00000004  00000000   NOP
0000002C  00000000   NOP
00000000  00000000   NOP
00000008  00000000   NOP
0000000C  00000000   NOP
00000000  00000000   NOP
00000008  00000000   NOP
0000000C  00000000   NOP
00000000  00000000   NOP
00000008  00000000   NOP
0000000C  00000000   NOP
00000000  00000000   NOP
0000002C  00000000   NOP
00000008  00000000   NOP
00000000  00000000   NOP
0000002C  00000000   NOP
00000008  00000000   NOP
00000000  00000000   NOP
00000028  00000000   NOP
00000008  00000000   NOP
00000000  00000000   NOP
00000028  00000000   NOP
00000008  00000000   NOP
00000000  00000000   NOP
00000028  00000000   NOP
00000008  00000000   NOP
00000000  00000000   NOP
00000028  00000000   NOP
00000008  00000000   NOP
00000000  00000000   NOP
00000028  00000000   NOP
00000008  00000000   NOP
00000000  00000000   NOP
00000028  00000000   NOP
00000008  00000000   NOP
00000000  00000000   NOP
00000028  00000000   NOP
00000008  00000000   NOP
00000000  00000000   NOP
00000020  00000000   NOP
---  f:/isp_release/software/isp_root/framework/peripheral/devcon/templates/devcon_usb_phy_sleepmodeset_unsupported.h
0000000C  00000000   NOP
---  f:/isp_release/software/isp_root/framework/peripheral/devcon/templates/devcon_traceoutput_default.h  
00000008  00000000   NOP
00000008  00000000   NOP
00000008  00000000   NOP
---  f:/isp_release/software/isp_root/framework/peripheral/devcon/templates/devcon_ignoredebugfreeze_unsupported.h
0000000C  00000000   NOP
0000000C  00000000   NOP
---  f:/isp_release/software/isp_root/framework/peripheral/devcon/templates/devcon_deviceverandid_default.h
00000010  00000000   NOP
---  f:/isp_release/software/isp_root/framework/peripheral/devcon/templates/devcon_deviceregslockunlock_unsupported.h
0000000C  00000000   NOP
0000000C  00000000   NOP
---  f:/isp_release/software/isp_root/framework/peripheral/devcon/processor/devcon_p32mx795f512l.h  -----
00000000  00000000   NOP
00000004  00000000   NOP
0000002C  00000000   NOP
00000000  00000000   NOP
00000004  00000000   NOP
0000002C  00000000   NOP
00000000  00000000   NOP
00000004  00000000   NOP
0000002C  00000000   NOP
00000000  00000000   NOP
00000004  00000000   NOP
0000002C  00000000   NOP
00000000  00000000   NOP
00000004  00000000   NOP
0000002C  00000000   NOP
00000000  00000000   NOP
00000004  00000000   NOP
0000002C  00000000   NOP
00000000  00000000   NOP
00000004  00000000   NOP
0000002C  00000000   NOP
00000000  00000000   NOP
00000004  00000000   NOP
0000002C  00000000   NOP
00000000  00000000   NOP
00000014  00000000   NOP
00000008  00000000   NOP
00000000  00000000   NOP
00000014  00000000   NOP
00000008  00000000   NOP
00000000  00000000   NOP
---  f:/isp_release/software/isp_root/framework/peripheral/cmp/templates/cmp_stopinidle_default.h  ------
00000008  00000000   NOP
00000030  00000000   NOP
00000008  00000000   NOP
00000030  00000000   NOP
---  f:/isp_release/software/isp_root/framework/peripheral/cmp/templates/cmp_outputlevelselectcontrol_default.h
00000008  00000000   NOP
00000030  00000000   NOP
00000008  00000000   NOP
00000030  00000000   NOP
---  f:/isp_release/software/isp_root/framework/peripheral/cmp/templates/cmp_noninvertinginputselect_default.h
0000000C  00000000   NOP
00000040  00000000   NOP
---  f:/isp_release/software/isp_root/framework/peripheral/cmp/templates/cmp_invertoutputselectcontrol_default.h
00000008  00000000   NOP
00000030  00000000   NOP
00000008  00000000   NOP
00000030  00000000   NOP
---  f:/isp_release/software/isp_root/framework/peripheral/cmp/templates/cmp_invertinginputselect_default.h
0000000C  00000000   NOP
0000003C  00000000   NOP
---  f:/isp_release/software/isp_root/framework/peripheral/cmp/templates/cmp_interrupteventselect_default.h
0000000C  00000000   NOP
00000040  00000000   NOP
---  f:/isp_release/software/isp_root/framework/peripheral/cmp/templates/cmp_cvrefwiderangecontrol_default.h
00000008  00000000   NOP
00000030  00000000   NOP
00000008  00000000   NOP
00000030  00000000   NOP
0000001C  00000000   NOP
---  f:/isp_release/software/isp_root/framework/peripheral/cmp/templates/cmp_cvrefvoltagerangeselect_default.h
0000000C  00000000   NOP
00000040  00000000   NOP
---  f:/isp_release/software/isp_root/framework/peripheral/cmp/templates/cmp_cvrefvalueselect_default.h  
0000000C  00000000   NOP
0000003C  00000000   NOP
---  f:/isp_release/software/isp_root/framework/peripheral/cmp/templates/cmp_cvrefrefvoltagerangeselect_unsupported.h
00000020  00000000   NOP
---  f:/isp_release/software/isp_root/framework/peripheral/cmp/templates/cmp_cvrefoutputenablecontrol_default.h
00000008  00000000   NOP
00000030  00000000   NOP
00000008  00000000   NOP
00000030  00000000   NOP
---  f:/isp_release/software/isp_root/framework/peripheral/cmp/templates/cmp_cvrefenablecontrol_default.h
00000008  00000000   NOP
00000030  00000000   NOP
00000008  00000000   NOP
00000030  00000000   NOP
---  f:/isp_release/software/isp_root/framework/peripheral/cmp/templates/cmp_cvrefbgrefvoltagerangeselect_unsupported.h
00000020  00000000   NOP
---  f:/isp_release/software/isp_root/framework/peripheral/cmp/templates/cmp_comparatoroutputenablecontrol_default.h
00000008  00000000   NOP
00000030  00000000   NOP
00000008  00000000   NOP
00000030  00000000   NOP
---  f:/isp_release/software/isp_root/framework/peripheral/cmp/templates/cmp_comparatorenablecontrol_default.h
00000008  00000000   NOP
00000030  00000000   NOP
00000008  00000000   NOP
00000030  00000000   NOP
---  f:/isp_release/software/isp_root/framework/peripheral/cmp/processor/cmp_p32mx795f512l.h  -----------
00000000  00000000   NOP
00000020  00000000   NOP
00000018  00000000   NOP
00000000  00000000   NOP
00000020  00000000   NOP
00000018  00000000   NOP
00000000  00000000   NOP
00000020  00000000   NOP
00000018  00000000   NOP
00000000  00000000   NOP
00000020  00000000   NOP
00000018  00000000   NOP
00000000  00000000   NOP
00000020  00000000   NOP
00000018  00000000   NOP
00000000  00000000   NOP
00000020  00000000   NOP
00000018  00000000   NOP
00000000  00000000   NOP
00000020  00000000   NOP
00000018  00000000   NOP
00000000  00000000   NOP
00000020  00000000   NOP
00000018  00000000   NOP
00000000  00000000   NOP
00000030  00000000   NOP
00000034  00000000   NOP
00000028  00000000   NOP
00000000  00000000   NOP
00000030  00000000   NOP
00000028  00000000   NOP
00000000  00000000   NOP
0000002C  00000000   NOP
00000024  00000000   NOP
00000000  00000000   NOP
00000020  00000000   NOP
00000018  00000000   NOP
00000000  00000000   NOP
00000020  00000000   NOP
00000018  00000000   NOP
00000000  00000000   NOP
00000020  00000000   NOP
00000018  00000000   NOP
00000000  00000000   NOP
00000020  00000000   NOP
00000018  00000000   NOP
00000000  00000000   NOP
00000020  00000000   NOP
00000018  00000000   NOP
00000000  00000000   NOP
00000020  00000000   NOP
00000018  00000000   NOP
00000000  00000000   NOP
00000020  00000000   NOP
00000018  00000000   NOP
00000000  00000000   NOP
00000020  00000000   NOP
00000018  00000000   NOP
00000020  00000000   NOP
00000000  00000000   NOP
00000014  00000000   NOP
00000000  00000000   NOP
00000030  00000000   NOP
00000028  00000000   NOP
00000000  00000000   NOP
00000004  00000000   NOP
00000018  00000000   NOP
00000000  00000000   NOP
00000004  00000000   NOP
00000018  00000000   NOP
00000000  00000000   NOP
0000002C  00000000   NOP
00000024  00000000   NOP
---  f:/isp_release/software/isp_root/framework/peripheral/can/templates/can_transmiterrorcountget_default.h
0000000C  00000000   NOP
00000028  00000000   NOP
---  f:/isp_release/software/isp_root/framework/peripheral/can/templates/can_transmitchannelstatus_pic32.h
0000000C  00000000   NOP
00000050  00000000   NOP
0000007C  00000000   NOP
00000080  00000000   NOP
00000018  00000000   NOP
0000002C  00000000   NOP
0000005C  00000000   NOP
00000070  00000000   NOP
---  f:/isp_release/software/isp_root/framework/peripheral/can/templates/can_transmitchannelflush_pic32.h
0000000C  00000000   NOP
00000048  00000000   NOP
00000078  00000000   NOP
00000018  00000000   NOP
00000054  00000000   NOP
00000064  00000000   NOP
---  f:/isp_release/software/isp_root/framework/peripheral/can/templates/can_transmitbufferget_pic32.h  -
00000028  00000000   NOP
---  f:/isp_release/software/isp_root/framework/peripheral/can/templates/can_transmissionabortstatus_pic32.h
0000000C  00000000   NOP
00000050  00000000   NOP
0000007C  00000000   NOP
00000018  00000000   NOP
0000002C  00000000   NOP
0000005C  00000000   NOP
00000070  00000000   NOP
---  f:/isp_release/software/isp_root/framework/peripheral/can/templates/can_timestampvalue_default.h  --
0000000C  00000000   NOP
00000038  00000000   NOP
0000000C  00000000   NOP
00000028  00000000   NOP
---  f:/isp_release/software/isp_root/framework/peripheral/can/templates/can_timestampprescalar_default.h
0000000C  00000000   NOP
0000003C  00000000   NOP
---  f:/isp_release/software/isp_root/framework/peripheral/can/templates/can_timestampenable_default.h  -
00000008  00000000   NOP
00000030  00000000   NOP
00000008  00000000   NOP
00000030  00000000   NOP
---  f:/isp_release/software/isp_root/framework/peripheral/can/templates/can_syncjumpwidth_default.h  ---
0000000C  00000000   NOP
00000040  00000000   NOP
---  f:/isp_release/software/isp_root/framework/peripheral/can/templates/can_stopinidle_default.h  ------
00000008  00000000   NOP
00000030  00000000   NOP
00000008  00000000   NOP
00000030  00000000   NOP
---  f:/isp_release/software/isp_root/framework/peripheral/can/templates/can_rxfifooneleftnotify_unsupported.h
00000020  00000000   NOP
00000020  00000000   NOP
---  f:/isp_release/software/isp_root/framework/peripheral/can/templates/can_remotetransmitreq_unsupported.h
00000024  00000000   NOP
---  f:/isp_release/software/isp_root/framework/peripheral/can/templates/can_receivemodeselect_unsupported.h
00000020  00000000   NOP
00000024  00000000   NOP
---  f:/isp_release/software/isp_root/framework/peripheral/can/templates/can_receiveerrorcount_default.h  
0000000C  00000000   NOP
00000028  00000000   NOP
---  f:/isp_release/software/isp_root/framework/peripheral/can/templates/can_receivebufferisempty_unsupported.h
00000024  00000000   NOP
---  f:/isp_release/software/isp_root/framework/peripheral/can/templates/can_receivebufferclear_unsupported.h
00000020  00000000   NOP
---  f:/isp_release/software/isp_root/framework/peripheral/can/templates/can_propagationtimesegment_default.h
0000000C  00000000   NOP
00000040  00000000   NOP
---  f:/isp_release/software/isp_root/framework/peripheral/can/templates/can_phasesegment2lengthfreelyprogrammable_default.h
00000008  00000000   NOP
00000030  00000000   NOP
00000008  00000000   NOP
00000030  00000000   NOP
---  f:/isp_release/software/isp_root/framework/peripheral/can/templates/can_phasesegment2length_default.h
0000000C  00000000   NOP
00000048  00000000   NOP
---  f:/isp_release/software/isp_root/framework/peripheral/can/templates/can_phasesegment1length_default.h
0000000C  00000000   NOP
00000040  00000000   NOP
---  f:/isp_release/software/isp_root/framework/peripheral/can/templates/can_pendingtransmissionsabort_default.h
00000008  00000000   NOP
00000030  00000000   NOP
---  f:/isp_release/software/isp_root/framework/peripheral/can/templates/can_pendingeventsget_default.h  
0000000C  00000000   NOP
00000028  00000000   NOP
---  f:/isp_release/software/isp_root/framework/peripheral/can/templates/can_operationmodeset_default.h  
0000000C  00000000   NOP
00000048  00000000   NOP
---  f:/isp_release/software/isp_root/framework/peripheral/can/templates/can_operationmoderead_default.h  
0000000C  00000000   NOP
00000028  00000000   NOP
---  f:/isp_release/software/isp_root/framework/peripheral/can/templates/can_moduleevents_default.h  ----
00000008  00000000   NOP
00000030  00000000   NOP
0000000C  00000000   NOP
00000028  00000000   NOP
---  f:/isp_release/software/isp_root/framework/peripheral/can/templates/can_moduleeventenable_default.h  
0000000C  00000000   NOP
00000048  00000000   NOP
00000008  00000000   NOP
00000038  00000000   NOP
---  f:/isp_release/software/isp_root/framework/peripheral/can/templates/can_messageisreceived_unsupported.h
00000024  00000000   NOP
---  f:/isp_release/software/isp_root/framework/peripheral/can/templates/can_memorybufferassign_default.h
00000010  00000000   NOP
00000034  00000000   NOP
---  f:/isp_release/software/isp_root/framework/peripheral/can/templates/can_latestfiltermatchget_pic32.h
0000000C  00000000   NOP
00000028  00000000   NOP
---  f:/isp_release/software/isp_root/framework/peripheral/can/templates/can_functionalmodeselect_unsupported.h
00000020  00000000   NOP
00000024  00000000   NOP
---  f:/isp_release/software/isp_root/framework/peripheral/can/templates/can_filtertochannellink_pic32.h  
00000008  00000000   NOP
00000084  00000000   NOP
00000048  00000000   NOP
000000C0  00000000   NOP
000000C4  00000000   NOP
000000C8  00000000   NOP
---  f:/isp_release/software/isp_root/framework/peripheral/can/templates/can_filtermaskconfigure_pic32.h  
0000000C  00000000   NOP
00000084  00000000   NOP
00000038  00000000   NOP
000000B0  00000000   NOP
00000014  00000000   NOP
0000008C  00000000   NOP
00000034  00000000   NOP
0000003C  00000000   NOP
000000AC  00000000   NOP
000000B4  00000000   NOP
000000E8  00000000   NOP
000000EC  00000000   NOP
000000F0  00000000   NOP
000000F4  00000000   NOP
000000F8  00000000   NOP
00000138  00000000   NOP
0000013C  00000000   NOP
00000140  00000000   NOP
00000144  00000000   NOP
00000148  00000000   NOP
000000F0  00000000   NOP
000000F4  00000000   NOP
00000144  00000000   NOP
00000148  00000000   NOP
0000014C  00000000   NOP
00000150  00000000   NOP
00000154  00000000   NOP
00000158  00000000   NOP
0000015C  00000000   NOP
00000160  00000000   NOP
00000164  00000000   NOP
00000168  00000000   NOP
0000004C  00000000   NOP
000000C4  00000000   NOP
00000108  00000000   NOP
0000015C  00000000   NOP
00000160  00000000   NOP
00000164  00000000   NOP
00000168  00000000   NOP
00000054  00000000   NOP
000000CC  00000000   NOP
000000D0  00000000   NOP
00000110  00000000   NOP
00000164  00000000   NOP
00000168  00000000   NOP
0000016C  00000000   NOP
00000170  00000000   NOP
0000011C  00000000   NOP
00000120  00000000   NOP
00000124  00000000   NOP
00000128  00000000   NOP
0000012C  00000000   NOP
00000130  00000000   NOP
00000134  00000000   NOP
00000138  00000000   NOP
0000013C  00000000   NOP
00000170  00000000   NOP
00000174  00000000   NOP
00000178  00000000   NOP
0000017C  00000000   NOP
00000180  00000000   NOP
00000184  00000000   NOP
00000188  00000000   NOP
0000018C  00000000   NOP
00000190  00000000   NOP
00000194  00000000   NOP
00000198  00000000   NOP
0000019C  00000000   NOP
000001A0  00000000   NOP
000001A4  00000000   NOP
000001A8  00000000   NOP
---  f:/isp_release/software/isp_root/framework/peripheral/can/templates/can_filterenable_pic32.h  ------
0000000C  00000000   NOP
0000005C  00000000   NOP
0000009C  00000000   NOP
00000018  00000000   NOP
00000068  00000000   NOP
00000088  00000000   NOP
0000000C  00000000   NOP
0000005C  00000000   NOP
0000009C  00000000   NOP
000000A0  00000000   NOP
00000018  00000000   NOP
00000068  00000000   NOP
00000088  00000000   NOP
0000000C  00000000   NOP
0000006C  00000000   NOP
000000B0  00000000   NOP
00000018  00000000   NOP
00000044  00000000   NOP
00000078  00000000   NOP
000000A0  00000000   NOP
---  f:/isp_release/software/isp_root/framework/peripheral/can/templates/can_filterconfigure_pic32.h  ---
0000000C  00000000   NOP
00000064  00000000   NOP
000000B0  00000000   NOP
000000B4  00000000   NOP
000000B8  00000000   NOP
000000BC  00000000   NOP
000000C0  00000000   NOP
000000C4  00000000   NOP
000000C8  00000000   NOP
00000018  00000000   NOP
00000070  00000000   NOP
00000074  00000000   NOP
00000078  00000000   NOP
0000007C  00000000   NOP
0000009C  00000000   NOP
000000A0  00000000   NOP
000000A4  00000000   NOP
00000078  00000000   NOP
0000007C  00000000   NOP
00000098  00000000   NOP
000000A0  00000000   NOP
000000A8  00000000   NOP
00000020  00000000   NOP
00000038  00000000   NOP
00000034  00000000   NOP
00000040  00000000   NOP
---  f:/isp_release/software/isp_root/framework/peripheral/can/templates/can_enablecontrol_default.h  ---
00000008  00000000   NOP
00000030  00000000   NOP
00000008  00000000   NOP
00000030  00000000   NOP
---  f:/isp_release/software/isp_root/framework/peripheral/can/templates/can_devicenet_default.h  -------
0000000C  00000000   NOP
0000003C  00000000   NOP
00000040  00000000   NOP
00000044  00000000   NOP
00000048  00000000   NOP
0000004C  00000000   NOP
00000050  00000000   NOP
00000054  00000000   NOP
00000058  00000000   NOP
---  f:/isp_release/software/isp_root/framework/peripheral/can/templates/can_channelupdate_pic32.h  -----
0000000C  00000000   NOP
00000048  00000000   NOP
00000078  00000000   NOP
0000007C  00000000   NOP
00000018  00000000   NOP
00000054  00000000   NOP
00000064  00000000   NOP
---  f:/isp_release/software/isp_root/framework/peripheral/can/templates/can_channelreset_pic32.h  ------
0000000C  00000000   NOP
00000048  00000000   NOP
00000078  00000000   NOP
0000007C  00000000   NOP
00000080  00000000   NOP
00000084  00000000   NOP
00000088  00000000   NOP
0000008C  00000000   NOP
00000090  00000000   NOP
00000094  00000000   NOP
00000098  00000000   NOP
0000009C  00000000   NOP
000000A0  00000000   NOP
000000A4  00000000   NOP
000000A8  00000000   NOP
00000018  00000000   NOP
00000054  00000000   NOP
00000058  00000000   NOP
00000064  00000000   NOP
0000000C  00000000   NOP
00000054  00000000   NOP
00000084  00000000   NOP
00000018  00000000   NOP
0000002C  00000000   NOP
00000060  00000000   NOP
00000074  00000000   NOP
---  f:/isp_release/software/isp_root/framework/peripheral/can/templates/can_channelfortransmitset_pic32.h
00000014  00000000   NOP
000000AC  00000000   NOP
000000F4  00000000   NOP
000000F8  00000000   NOP
000000FC  00000000   NOP
00000028  00000000   NOP
000000C0  00000000   NOP
000000C4  00000000   NOP
000000C8  00000000   NOP
000000CC  00000000   NOP
000000D0  00000000   NOP
000000D4  00000000   NOP
000000D8  00000000   NOP
000000DC  00000000   NOP
000000E0  00000000   NOP
000000E4  00000000   NOP
00000038  00000000   NOP
0000003C  00000000   NOP
00000040  00000000   NOP
00000044  00000000   NOP
000000D0  00000000   NOP
000000D4  00000000   NOP
000000D8  00000000   NOP
000000DC  00000000   NOP
000000E0  00000000   NOP
000000E4  00000000   NOP
000000E8  00000000   NOP
000000D8  00000000   NOP
000000E8  00000000   NOP
00000044  00000000   NOP
00000054  00000000   NOP
000000E0  00000000   NOP
000000E4  00000000   NOP
000000E8  00000000   NOP
000000EC  00000000   NOP
000000F0  00000000   NOP
0000007C  00000000   NOP
---  f:/isp_release/software/isp_root/framework/peripheral/can/templates/can_channelforreceiveset_pic32.h
0000000C  00000000   NOP
00000088  00000000   NOP
000000C4  00000000   NOP
00000020  00000000   NOP
0000009C  00000000   NOP
00000030  00000000   NOP
000000AC  00000000   NOP
00000038  00000000   NOP
000000B4  00000000   NOP
00000048  00000000   NOP
000000BC  00000000   NOP
---  f:/isp_release/software/isp_root/framework/peripheral/can/templates/can_channeleventget_default.h  -
0000000C  00000000   NOP
00000050  00000000   NOP
00000054  00000000   NOP
00000058  00000000   NOP
0000005C  00000000   NOP
00000060  00000000   NOP
00000064  00000000   NOP
0000007C  00000000   NOP
00000018  00000000   NOP
0000002C  00000000   NOP
0000005C  00000000   NOP
00000070  00000000   NOP
0000000C  00000000   NOP
0000004C  00000000   NOP
00000064  00000000   NOP
00000018  00000000   NOP
00000058  00000000   NOP
---  f:/isp_release/software/isp_root/framework/peripheral/can/templates/can_channeleventenable_pic32.h  
0000000C  00000000   NOP
00000054  00000000   NOP
00000074  00000000   NOP
00000078  00000000   NOP
0000007C  00000000   NOP
00000080  00000000   NOP
00000084  00000000   NOP
00000018  00000000   NOP
00000060  00000000   NOP
00000094  00000000   NOP
00000020  00000000   NOP
00000034  00000000   NOP
00000068  00000000   NOP
00000030  00000000   NOP
0000000C  00000000   NOP
00000058  00000000   NOP
00000078  00000000   NOP
0000007C  00000000   NOP
00000018  00000000   NOP
00000064  00000000   NOP
00000098  00000000   NOP
00000020  00000000   NOP
00000038  00000000   NOP
0000006C  00000000   NOP
00000070  00000000   NOP
00000030  00000000   NOP
---  f:/isp_release/software/isp_root/framework/peripheral/can/templates/can_busline3timessampling_default.h
00000008  00000000   NOP
00000030  00000000   NOP
00000008  00000000   NOP
00000030  00000000   NOP
---  f:/isp_release/software/isp_root/framework/peripheral/can/templates/can_busactivitywakeup_default.h  
00000008  00000000   NOP
00000030  00000000   NOP
00000034  00000000   NOP
00000008  00000000   NOP
00000030  00000000   NOP
---  f:/isp_release/software/isp_root/framework/peripheral/can/templates/can_allchanneloverflow_default.h
0000000C  00000000   NOP
00000028  00000000   NOP
---  f:/isp_release/software/isp_root/framework/peripheral/can/templates/can_allchannelevents_default.h  
0000000C  00000000   NOP
00000028  00000000   NOP
---  f:/isp_release/software/isp_root/framework/peripheral/can/templates/can_activestatus_default.h  ----
0000000C  00000000   NOP
00000028  00000000   NOP
---  f:/isp_release/software/isp_root/framework/peripheral/can/processor/can_p32mx795f512l.h  -----------
00000000  00000000   NOP
0000002C  00000000   NOP
00000024  00000000   NOP
00000000  00000000   NOP
00000018  00000000   NOP
00000010  00000000   NOP
0000002C  00000000   NOP
00000030  00000000   NOP
00000034  00000000   NOP
00000020  00000000   NOP
00000000  00000000   NOP
00000020  00000000   NOP
00000018  00000000   NOP
00000000  00000000   NOP
00000020  00000000   NOP
00000024  00000000   NOP
00000018  00000000   NOP
00000000  00000000   NOP
00000020  00000000   NOP
00000018  00000000   NOP
00000000  00000000   NOP
00000020  00000000   NOP
00000024  00000000   NOP
00000018  00000000   NOP
00000000  00000000   NOP
00000020  00000000   NOP
00000018  00000000   NOP
00000000  00000000   NOP
00000020  00000000   NOP
00000018  00000000   NOP
00000000  00000000   NOP
00000028  00000000   NOP
00000020  00000000   NOP
00000000  00000000   NOP
00000018  00000000   NOP
00000010  00000000   NOP
0000002C  00000000   NOP
00000020  00000000   NOP
00000000  00000000   NOP
00000020  00000000   NOP
00000018  00000000   NOP
00000000  00000000   NOP
00000020  00000000   NOP
00000018  00000000   NOP
00000000  00000000   NOP
00000020  00000000   NOP
00000018  00000000   NOP
00000000  00000000   NOP
00000018  00000000   NOP
00000010  00000000   NOP
0000002C  00000000   NOP
00000020  00000000   NOP
00000024  00000000   NOP
00000000  00000000   NOP
00000038  00000000   NOP
00000030  00000000   NOP
00000000  00000000   NOP
0000002C  00000000   NOP
00000024  00000000   NOP
00000000  00000000   NOP
00000038  00000000   NOP
00000030  00000000   NOP
00000000  00000000   NOP
00000030  00000000   NOP
00000028  00000000   NOP
00000000  00000000   NOP
00000020  00000000   NOP
00000018  00000000   NOP
00000000  00000000   NOP
00000020  00000000   NOP
00000018  00000000   NOP
00000000  00000000   NOP
00000020  00000000   NOP
00000018  00000000   NOP
00000000  00000000   NOP
00000020  00000000   NOP
00000018  00000000   NOP
0000001C  00000000   NOP
00000020  00000000   NOP
00000000  00000000   NOP
00000030  00000000   NOP
00000028  00000000   NOP
00000000  00000000   NOP
00000030  00000000   NOP
00000028  00000000   NOP
00000000  00000000   NOP
00000004  00000000   NOP
0000003C  00000000   NOP
00000030  00000000   NOP
00000060  00000000   NOP
00000070  00000000   NOP
00000074  00000000   NOP
00000078  00000000   NOP
00000000  00000000   NOP
00000004  00000000   NOP
0000003C  00000000   NOP
00000048  00000000   NOP
00000028  00000000   NOP
00000034  00000000   NOP
0000004C  00000000   NOP
00000070  00000000   NOP
0000007C  00000000   NOP
00000000  00000000   NOP
00000004  00000000   NOP
0000003C  00000000   NOP
00000030  00000000   NOP
00000060  00000000   NOP
00000070  00000000   NOP
00000000  00000000   NOP
00000038  00000000   NOP
00000030  00000000   NOP
00000000  00000000   NOP
00000028  00000000   NOP
00000020  00000000   NOP
00000000  00000000   NOP
00000020  00000000   NOP
00000018  00000000   NOP
00000000  00000000   NOP
00000018  00000000   NOP
00000010  00000000   NOP
0000002C  00000000   NOP
00000020  00000000   NOP
00000000  00000000   NOP
00000004  00000000   NOP
00000048  00000000   NOP
0000003C  00000000   NOP
00000000  00000000   NOP
00000004  00000000   NOP
0000004C  00000000   NOP
00000040  00000000   NOP
00000000  00000000   NOP
00000018  00000000   NOP
00000010  00000000   NOP
0000002C  00000000   NOP
00000020  00000000   NOP
00000000  00000000   NOP
00000018  00000000   NOP
00000010  00000000   NOP
0000002C  00000000   NOP
00000020  00000000   NOP
00000000  00000000   NOP
00000018  00000000   NOP
00000010  00000000   NOP
0000002C  00000000   NOP
00000020  00000000   NOP
00000024  00000000   NOP
00000028  00000000   NOP
0000002C  00000000   NOP
00000000  00000000   NOP
00000004  00000000   NOP
00000038  00000000   NOP
00000044  00000000   NOP
00000028  00000000   NOP
00000030  00000000   NOP
00000048  00000000   NOP
0000006C  00000000   NOP
00000074  00000000   NOP
00000000  00000000   NOP
00000004  00000000   NOP
00000040  00000000   NOP
00000034  00000000   NOP
00000000  00000000   NOP
00000008  00000000   NOP
0000000C  00000000   NOP
000000A0  00000000   NOP
00000094  00000000   NOP
00000000  00000000   NOP
00000020  00000000   NOP
00000018  00000000   NOP
00000000  00000000   NOP
00000004  00000000   NOP
0000003C  00000000   NOP
00000030  00000000   NOP
00000060  00000000   NOP
00000070  00000000   NOP
00000000  00000000   NOP
00000004  00000000   NOP
00000038  00000000   NOP
00000044  00000000   NOP
00000028  00000000   NOP
00000030  00000000   NOP
00000048  00000000   NOP
0000006C  00000000   NOP
00000074  00000000   NOP
00000000  00000000   NOP
00000004  00000000   NOP
00000018  00000000   NOP
00000000  00000000   NOP
00000004  00000000   NOP
00000038  00000000   NOP
00000044  00000000   NOP
00000028  00000000   NOP
00000030  00000000   NOP
00000048  00000000   NOP
0000006C  00000000   NOP
00000074  00000000   NOP
00000000  00000000   NOP
00000004  00000000   NOP
0000007C  00000000   NOP
00000080  00000000   NOP
00000070  00000000   NOP
00000000  00000000   NOP
00000004  00000000   NOP
00000070  00000000   NOP
00000000  00000000   NOP
00000004  00000000   NOP
00000058  00000000   NOP
0000004C  00000000   NOP
00000000  00000000   NOP
00000004  00000000   NOP
00000050  00000000   NOP
00000044  00000000   NOP
00000084  00000000   NOP
00000094  00000000   NOP
00000000  00000000   NOP
00000004  00000000   NOP
00000050  00000000   NOP
00000044  00000000   NOP
00000084  00000000   NOP
00000094  00000000   NOP
00000000  00000000   NOP
00000004  00000000   NOP
00000054  00000000   NOP
00000060  00000000   NOP
00000040  00000000   NOP
0000004C  00000000   NOP
00000064  00000000   NOP
0000009C  00000000   NOP
000000A8  00000000   NOP
000000AC  00000000   NOP
00000000  00000000   NOP
00000018  00000000   NOP
00000010  00000000   NOP
0000002C  00000000   NOP
00000020  00000000   NOP
00000000  00000000   NOP
00000074  00000000   NOP
0000006C  00000000   NOP
00000000  00000000   NOP
00000018  00000000   NOP
00000010  00000000   NOP
0000002C  00000000   NOP
00000020  00000000   NOP
00000000  00000000   NOP
00000018  00000000   NOP
00000010  00000000   NOP
0000002C  00000000   NOP
00000020  00000000   NOP
00000000  00000000   NOP
00000004  00000000   NOP
00000018  00000000   NOP
00000000  00000000   NOP
00000004  00000000   NOP
00000018  00000000   NOP
00000000  00000000   NOP
00000004  00000000   NOP
00000018  00000000   NOP
00000000  00000000   NOP
00000004  00000000   NOP
00000018  00000000   NOP
00000000  00000000   NOP
00000004  00000000   NOP
00000018  00000000   NOP
00000000  00000000   NOP
00000004  00000000   NOP
00000018  00000000   NOP
00000000  00000000   NOP
00000004  00000000   NOP
00000018  00000000   NOP
00000000  00000000   NOP
00000004  00000000   NOP
00000018  00000000   NOP
00000000  00000000   NOP
00000004  00000000   NOP
00000018  00000000   NOP
00000000  00000000   NOP
00000004  00000000   NOP
00000018  00000000   NOP
00000000  00000000   NOP
---  f:/isp_release/software/isp_root/framework/peripheral/bmx/templates/bmx_programflashpartition_default.h
00000010  00000000   NOP
00000008  00000000   NOP
---  f:/isp_release/software/isp_root/framework/peripheral/bmx/templates/bmx_programflashmemorysize_default.h
00000010  00000000   NOP
---  f:/isp_release/software/isp_root/framework/peripheral/bmx/templates/bmx_programflashmemorycachedma_default.h
00000008  00000000   NOP
---  f:/isp_release/software/isp_root/framework/peripheral/bmx/templates/bmx_programflashbootsize_default.h
00000010  00000000   NOP
---  f:/isp_release/software/isp_root/framework/peripheral/bmx/templates/bmx_dataramwaitstate_default.h  
00000008  00000000   NOP
00000010  00000000   NOP
00000010  00000000   NOP
---  f:/isp_release/software/isp_root/framework/peripheral/bmx/templates/bmx_datarampartition_default.h  
00000008  00000000   NOP
0000000C  00000000   NOP
00000014  00000000   NOP
00000010  00000000   NOP
---  f:/isp_release/software/isp_root/framework/peripheral/bmx/templates/bmx_busexceptionixi_default.h  -
00000008  00000000   NOP
00000008  00000000   NOP
00000008  00000000   NOP
00000008  00000000   NOP
00000008  00000000   NOP
00000008  00000000   NOP
00000038  00000000   NOP
00000050  00000000   NOP
0000001C  00000000   NOP
00000010  00000000   NOP
---  f:/isp_release/software/isp_root/framework/peripheral/bmx/processor/bmx_p32mx795f512l.h  -----------
00000000  00000000   NOP
00000014  00000000   NOP
00000008  00000000   NOP
00000000  00000000   NOP
00000014  00000000   NOP
00000008  00000000   NOP
00000000  00000000   NOP
00000014  00000000   NOP
00000008  00000000   NOP
00000000  00000000   NOP
00000014  00000000   NOP
00000018  00000000   NOP
0000001C  00000000   NOP
00000008  00000000   NOP
00000000  00000000   NOP
00000014  00000000   NOP
00000008  00000000   NOP
00000000  00000000   NOP
00000014  00000000   NOP
00000008  00000000   NOP
00000000  00000000   NOP
00000014  00000000   NOP
00000008  00000000   NOP
00000000  00000000   NOP
00000014  00000000   NOP
00000008  00000000   NOP
00000000  00000000   NOP
00000014  00000000   NOP
00000008  00000000   NOP
---  f:/isp_release/software/isp_root/framework/peripheral/adcp/processor/adcp_p32mx795f512l.h  ---------
00000000  00000000   NOP
00000004  00000000   NOP
00000000  00000000   NOP
00000004  00000000   NOP
00000008  00000000   NOP
00000000  00000000   NOP
---  f:/isp_release/software/isp_root/framework/peripheral/adc/templates/adc_voltagereference_default.h  
00000008  00000000   NOP
00000008  00000000   NOP
---  f:/isp_release/software/isp_root/framework/peripheral/adc/templates/adc_samplingstatus_default.h  --
00000010  00000000   NOP
---  f:/isp_release/software/isp_root/framework/peripheral/adc/templates/adc_samplingmodecontrol_default.h
00000008  00000000   NOP
00000008  00000000   NOP
00000008  00000000   NOP
0000000C  00000000   NOP
00000010  00000000   NOP
00000008  00000000   NOP
00000008  00000000   NOP
00000008  00000000   NOP
---  f:/isp_release/software/isp_root/framework/peripheral/adc/templates/adc_sampleresolution_unsupported.h
0000000C  00000000   NOP
0000000C  00000000   NOP
0000000C  00000000   NOP
---  f:/isp_release/software/isp_root/framework/peripheral/adc/templates/adc_resultgetbyindex_pic32.h  --
00000010  00000000   NOP
---  f:/isp_release/software/isp_root/framework/peripheral/adc/templates/adc_resultget_unsupported.h  ---
0000000C  00000000   NOP
00000010  00000000   NOP
00000014  00000000   NOP
---  f:/isp_release/software/isp_root/framework/peripheral/adc/templates/adc_resultformat_default.h  ----
00000008  00000000   NOP
00000008  00000000   NOP
---  f:/isp_release/software/isp_root/framework/peripheral/adc/templates/adc_resultbufferfillstatus_default.h
00000010  00000000   NOP
---  f:/isp_release/software/isp_root/framework/peripheral/adc/templates/adc_pairtriggersource_unsupported.h
0000000C  00000000   NOP
0000000C  00000000   NOP
0000000C  00000000   NOP
0000000C  00000000   NOP
0000000C  00000000   NOP
00000010  00000000   NOP
00000014  00000000   NOP
0000000C  00000000   NOP
---  f:/isp_release/software/isp_root/framework/peripheral/adc/templates/adc_muxinputscanselect_inone16bitregister.h
00000008  00000000   NOP
00000008  00000000   NOP
---  f:/isp_release/software/isp_root/framework/peripheral/adc/templates/adc_muxchannel123positiveinput_unsupported.h
0000000C  00000000   NOP
00000010  00000000   NOP
00000014  00000000   NOP
00000018  00000000   NOP
0000001C  00000000   NOP
---  f:/isp_release/software/isp_root/framework/peripheral/adc/templates/adc_muxchannel123negativeinput_unsupported.h
0000000C  00000000   NOP
---  f:/isp_release/software/isp_root/framework/peripheral/adc/templates/adc_muxchannel0positiveinput_default.h
00000008  00000000   NOP
0000003C  00000000   NOP
00000040  00000000   NOP
00000044  00000000   NOP
00000010  00000000   NOP
---  f:/isp_release/software/isp_root/framework/peripheral/adc/templates/adc_muxchannel0negativeinput_default.h
00000008  00000000   NOP
00000038  00000000   NOP
00000010  00000000   NOP
---  f:/isp_release/software/isp_root/framework/peripheral/adc/templates/adc_isrjumptablebaseaddress_unsupported.h
0000000C  00000000   NOP
0000000C  00000000   NOP
0000000C  00000000   NOP
00000010  00000000   NOP
00000014  00000000   NOP
00000018  00000000   NOP
0000000C  00000000   NOP
0000000C  00000000   NOP
---  f:/isp_release/software/isp_root/framework/peripheral/adc/templates/adc_enablecontrol_default.h  ---
00000008  00000000   NOP
0000000C  00000000   NOP
00000008  00000000   NOP
---  f:/isp_release/software/isp_root/framework/peripheral/adc/templates/adc_dmacontrol_unsupported.h  --
0000000C  00000000   NOP
0000000C  00000000   NOP
0000000C  00000000   NOP
0000000C  00000000   NOP
---  f:/isp_release/software/isp_root/framework/peripheral/adc/templates/adc_conversiontriggersource_default.h
00000008  00000000   NOP
---  f:/isp_release/software/isp_root/framework/peripheral/adc/templates/adc_conversiontriggergroup_unsupported.h
0000000C  00000000   NOP
---  f:/isp_release/software/isp_root/framework/peripheral/adc/templates/adc_conversionstopsequencecontrol_default.h
00000008  00000000   NOP
---  f:/isp_release/software/isp_root/framework/peripheral/adc/templates/adc_conversionstatus_default.h  
00000010  00000000   NOP
---  f:/isp_release/software/isp_root/framework/peripheral/adc/templates/adc_conversionorder_unsupported.h
0000000C  00000000   NOP
---  f:/isp_release/software/isp_root/framework/peripheral/adc/templates/adc_conversioncontrol_default.h  
00000008  00000000   NOP
00000008  00000000   NOP
00000008  00000000   NOP
00000020  00000000   NOP
00000010  00000000   NOP
00000028  00000000   NOP
00000010  00000000   NOP
00000014  00000000   NOP
---  f:/isp_release/software/isp_root/framework/peripheral/adc/templates/adc_channelgroup_unsupported.h  
0000000C  00000000   NOP
---  f:/isp_release/software/isp_root/framework/peripheral/adc/templates/adc_calibrationcontrol_default.h
00000008  00000000   NOP
0000000C  00000000   NOP
00000010  00000000   NOP
00000014  00000000   NOP
00000018  00000000   NOP
0000001C  00000000   NOP
00000020  00000000   NOP
00000024  00000000   NOP
00000028  00000000   NOP
0000002C  00000000   NOP
00000030  00000000   NOP
00000034  00000000   NOP
---  f:/isp_release/software/isp_root/framework/peripheral/adc/templates/adc_asynchronousdedicatedsampling_unsupported.h
0000000C  00000000   NOP
---  f:/isp_release/software/isp_root/framework/peripheral/adc/processor/adc_p32mx795f512l.h  -----------
00000000  00000000   NOP
00000004  00000000   NOP
00000008  00000000   NOP
0000000C  00000000   NOP
00000000  00000000   NOP
00000004  00000000   NOP
00000000  00000000   NOP
00000004  00000000   NOP
0000002C  00000000   NOP
00000000  00000000   NOP
00000004  00000000   NOP
0000002C  00000000   NOP
00000030  00000000   NOP
00000034  00000000   NOP
00000038  00000000   NOP
0000003C  00000000   NOP
00000040  00000000   NOP
00000044  00000000   NOP
00000048  00000000   NOP
0000004C  00000000   NOP
00000000  00000000   NOP
00000004  00000000   NOP
0000002C  00000000   NOP
00000000  00000000   NOP
00000004  00000000   NOP
0000002C  00000000   NOP
00000000  00000000   NOP
00000004  00000000   NOP
0000002C  00000000   NOP
00000000  00000000   NOP
00000004  00000000   NOP
0000002C  00000000   NOP
00000030  00000000   NOP
00000034  00000000   NOP
00000038  00000000   NOP
0000003C  00000000   NOP
00000040  00000000   NOP
00000000  00000000   NOP
00000004  00000000   NOP
0000002C  00000000   NOP
00000000  00000000   NOP
00000004  00000000   NOP
00000008  00000000   NOP
0000002C  00000000   NOP
00000030  00000000   NOP
00000000  00000000   NOP
00000004  00000000   NOP
00000008  00000000   NOP
00000000  00000000   NOP
00000004  00000000   NOP
0000002C  00000000   NOP
00000030  00000000   NOP
00000000  00000000   NOP
00000004  00000000   NOP
00000000  00000000   NOP
00000004  00000000   NOP
00000008  00000000   NOP
0000002C  00000000   NOP
00000000  00000000   NOP
00000004  00000000   NOP
0000002C  00000000   NOP
00000000  00000000   NOP
00000004  00000000   NOP
0000002C  00000000   NOP
00000000  00000000   NOP
00000004  00000000   NOP
00000008  00000000   NOP
0000002C  00000000   NOP
00000000  00000000   NOP
00000014  00000000   NOP
00000008  00000000   NOP
00000000  00000000   NOP
00000020  00000000   NOP
00000008  00000000   NOP
00000000  00000000   NOP
00000004  00000000   NOP
0000002C  00000000   NOP
00000000  00000000   NOP
00000014  00000000   NOP
00000008  00000000   NOP
00000000  00000000   NOP
00000004  00000000   NOP
0000002C  00000000   NOP
00000000  00000000   NOP
00000014  00000000   NOP
00000008  00000000   NOP
00000000  00000000   NOP
00000004  00000000   NOP
0000002C  00000000   NOP
00000000  00000000   NOP
00000004  00000000   NOP
0000002C  00000000   NOP
00000000  00000000   NOP
00000024  00000000   NOP
00000008  00000000   NOP
00000000  00000000   NOP
00000004  00000000   NOP
0000002C  00000000   NOP
00000000  00000000   NOP
00000004  00000000   NOP
0000002C  00000000   NOP
00000000  00000000   NOP
00000004  00000000   NOP
0000002C  00000000   NOP
00000000  00000000   NOP
00000004  00000000   NOP
0000002C  00000000   NOP
00000000  00000000   NOP
00000004  00000000   NOP
0000002C  00000000   NOP
00000000  00000000   NOP
00000004  00000000   NOP
0000002C  00000000   NOP
00000000  00000000   NOP
00000004  00000000   NOP
0000002C  00000000   NOP
00000030  00000000   NOP
00000034  00000000   NOP
00000000  00000000   NOP
00000004  00000000   NOP
0000002C  00000000   NOP
00000000  00000000   NOP
00000004  00000000   NOP
0000002C  00000000   NOP
00000000  00000000   NOP
00000004  00000000   NOP
0000002C  00000000   NOP
00000000  00000000   NOP
00000004  00000000   NOP
0000002C  00000000   NOP
00000000  00000000   NOP
00000004  00000000   NOP
0000002C  00000000   NOP
00000000  00000000   NOP
00000004  00000000   NOP
0000002C  00000000   NOP
00000000  00000000   NOP
00000004  00000000   NOP
0000002C  00000000   NOP
00000000  00000000   NOP
00000004  00000000   NOP
0000002C  00000000   NOP
00000000  00000000   NOP
---  c:/projectes/projectes mplab/eos/source/start.c  ---------------------------------------------------
1:                   #include "eos.h"
2:                   
3:                   
4:                   #if defined(_PIC18)
5:                   extern void usrSetup(void);
6:                   void usrLoop(void);
7:                   
8:                   #elif defined(__PIC32MX)
9:                   __attribute__((weak)) void usrSetup(void) {
9D00CDB0  27BDFFF8   ADDIU SP, SP, -8
9D00CDB4  AFBE0004   SW S8, 4(SP)
9D00CDB8  03A0F021   ADDU S8, SP, ZERO
10:                  }
9D00CDBC  03C0E821   ADDU SP, S8, ZERO
9D00CDC0  8FBE0004   LW S8, 4(SP)
9D00CDC4  27BD0008   ADDIU SP, SP, 8
9D00CDC8  03E00008   JR RA
9D00CDCC  00000000   NOP
11:                  
12:                  __attribute__((weak)) void usrLoop(void) {
9D00CDD0  27BDFFF8   ADDIU SP, SP, -8
9D00CDD4  AFBE0004   SW S8, 4(SP)
9D00CDD8  03A0F021   ADDU S8, SP, ZERO
13:                     
14:                  }
9D00CDDC  03C0E821   ADDU SP, S8, ZERO
9D00CDE0  8FBE0004   LW S8, 4(SP)
9D00CDE4  27BD0008   ADDIU SP, SP, 8
9D00CDE8  03E00008   JR RA
9D00CDEC  00000000   NOP
15:                  #endif
16:                  
17:                  
18:                  /*************************************************************************
19:                   *
20:                   *       Interrupcio TICK del EOS, cal cridarla cada 1ms
21:                   *
22:                   *       Funcio:
23:                   *           void eosTickInterrupt(void)
24:                   *
25:                   *************************************************************************/
26:                  
27:                  void eosTickInterrupt(void) {
9D00CDF0  27BDFFE8   ADDIU SP, SP, -24
9D00CDF4  AFBF0014   SW RA, 20(SP)
9D00CDF8  AFBE0010   SW S8, 16(SP)
9D00CDFC  03A0F021   ADDU S8, SP, ZERO
28:                  
29:                  #ifdef EOS_USE_OUTPUTS
30:                      sysOutTickInterrupt();
9D00CE00  0F402A93   JAL sysOutTickInterrupt
9D00CE04  00000000   NOP
31:                  #endif
32:                  
33:                  #ifdef EOS_USE_INPUTS
34:                      sysInpTickInterrupt();
9D00CE08  0F402F5A   JAL sysInpTickInterrupt
9D00CE0C  00000000   NOP
35:                  #endif
36:                  
37:                  #ifdef EOS_USE_TIMERS
38:                      sysTimTickInterrupt();
39:                  #endif
40:                  
41:                  #ifdef EOS_USE_LEDSTATUS
42:                      sysLedTickInterrupt();
9D00CE10  0F403593   JAL sysLedTickInterrupt
9D00CE14  00000000   NOP
43:                  #endif
44:                  }
9D00CE18  03C0E821   ADDU SP, S8, ZERO
9D00CE1C  8FBF0014   LW RA, 20(SP)
9D00CE20  8FBE0010   LW S8, 16(SP)
9D00CE24  27BD0018   ADDIU SP, SP, 24
9D00CE28  03E00008   JR RA
9D00CE2C  00000000   NOP
45:                  
46:                  
47:                  /*************************************************************************
48:                   *
49:                   *       Entrada a l'aplicacio. Inicialitza el sistema, i executa
50:                   *       el bucle d'usuari
51:                   *
52:                   *       Funcio:
53:                   *           void eosMain(void)
54:                   *
55:                   *************************************************************************/
56:                  
57:                  void eosMain(void) {
9D00CE30  27BDFFE8   ADDIU SP, SP, -24
9D00CE34  AFBF0014   SW RA, 20(SP)
9D00CE38  AFBE0010   SW S8, 16(SP)
9D00CE3C  03A0F021   ADDU S8, SP, ZERO
58:                  
59:                      __halInitialize();
9D00CE40  0F402BC5   JAL halInitialize
9D00CE44  00000000   NOP
60:                  
61:                  #ifdef EOS_USE_OUTPUTS
62:                      sysOutInitialize();
9D00CE48  0F402A72   JAL sysOutInitialize
9D00CE4C  00000000   NOP
63:                  #endif
64:                  
65:                  #ifdef EOS_USE_INPUTS
66:                      sysInpInitialize();
9D00CE50  0F402F34   JAL sysInpInitialize
9D00CE54  00000000   NOP
67:                  #endif
68:                  
69:                  #ifdef EOS_USE_TIMERS
70:                      sysTimInitialize();
71:                  #endif
72:                  
73:                  #ifdef EOS_USE_VARIABLES
74:                      sysVarInitialize();
75:                  #endif
76:                  
77:                  #ifdef EOS_USE_LEDSTATUS
78:                      sysLedInitialize();
9D00CE58  0F403589   JAL sysLedInitialize
9D00CE5C  00000000   NOP
79:                  #endif
80:                  
81:                  #ifdef EOS_USE_USBHOST
82:                      sysUsbHostInitialize();
83:                  #endif
84:                  
85:                  #if !defined(__DEBUG) && defined(EOS_USE_WATCHDOG)
86:                      eosEnableWatchdog();
87:                  #endif
88:                  
89:                      usrSetup();
9D00CE60  0F403429   JAL usrSetup
9D00CE64  00000000   NOP
90:                      eosEnableInterrupts();
9D00CE68  00002021   ADDU A0, ZERO, ZERO
9D00CE6C  0F403708   JAL PLIB_INT_Enable
9D00CE70  00000000   NOP
91:                   
92:                      while (TRUE) {
93:                  
94:                  #ifdef EOS_USE_OUTPUTS
95:                          sysOutLoop();
9D00CE74  0F402ABE   JAL sysOutLoop
9D00CE78  00000000   NOP
96:                  #endif
97:                  
98:                  #ifdef EOS_USE_INPUTS
99:                          sysInpLoop();
9D00CE7C  0F402F83   JAL sysInpLoop
9D00CE80  00000000   NOP
100:                 #endif
101:                 
102:                 #ifdef EOS_USE_TIMERS
103:                         sysTimLoop();
104:                 #endif
105:                 
106:                 #ifdef EOS_USE_USBHOST
107:                         sysUsbHostLoop();
108:                 #endif
109:                 
110:                         usrLoop();
9D00CE84  0F403431   JAL usrLoop
9D00CE88  00000000   NOP
111:                 
112:                 #if !defined(__DEBUG) && defined(EOS_USE_WATCHDOG)
113:                         eosClearWatchdog();
114:                 #endif
115:                     }
9D00CE8C  0B40339D   J 0x9D00CE74
9D00CE90  00000000   NOP
116:                 }
117:                  
118:                 
119:                 /*************************************************************************
120:                  *
121:                  *       Entrada a l'aplicacio desde el compilador
122:                  *
123:                  *       Funcio:
124:                  *           void main(void)
125:                  *
126:                  *************************************************************************/
127:                 
128:                 #ifdef EOS_USE_SYSMAIN
129:                 void main(void) {
9D00CE94  27BDFFE8   ADDIU SP, SP, -24
9D00CE98  AFBF0014   SW RA, 20(SP)
9D00CE9C  AFBE0010   SW S8, 16(SP)
9D00CEA0  03A0F021   ADDU S8, SP, ZERO
130:                 
131:                     eosMain();
9D00CEA4  0F40338C   JAL eosMain
9D00CEA8  00000000   NOP
132:                 }
9D00CEAC  03C0E821   ADDU SP, S8, ZERO
9D00CEB0  8FBF0014   LW RA, 20(SP)
9D00CEB4  8FBE0010   LW S8, 16(SP)
9D00CEB8  27BD0018   ADDIU SP, SP, 24
9D00CEBC  03E00008   JR RA
9D00CEC0  00000000   NOP
133:                 #endif
---  c:/projectes/projectes mplab/eos/source/modules/outputs.c  -----------------------------------------
1:                   #include "eos.h"
2:                   
3:                   
4:                   #if defined(EOS_USE_OUTPUTS)
5:                   
6:                   
7:                   #if !defined(EOS_NUM_OUTPUTS) || (EOS_NUM_OUTPUTS < 1) || (EOS_NUM_OUTPUTS > 32)
8:                   #error 'EOS_NUM_OUTPUTS' ha de estar en el intervalo 1..32
9:                   #endif
10:                  
11:                  typedef struct {             // Estat del port
12:                      UINT16 counter;          // -Contador de temps pels pulsos en ms
13:                      unsigned timeout:1;      // -India el final del temps
14:                      unsigned state:1;        // -Indica si esta actiu o no
15:                  } PORTINFO;
16:                  
17:                  static PORTINFO ports[EOS_NUM_OUTPUTS];
18:                  
19:                  
20:                  /*************************************************************************
21:                   *
22:                   *       Inicialitza la gestio de les sortides
23:                   *
24:                   *       Funcio:
25:                   *           void eosOutInitialize(void)
26:                   *
27:                   *************************************************************************/
28:                  
29:                  void sysOutInitialize(void) {
9D00A9C8  27BDFFF0   ADDIU SP, SP, -16
9D00A9CC  AFBE000C   SW S8, 12(SP)
9D00A9D0  03A0F021   ADDU S8, SP, ZERO
30:                  
31:                      UINT8 outputId = EOS_NUM_OUTPUTS - 1;
9D00A9D4  24020001   ADDIU V0, ZERO, 1
9D00A9D8  A3C20000   SB V0, 0(S8)
32:                      do {
33:                          PORTINFO *p = &ports[outputId];
9D00A9DC  93C20000   LBU V0, 0(S8)
9D00A9E0  00021880   SLL V1, V0, 2
9D00A9E4  2782802C   ADDIU V0, GP, -32724
9D00A9E8  00621021   ADDU V0, V1, V0
9D00A9EC  AFC20004   SW V0, 4(S8)
34:                          p->state = FALSE;
9D00A9F0  8FC30004   LW V1, 4(S8)
9D00A9F4  8C620000   LW V0, 0(V1)
9D00A9F8  7C028C44   INS V0, ZERO, 17, 1
9D00A9FC  AC620000   SW V0, 0(V1)
35:                          p->counter = 0;
9D00AA00  8FC20004   LW V0, 4(S8)
9D00AA04  A4400000   SH ZERO, 0(V0)
36:                          p->timeout = FALSE;
9D00AA08  8FC30004   LW V1, 4(S8)
9D00AA0C  8C620000   LW V0, 0(V1)
9D00AA10  7C028404   INS V0, ZERO, 16, 1
9D00AA14  AC620000   SW V0, 0(V1)
37:                      } while (outputId--);
9D00AA18  93C20000   LBU V0, 0(S8)
9D00AA1C  0002102B   SLTU V0, ZERO, V0
9D00AA20  304200FF   ANDI V0, V0, 255
9D00AA24  93C30000   LBU V1, 0(S8)
9D00AA28  2463FFFF   ADDIU V1, V1, -1
9D00AA2C  A3C30000   SB V1, 0(S8)
9D00AA30  1440FFEA   BNE V0, ZERO, 0x9D00A9DC
9D00AA34  00000000   NOP
38:                  }
9D00AA38  03C0E821   ADDU SP, S8, ZERO
9D00AA3C  8FBE000C   LW S8, 12(SP)
9D00AA40  27BD0010   ADDIU SP, SP, 16
9D00AA44  03E00008   JR RA
9D00AA48  00000000   NOP
39:                  
40:                  
41:                  /*************************************************************************
42:                   *
43:                   *       Interrupcio Tick
44:                   *
45:                   *       Funcio:
46:                   *           void eosOutTickInterrupt(void)
47:                   *
48:                   *************************************************************************/
49:                  
50:                  void sysOutTickInterrupt(void) {
9D00AA4C  27BDFFE8   ADDIU SP, SP, -24
9D00AA50  AFBE0014   SW S8, 20(SP)
9D00AA54  03A0F021   ADDU S8, SP, ZERO
51:                  
52:                      // Actualitza les sortides temporitzades
53:                      //
54:                      UINT8 outputId = EOS_NUM_OUTPUTS - 1;
9D00AA58  24020001   ADDIU V0, ZERO, 1
9D00AA5C  A3C20000   SB V0, 0(S8)
55:                      do {
56:                          PORTINFO *p = &ports[outputId];
9D00AA60  93C20000   LBU V0, 0(S8)
9D00AA64  00021880   SLL V1, V0, 2
9D00AA68  2782802C   ADDIU V0, GP, -32724
9D00AA6C  00621021   ADDU V0, V1, V0
9D00AA70  AFC20004   SW V0, 4(S8)
57:                          UINT16 counter = p->counter;
9D00AA74  8FC20004   LW V0, 4(S8)
9D00AA78  94420000   LHU V0, 0(V0)
9D00AA7C  A7C20008   SH V0, 8(S8)
58:                          if (counter) {
9D00AA80  97C20008   LHU V0, 8(S8)
9D00AA84  1040000F   BEQ V0, ZERO, 0x9D00AAC4
9D00AA88  00000000   NOP
59:                              counter--;
9D00AA8C  97C20008   LHU V0, 8(S8)
9D00AA90  2442FFFF   ADDIU V0, V0, -1
9D00AA94  A7C20008   SH V0, 8(S8)
60:                              if (!counter)
9D00AA98  97C20008   LHU V0, 8(S8)
9D00AA9C  14400006   BNE V0, ZERO, 0x9D00AAB8
9D00AAA0  00000000   NOP
61:                                  p->timeout = TRUE;
9D00AAA4  8FC30004   LW V1, 4(S8)
9D00AAA8  8C620000   LW V0, 0(V1)
9D00AAAC  24040001   ADDIU A0, ZERO, 1
9D00AAB0  7C828404   INS V0, A0, 16, 1
9D00AAB4  AC620000   SW V0, 0(V1)
62:                              p->counter = counter;
9D00AAB8  8FC20004   LW V0, 4(S8)
9D00AABC  97C30008   LHU V1, 8(S8)
9D00AAC0  A4430000   SH V1, 0(V0)
63:                          }
64:                      } while (outputId--);
9D00AAC4  93C20000   LBU V0, 0(S8)
9D00AAC8  0002102B   SLTU V0, ZERO, V0
9D00AACC  304200FF   ANDI V0, V0, 255
9D00AAD0  93C30000   LBU V1, 0(S8)
9D00AAD4  2463FFFF   ADDIU V1, V1, -1
9D00AAD8  A3C30000   SB V1, 0(S8)
9D00AADC  1440FFE0   BNE V0, ZERO, 0x9D00AA60
9D00AAE0  00000000   NOP
65:                  }
9D00AAE4  03C0E821   ADDU SP, S8, ZERO
9D00AAE8  8FBE0014   LW S8, 20(SP)
9D00AAEC  27BD0018   ADDIU SP, SP, 24
9D00AAF0  03E00008   JR RA
9D00AAF4  00000000   NOP
66:                  
67:                  
68:                  /*************************************************************************
69:                   *
70:                   *       Tasca de control de les sortides. Es crida en cada cicle
71:                   *
72:                   *       Funcio:
73:                   *           void eosOutLoop(void)
74:                   *
75:                   *************************************************************************/
76:                  
77:                  void sysOutLoop(void){
9D00AAF8  27BDFFE0   ADDIU SP, SP, -32
9D00AAFC  AFBF001C   SW RA, 28(SP)
9D00AB00  AFBE0018   SW S8, 24(SP)
9D00AB04  03A0F021   ADDU S8, SP, ZERO
78:                  
79:                      UINT8 outputId = EOS_NUM_OUTPUTS - 1;
9D00AB08  24020001   ADDIU V0, ZERO, 1
9D00AB0C  A3C20010   SB V0, 16(S8)
80:                      do {
81:                  
82:                          eosDisableInterrupts();
9D00AB10  00002021   ADDU A0, ZERO, ZERO
9D00AB14  0F40370E   JAL PLIB_INT_Disable
9D00AB18  00000000   NOP
83:                  
84:                          PORTINFO *p = &ports[outputId];
9D00AB1C  93C20010   LBU V0, 16(S8)
9D00AB20  00021880   SLL V1, V0, 2
9D00AB24  2782802C   ADDIU V0, GP, -32724
9D00AB28  00621021   ADDU V0, V1, V0
9D00AB2C  AFC20014   SW V0, 20(S8)
85:                          if (p->timeout) {
9D00AB30  8FC20014   LW V0, 20(S8)
9D00AB34  8C430000   LW V1, 0(V0)
9D00AB38  3C020001   LUI V0, 1
9D00AB3C  00621024   AND V0, V1, V0
9D00AB40  1040000F   BEQ V0, ZERO, 0x9D00AB80
9D00AB44  00000000   NOP
86:                              p->timeout = FALSE;
9D00AB48  8FC30014   LW V1, 20(S8)
9D00AB4C  8C620000   LW V0, 0(V1)
9D00AB50  7C028404   INS V0, ZERO, 16, 1
9D00AB54  AC620000   SW V0, 0(V1)
87:                              p->state = !p->state;
9D00AB58  8FC20014   LW V0, 20(S8)
9D00AB5C  8C430000   LW V1, 0(V0)
9D00AB60  3C020002   LUI V0, 2
9D00AB64  00621024   AND V0, V1, V0
9D00AB68  2C420001   SLTIU V0, V0, 1
9D00AB6C  304400FF   ANDI A0, V0, 255
9D00AB70  8FC30014   LW V1, 20(S8)
9D00AB74  8C620000   LW V0, 0(V1)
9D00AB78  7C828C44   INS V0, A0, 17, 1
9D00AB7C  AC620000   SW V0, 0(V1)
88:                          }
89:                          __halOutPortWrite(outputId, p->state);
9D00AB80  93C30010   LBU V1, 16(S8)
9D00AB84  8FC20014   LW V0, 20(S8)
9D00AB88  8C420000   LW V0, 0(V0)
9D00AB8C  7C420440   EXT V0, V0, 17, 1
9D00AB90  304200FF   ANDI V0, V0, 255
9D00AB94  00602021   ADDU A0, V1, ZERO
9D00AB98  00402821   ADDU A1, V0, ZERO
9D00AB9C  0F402C44   JAL halOutPortWrite
9D00ABA0  00000000   NOP
90:                  
91:                          eosEnableInterrupts();
9D00ABA4  00002021   ADDU A0, ZERO, ZERO
9D00ABA8  0F403708   JAL PLIB_INT_Enable
9D00ABAC  00000000   NOP
92:                  
93:                      } while (outputId--);
9D00ABB0  93C20010   LBU V0, 16(S8)
9D00ABB4  0002102B   SLTU V0, ZERO, V0
9D00ABB8  304200FF   ANDI V0, V0, 255
9D00ABBC  93C30010   LBU V1, 16(S8)
9D00ABC0  2463FFFF   ADDIU V1, V1, -1
9D00ABC4  A3C30010   SB V1, 16(S8)
9D00ABC8  1440FFD1   BNE V0, ZERO, 0x9D00AB10
9D00ABCC  00000000   NOP
94:                  }
9D00ABD0  03C0E821   ADDU SP, S8, ZERO
9D00ABD4  8FBF001C   LW RA, 28(SP)
9D00ABD8  8FBE0018   LW S8, 24(SP)
9D00ABDC  27BD0020   ADDIU SP, SP, 32
9D00ABE0  03E00008   JR RA
9D00ABE4  00000000   NOP
95:                  
96:                  
97:                  /*************************************************************************
98:                   *
99:                   *       Asigna l'estat a una sortida
100:                  *
101:                  *       Funcio:
102:                  *           void eosOutSet(UINT8 outputId, BOOL state)
103:                  *
104:                  *       Entrada:
105:                  *           outputId: Numero de sortida
106:                  *           state   : El nou estat a asignar
107:                  *
108:                  *************************************************************************/
109:                 
110:                 void eosOutSet(UINT8 outputId, BOOL state) {
9D00ABE8  27BDFFE0   ADDIU SP, SP, -32
9D00ABEC  AFBF001C   SW RA, 28(SP)
9D00ABF0  AFBE0018   SW S8, 24(SP)
9D00ABF4  03A0F021   ADDU S8, SP, ZERO
9D00ABF8  00801021   ADDU V0, A0, ZERO
9D00ABFC  AFC50024   SW A1, 36(S8)
9D00AC00  A3C20020   SB V0, 32(S8)
111:                 
112:                     if (outputId < EOS_NUM_OUTPUTS) {
9D00AC04  93C20020   LBU V0, 32(S8)
9D00AC08  2C420002   SLTIU V0, V0, 2
9D00AC0C  1040001A   BEQ V0, ZERO, 0x9D00AC78
9D00AC10  00000000   NOP
113:                 
114:                         PORTINFO *p = &ports[outputId];
9D00AC14  93C20020   LBU V0, 32(S8)
9D00AC18  00021880   SLL V1, V0, 2
9D00AC1C  2782802C   ADDIU V0, GP, -32724
9D00AC20  00621021   ADDU V0, V1, V0
9D00AC24  AFC20010   SW V0, 16(S8)
115:                         p->state = state;
9D00AC28  8FC20024   LW V0, 36(S8)
9D00AC2C  304200FF   ANDI V0, V0, 255
9D00AC30  30420001   ANDI V0, V0, 1
9D00AC34  304400FF   ANDI A0, V0, 255
9D00AC38  8FC30010   LW V1, 16(S8)
9D00AC3C  8C620000   LW V0, 0(V1)
9D00AC40  7C828C44   INS V0, A0, 17, 1
9D00AC44  AC620000   SW V0, 0(V1)
116:                 
117:                         eosDisableInterrupts();
9D00AC48  00002021   ADDU A0, ZERO, ZERO
9D00AC4C  0F40370E   JAL PLIB_INT_Disable
9D00AC50  00000000   NOP
118:                         p->counter  = 0;
9D00AC54  8FC20010   LW V0, 16(S8)
9D00AC58  A4400000   SH ZERO, 0(V0)
119:                         p->timeout = FALSE;
9D00AC5C  8FC30010   LW V1, 16(S8)
9D00AC60  8C620000   LW V0, 0(V1)
9D00AC64  7C028404   INS V0, ZERO, 16, 1
9D00AC68  AC620000   SW V0, 0(V1)
120:                         eosEnableInterrupts();
9D00AC6C  00002021   ADDU A0, ZERO, ZERO
9D00AC70  0F403708   JAL PLIB_INT_Enable
9D00AC74  00000000   NOP
121:                     }
122:                 }
9D00AC78  03C0E821   ADDU SP, S8, ZERO
9D00AC7C  8FBF001C   LW RA, 28(SP)
9D00AC80  8FBE0018   LW S8, 24(SP)
9D00AC84  27BD0020   ADDIU SP, SP, 32
9D00AC88  03E00008   JR RA
9D00AC8C  00000000   NOP
123:                 
124:                 
125:                 /*************************************************************************
126:                  *
127:                  *       Llegeix l'estat d'una sortida
128:                  *
129:                  *       Funcio:
130:                  *           BOOL eosOutGet(UINT8 outputId)
131:                  *
132:                  *       Entrada:
133:                  *           outputId: Numero de sortida
134:                  *
135:                  *       Retorn:
136:                  *           L'estat de la sortida
137:                  *
138:                  *************************************************************************/
139:                 
140:                 BOOL eosOutGet(UINT8 outputId) {
9D00AC90  27BDFFF8   ADDIU SP, SP, -8
9D00AC94  AFBE0004   SW S8, 4(SP)
9D00AC98  03A0F021   ADDU S8, SP, ZERO
9D00AC9C  00801021   ADDU V0, A0, ZERO
9D00ACA0  A3C20008   SB V0, 8(S8)
141:                 
142:                     if (outputId < EOS_NUM_OUTPUTS) 
9D00ACA4  93C20008   LBU V0, 8(S8)
9D00ACA8  2C420002   SLTIU V0, V0, 2
9D00ACAC  1040000A   BEQ V0, ZERO, 0x9D00ACD8
9D00ACB0  00000000   NOP
143:                         return ports[outputId].state;
9D00ACB4  93C20008   LBU V0, 8(S8)
9D00ACB8  00021880   SLL V1, V0, 2
9D00ACBC  2782802C   ADDIU V0, GP, -32724
9D00ACC0  00621021   ADDU V0, V1, V0
9D00ACC4  8C420000   LW V0, 0(V0)
9D00ACC8  7C420440   EXT V0, V0, 17, 1
9D00ACCC  304200FF   ANDI V0, V0, 255
9D00ACD0  0B402B37   J 0x9D00ACDC
9D00ACD4  00000000   NOP
144:                     else
145:                         return FALSE;
9D00ACD8  00001021   ADDU V0, ZERO, ZERO
146:                 }
9D00ACDC  03C0E821   ADDU SP, S8, ZERO
9D00ACE0  8FBE0004   LW S8, 4(SP)
9D00ACE4  27BD0008   ADDIU SP, SP, 8
9D00ACE8  03E00008   JR RA
9D00ACEC  00000000   NOP
147:                 
148:                 
149:                 /*************************************************************************
150:                  *
151:                  *       Genera un puls
152:                  *
153:                  *       Funcio:
154:                  *           void eosOutPulse(UINT8 id, unsigned time)
155:                  *
156:                  *       Entrada:
157:                  *           id  : Numero de sortida
158:                  *           time: Llargada del puls en ms
159:                  *
160:                  *       Notes:
161:                  *           Si el puls encara es actiu, simplement l'allarga el temps
162:                  *           especificat
163:                  *
164:                  *************************************************************************/
165:                 
166:                 void eosOutPulse(UINT8 id, unsigned time) {
9D00ACF0  27BDFFE0   ADDIU SP, SP, -32
9D00ACF4  AFBF001C   SW RA, 28(SP)
9D00ACF8  AFBE0018   SW S8, 24(SP)
9D00ACFC  03A0F021   ADDU S8, SP, ZERO
9D00AD00  00801021   ADDU V0, A0, ZERO
9D00AD04  AFC50024   SW A1, 36(S8)
9D00AD08  A3C20020   SB V0, 32(S8)
167:                 
168:                     if ((id < EOS_NUM_OUTPUTS) && (time != 0)) {
9D00AD0C  93C20020   LBU V0, 32(S8)
9D00AD10  2C420002   SLTIU V0, V0, 2
9D00AD14  10400025   BEQ V0, ZERO, 0x9D00ADAC
9D00AD18  00000000   NOP
9D00AD1C  8FC20024   LW V0, 36(S8)
9D00AD20  10400022   BEQ V0, ZERO, 0x9D00ADAC
9D00AD24  00000000   NOP
169:                 
170:                         eosDisableInterrupts();
9D00AD28  00002021   ADDU A0, ZERO, ZERO
9D00AD2C  0F40370E   JAL PLIB_INT_Disable
9D00AD30  00000000   NOP
171:                         
172:                         PORTINFO *p = &ports[id];
9D00AD34  93C20020   LBU V0, 32(S8)
9D00AD38  00021880   SLL V1, V0, 2
9D00AD3C  2782802C   ADDIU V0, GP, -32724
9D00AD40  00621021   ADDU V0, V1, V0
9D00AD44  AFC20010   SW V0, 16(S8)
173:                         if (p->counter == 0)
9D00AD48  8FC20010   LW V0, 16(S8)
9D00AD4C  94420000   LHU V0, 0(V0)
9D00AD50  1440000B   BNE V0, ZERO, 0x9D00AD80
9D00AD54  00000000   NOP
174:                             p->state = !p->state;
9D00AD58  8FC20010   LW V0, 16(S8)
9D00AD5C  8C430000   LW V1, 0(V0)
9D00AD60  3C020002   LUI V0, 2
9D00AD64  00621024   AND V0, V1, V0
9D00AD68  2C420001   SLTIU V0, V0, 1
9D00AD6C  304400FF   ANDI A0, V0, 255
9D00AD70  8FC30010   LW V1, 16(S8)
9D00AD74  8C620000   LW V0, 0(V1)
9D00AD78  7C828C44   INS V0, A0, 17, 1
9D00AD7C  AC620000   SW V0, 0(V1)
175:                         p->counter = time;
9D00AD80  8FC20024   LW V0, 36(S8)
9D00AD84  3043FFFF   ANDI V1, V0, -1
9D00AD88  8FC20010   LW V0, 16(S8)
9D00AD8C  A4430000   SH V1, 0(V0)
176:                         p->timeout = FALSE;
9D00AD90  8FC30010   LW V1, 16(S8)
9D00AD94  8C620000   LW V0, 0(V1)
9D00AD98  7C028404   INS V0, ZERO, 16, 1
9D00AD9C  AC620000   SW V0, 0(V1)
177:                 
178:                         eosEnableInterrupts();
9D00ADA0  00002021   ADDU A0, ZERO, ZERO
9D00ADA4  0F403708   JAL PLIB_INT_Enable
9D00ADA8  00000000   NOP
179:                     }
180:                 }
9D00ADAC  03C0E821   ADDU SP, S8, ZERO
9D00ADB0  8FBF001C   LW RA, 28(SP)
9D00ADB4  8FBE0018   LW S8, 24(SP)
9D00ADB8  27BD0020   ADDIU SP, SP, 32
9D00ADBC  03E00008   JR RA
9D00ADC0  00000000   NOP
181:                 
182:                 
183:                 /*************************************************************************
184:                  *
185:                  *       Inverteix l'estat d'una sortida
186:                  *
187:                  *       Funcio:
188:                  *           void eosOutToggle(UINT8 outputId)
189:                  *
190:                  *       Entrada:
191:                  *           outputId: El numero de sortida
192:                  *
193:                  *************************************************************************/
194:                 
195:                 void eosOutToggle(UINT8 outputId) {
9D00ADC4  27BDFFE0   ADDIU SP, SP, -32
9D00ADC8  AFBF001C   SW RA, 28(SP)
9D00ADCC  AFBE0018   SW S8, 24(SP)
9D00ADD0  03A0F021   ADDU S8, SP, ZERO
9D00ADD4  00801021   ADDU V0, A0, ZERO
9D00ADD8  A3C20020   SB V0, 32(S8)
196:                 
197:                     if (outputId < EOS_NUM_OUTPUTS) {
9D00ADDC  93C20020   LBU V0, 32(S8)
9D00ADE0  2C420002   SLTIU V0, V0, 2
9D00ADE4  1040001C   BEQ V0, ZERO, 0x9D00AE58
9D00ADE8  00000000   NOP
198:                 
199:                         PORTINFO *p = &ports[outputId];
9D00ADEC  93C20020   LBU V0, 32(S8)
9D00ADF0  00021880   SLL V1, V0, 2
9D00ADF4  2782802C   ADDIU V0, GP, -32724
9D00ADF8  00621021   ADDU V0, V1, V0
9D00ADFC  AFC20010   SW V0, 16(S8)
200:                         p->state = !p->state;
9D00AE00  8FC20010   LW V0, 16(S8)
9D00AE04  8C430000   LW V1, 0(V0)
9D00AE08  3C020002   LUI V0, 2
9D00AE0C  00621024   AND V0, V1, V0
9D00AE10  2C420001   SLTIU V0, V0, 1
9D00AE14  304400FF   ANDI A0, V0, 255
9D00AE18  8FC30010   LW V1, 16(S8)
9D00AE1C  8C620000   LW V0, 0(V1)
9D00AE20  7C828C44   INS V0, A0, 17, 1
9D00AE24  AC620000   SW V0, 0(V1)
201:                 
202:                         eosDisableInterrupts();
9D00AE28  00002021   ADDU A0, ZERO, ZERO
9D00AE2C  0F40370E   JAL PLIB_INT_Disable
9D00AE30  00000000   NOP
203:                         p->counter = 0;
9D00AE34  8FC20010   LW V0, 16(S8)
9D00AE38  A4400000   SH ZERO, 0(V0)
204:                         p->timeout = FALSE;
9D00AE3C  8FC30010   LW V1, 16(S8)
9D00AE40  8C620000   LW V0, 0(V1)
9D00AE44  7C028404   INS V0, ZERO, 16, 1
9D00AE48  AC620000   SW V0, 0(V1)
205:                         eosEnableInterrupts();
9D00AE4C  00002021   ADDU A0, ZERO, ZERO
9D00AE50  0F403708   JAL PLIB_INT_Enable
9D00AE54  00000000   NOP
206:                     }
207:                 }
9D00AE58  03C0E821   ADDU SP, S8, ZERO
9D00AE5C  8FBF001C   LW RA, 28(SP)
9D00AE60  8FBE0018   LW S8, 24(SP)
9D00AE64  27BD0020   ADDIU SP, SP, 32
9D00AE68  03E00008   JR RA
9D00AE6C  00000000   NOP
208:                 
209:                 
210:                 /*************************************************************************
211:                  *
212:                  *       Posa totes les sortides a OFF
213:                  *
214:                  *       Funcio:
215:                  *           void eosOutAllOFF(void)
216:                  *
217:                  *************************************************************************/
218:                 
219:                 void eosOutAllOFF(void) {
9D00AE70  27BDFFE0   ADDIU SP, SP, -32
9D00AE74  AFBF001C   SW RA, 28(SP)
9D00AE78  AFBE0018   SW S8, 24(SP)
9D00AE7C  03A0F021   ADDU S8, SP, ZERO
220:                 
221:                     UINT8 outputId = EOS_NUM_OUTPUTS - 1;
9D00AE80  24020001   ADDIU V0, ZERO, 1
9D00AE84  A3C20010   SB V0, 16(S8)
222:                     do {
223:                 
224:                         PORTINFO *p = &ports[outputId];
9D00AE88  93C20010   LBU V0, 16(S8)
9D00AE8C  00021880   SLL V1, V0, 2
9D00AE90  2782802C   ADDIU V0, GP, -32724
9D00AE94  00621021   ADDU V0, V1, V0
9D00AE98  AFC20014   SW V0, 20(S8)
225:                         p->state = 0;
9D00AE9C  8FC30014   LW V1, 20(S8)
9D00AEA0  8C620000   LW V0, 0(V1)
9D00AEA4  7C028C44   INS V0, ZERO, 17, 1
9D00AEA8  AC620000   SW V0, 0(V1)
226:                 
227:                         eosDisableInterrupts();
9D00AEAC  00002021   ADDU A0, ZERO, ZERO
9D00AEB0  0F40370E   JAL PLIB_INT_Disable
9D00AEB4  00000000   NOP
228:                         p->counter = 0;
9D00AEB8  8FC20014   LW V0, 20(S8)
9D00AEBC  A4400000   SH ZERO, 0(V0)
229:                         p->timeout = FALSE;
9D00AEC0  8FC30014   LW V1, 20(S8)
9D00AEC4  8C620000   LW V0, 0(V1)
9D00AEC8  7C028404   INS V0, ZERO, 16, 1
9D00AECC  AC620000   SW V0, 0(V1)
230:                         eosEnableInterrupts();
9D00AED0  00002021   ADDU A0, ZERO, ZERO
9D00AED4  0F403708   JAL PLIB_INT_Enable
9D00AED8  00000000   NOP
231:                 
232:                     } while (outputId--);
9D00AEDC  93C20010   LBU V0, 16(S8)
9D00AEE0  0002102B   SLTU V0, ZERO, V0
9D00AEE4  304200FF   ANDI V0, V0, 255
9D00AEE8  93C30010   LBU V1, 16(S8)
9D00AEEC  2463FFFF   ADDIU V1, V1, -1
9D00AEF0  A3C30010   SB V1, 16(S8)
9D00AEF4  1440FFE4   BNE V0, ZERO, 0x9D00AE88
9D00AEF8  00000000   NOP
233:                 }
9D00AEFC  03C0E821   ADDU SP, S8, ZERO
9D00AF00  8FBF001C   LW RA, 28(SP)
9D00AF04  8FBE0018   LW S8, 24(SP)
9D00AF08  27BD0020   ADDIU SP, SP, 32
9D00AF0C  03E00008   JR RA
9D00AF10  00000000   NOP
234:                 
235:                 
236:                 #endif
---  c:/projectes/projectes mplab/eos/source/modules/ledstatus.c  ---------------------------------------
1:                   #include "eos.h"
2:                   
3:                   
4:                   #ifdef EOS_USE_LEDSTATUS
5:                   
6:                   
7:                   #define INI_TICK   1000      // 1000 cicles de interrupcio de 1mS
8:                   
9:                   static UINT16 tick;          // Contador de temps
10:                  
11:                  
12:                  /*************************************************************************
13:                   *
14:                   *       Inicialitza el led indicador
15:                   *
16:                   *       Funcio:
17:                   *           void sysLedInitialize(void)
18:                   *
19:                   *************************************************************************/
20:                  
21:                  void sysLedInitialize(void) {
9D00D624  27BDFFF8   ADDIU SP, SP, -8
9D00D628  AFBE0004   SW S8, 4(SP)
9D00D62C  03A0F021   ADDU S8, SP, ZERO
22:                  
23:                      tick = INI_TICK;
9D00D630  240203E8   ADDIU V0, ZERO, 1000
9D00D634  A7828028   SH V0, -32728(GP)
24:                  }
9D00D638  03C0E821   ADDU SP, S8, ZERO
9D00D63C  8FBE0004   LW S8, 4(SP)
9D00D640  27BD0008   ADDIU SP, SP, 8
9D00D644  03E00008   JR RA
9D00D648  00000000   NOP
25:                  
26:                  
27:                  /*************************************************************************
28:                   *
29:                   *       Procesa la interrupcio TMR
30:                   *
31:                   *       Funcio:
32:                   *           void sysLedTickInterrupt(void)
33:                   *
34:                   *************************************************************************/
35:                  
36:                  void sysLedTickInterrupt(void) {
9D00D64C  27BDFFE8   ADDIU SP, SP, -24
9D00D650  AFBF0014   SW RA, 20(SP)
9D00D654  AFBE0010   SW S8, 16(SP)
9D00D658  03A0F021   ADDU S8, SP, ZERO
37:                      
38:                      if (!--tick)
9D00D65C  97828028   LHU V0, -32728(GP)
9D00D660  2442FFFF   ADDIU V0, V0, -1
9D00D664  3042FFFF   ANDI V0, V0, -1
9D00D668  A7828028   SH V0, -32728(GP)
9D00D66C  97828028   LHU V0, -32728(GP)
9D00D670  14400003   BNE V0, ZERO, 0x9D00D680
9D00D674  00000000   NOP
39:                          tick = INI_TICK;
9D00D678  240203E8   ADDIU V0, ZERO, 1000
9D00D67C  A7828028   SH V0, -32728(GP)
40:                  
41:                      __halLedPortWrite(tick < 25);
9D00D680  97828028   LHU V0, -32728(GP)
9D00D684  2C420019   SLTIU V0, V0, 25
9D00D688  00402021   ADDU A0, V0, ZERO
9D00D68C  0F402C93   JAL halLedPortWrite
9D00D690  00000000   NOP
42:                  }
9D00D694  03C0E821   ADDU SP, S8, ZERO
9D00D698  8FBF0014   LW RA, 20(SP)
9D00D69C  8FBE0010   LW S8, 16(SP)
9D00D6A0  27BD0018   ADDIU SP, SP, 24
9D00D6A4  03E00008   JR RA
9D00D6A8  00000000   NOP
43:                  
44:                  
45:                  #endif
46:                  
47:                  
---  c:/projectes/projectes mplab/eos/source/modules/inputs.c  ------------------------------------------
1:                   #include "eos.h"
2:                   
3:                   
4:                   #ifdef EOS_USE_INPUTS
5:                   
6:                   
7:                   #if !defined(EOS_NUM_INPUTS) || (EOS_NUM_INPUTS < 1) || (EOS_NUM_INPUTS > 32)
8:                   #error 'EOS_NUM_INPUTS' ha de estar en el intervalo 1..32
9:                   #endif
10:                  
11:                  
12:                  #define PATTERN_ON    0x7FFF
13:                  #define PATTERN_OFF   0x8000
14:                  #define PATTERN_MASK  0xFFFF
15:                  
16:                  typedef struct {
17:                      UINT16 pattern;
18:                      unsigned state:1;
19:                      unsigned posEdge:1;
20:                      unsigned negEdge:1;
21:                  } PORTINFO;
22:                  
23:                  static PORTINFO ports[EOS_NUM_INPUTS];
24:                  
25:                  
26:                  /*************************************************************************
27:                   *
28:                   *       Inicialitzacio del modul
29:                   *
30:                   *       Funcio:
31:                   *           void sysInpInitialize(void)
32:                   *
33:                   *************************************************************************/
34:                  
35:                  void sysInpInitialize(void) {
9D00BCD0  27BDFFF0   ADDIU SP, SP, -16
9D00BCD4  AFBE000C   SW S8, 12(SP)
9D00BCD8  03A0F021   ADDU S8, SP, ZERO
36:                  
37:                      UINT8 id = EOS_NUM_INPUTS - 1;
9D00BCDC  24020002   ADDIU V0, ZERO, 2
9D00BCE0  A3C20000   SB V0, 0(S8)
38:                      do {
39:                  
40:                          PORTINFO *p = &ports[id];
9D00BCE4  93C20000   LBU V0, 0(S8)
9D00BCE8  00021880   SLL V1, V0, 2
9D00BCEC  3C02A000   LUI V0, -24576
9D00BCF0  244201A4   ADDIU V0, V0, 420
9D00BCF4  00621021   ADDU V0, V1, V0
9D00BCF8  AFC20004   SW V0, 4(S8)
41:                          p->pattern = 0;
9D00BCFC  8FC20004   LW V0, 4(S8)
9D00BD00  A4400000   SH ZERO, 0(V0)
42:                          p->state = FALSE;
9D00BD04  8FC30004   LW V1, 4(S8)
9D00BD08  8C620000   LW V0, 0(V1)
9D00BD0C  7C028404   INS V0, ZERO, 16, 1
9D00BD10  AC620000   SW V0, 0(V1)
43:                          p->posEdge = FALSE;
9D00BD14  8FC30004   LW V1, 4(S8)
9D00BD18  8C620000   LW V0, 0(V1)
9D00BD1C  7C028C44   INS V0, ZERO, 17, 1
9D00BD20  AC620000   SW V0, 0(V1)
44:                          p->negEdge = FALSE;
9D00BD24  8FC30004   LW V1, 4(S8)
9D00BD28  8C620000   LW V0, 0(V1)
9D00BD2C  7C029484   INS V0, ZERO, 18, 1
9D00BD30  AC620000   SW V0, 0(V1)
45:                  
46:                      } while (id--);
9D00BD34  93C20000   LBU V0, 0(S8)
9D00BD38  0002102B   SLTU V0, ZERO, V0
9D00BD3C  304200FF   ANDI V0, V0, 255
9D00BD40  93C30000   LBU V1, 0(S8)
9D00BD44  2463FFFF   ADDIU V1, V1, -1
9D00BD48  A3C30000   SB V1, 0(S8)
9D00BD4C  1440FFE5   BNE V0, ZERO, 0x9D00BCE4
9D00BD50  00000000   NOP
47:                  }
9D00BD54  03C0E821   ADDU SP, S8, ZERO
9D00BD58  8FBE000C   LW S8, 12(SP)
9D00BD5C  27BD0010   ADDIU SP, SP, 16
9D00BD60  03E00008   JR RA
9D00BD64  00000000   NOP
48:                  
49:                  
50:                  /*************************************************************************
51:                   *
52:                   *       Interrupcio Tick del modul
53:                   *
54:                   *       Funcio:
55:                   *           void sysInpTickInterrupt(void)
56:                   *
57:                   *************************************************************************/
58:                  
59:                  void sysInpTickInterrupt(void) {
9D00BD68  27BDFFD8   ADDIU SP, SP, -40
9D00BD6C  AFBF0024   SW RA, 36(SP)
9D00BD70  AFBE0020   SW S8, 32(SP)
9D00BD74  AFB0001C   SW S0, 28(SP)
9D00BD78  03A0F021   ADDU S8, SP, ZERO
60:                  
61:                      UINT8 id = EOS_NUM_INPUTS - 1;
9D00BD7C  24020002   ADDIU V0, ZERO, 2
9D00BD80  A3C20010   SB V0, 16(S8)
62:                      do {
63:                  
64:                          PORTINFO *p = &ports[id];
9D00BD84  93C20010   LBU V0, 16(S8)
9D00BD88  00021880   SLL V1, V0, 2
9D00BD8C  3C02A000   LUI V0, -24576
9D00BD90  244201A4   ADDIU V0, V0, 420
9D00BD94  00621021   ADDU V0, V1, V0
9D00BD98  AFC20014   SW V0, 20(S8)
65:                          p->pattern = (p->pattern << 1) | __halInpPortRead(id);
9D00BD9C  8FC20014   LW V0, 20(S8)
9D00BDA0  94420000   LHU V0, 0(V0)
9D00BDA4  00021040   SLL V0, V0, 1
9D00BDA8  3050FFFF   ANDI S0, V0, -1
9D00BDAC  93C20010   LBU V0, 16(S8)
9D00BDB0  00402021   ADDU A0, V0, ZERO
9D00BDB4  0F402C74   JAL halInpPortRead
9D00BDB8  00000000   NOP
9D00BDBC  3042FFFF   ANDI V0, V0, -1
9D00BDC0  02021025   OR V0, S0, V0
9D00BDC4  3043FFFF   ANDI V1, V0, -1
9D00BDC8  8FC20014   LW V0, 20(S8)
9D00BDCC  A4430000   SH V1, 0(V0)
66:                  
67:                      } while (id--);
9D00BDD0  93C20010   LBU V0, 16(S8)
9D00BDD4  0002102B   SLTU V0, ZERO, V0
9D00BDD8  304200FF   ANDI V0, V0, 255
9D00BDDC  93C30010   LBU V1, 16(S8)
9D00BDE0  2463FFFF   ADDIU V1, V1, -1
9D00BDE4  A3C30010   SB V1, 16(S8)
9D00BDE8  1440FFE6   BNE V0, ZERO, 0x9D00BD84
9D00BDEC  00000000   NOP
68:                  }
9D00BDF0  03C0E821   ADDU SP, S8, ZERO
9D00BDF4  8FBF0024   LW RA, 36(SP)
9D00BDF8  8FBE0020   LW S8, 32(SP)
9D00BDFC  8FB0001C   LW S0, 28(SP)
9D00BE00  27BD0028   ADDIU SP, SP, 40
9D00BE04  03E00008   JR RA
9D00BE08  00000000   NOP
69:                  
70:                  
71:                  /*************************************************************************
72:                   *
73:                   *       Gestio del modul
74:                   *
75:                   *       Funcio:
76:                   *           void sysInpLoop(void)
77:                   *
78:                   *************************************************************************/
79:                  
80:                  void sysInpLoop(void) {
9D00BE0C  27BDFFD8   ADDIU SP, SP, -40
9D00BE10  AFBF0024   SW RA, 36(SP)
9D00BE14  AFBE0020   SW S8, 32(SP)
9D00BE18  03A0F021   ADDU S8, SP, ZERO
81:                  
82:                      UINT8 id = EOS_NUM_INPUTS - 1;
9D00BE1C  24020002   ADDIU V0, ZERO, 2
9D00BE20  A3C20010   SB V0, 16(S8)
83:                      do {
84:                  
85:                          eosDisableInterrupts();
9D00BE24  00002021   ADDU A0, ZERO, ZERO
9D00BE28  0F40370E   JAL PLIB_INT_Disable
9D00BE2C  00000000   NOP
86:                  
87:                          PORTINFO *p = &ports[id];
9D00BE30  93C20010   LBU V0, 16(S8)
9D00BE34  00021880   SLL V1, V0, 2
9D00BE38  3C02A000   LUI V0, -24576
9D00BE3C  244201A4   ADDIU V0, V0, 420
9D00BE40  00621021   ADDU V0, V1, V0
9D00BE44  AFC20014   SW V0, 20(S8)
88:                          UINT16 pattern = p->pattern & PATTERN_MASK;
9D00BE48  8FC20014   LW V0, 20(S8)
9D00BE4C  94420000   LHU V0, 0(V0)
9D00BE50  A7C20018   SH V0, 24(S8)
89:                          if (pattern == PATTERN_OFF) {
9D00BE54  97C30018   LHU V1, 24(S8)
9D00BE58  34028000   ORI V0, ZERO, -32768
9D00BE5C  1462000C   BNE V1, V0, 0x9D00BE90
9D00BE60  00000000   NOP
90:                              p->state = FALSE;
9D00BE64  8FC30014   LW V1, 20(S8)
9D00BE68  8C620000   LW V0, 0(V1)
9D00BE6C  7C028404   INS V0, ZERO, 16, 1
9D00BE70  AC620000   SW V0, 0(V1)
91:                              p->negEdge = TRUE;
9D00BE74  8FC30014   LW V1, 20(S8)
9D00BE78  8C620000   LW V0, 0(V1)
9D00BE7C  24040001   ADDIU A0, ZERO, 1
9D00BE80  7C829484   INS V0, A0, 18, 1
9D00BE84  AC620000   SW V0, 0(V1)
9D00BE88  0B402FB2   J 0x9D00BEC8
9D00BE8C  00000000   NOP
92:                          }
93:                          else if (pattern == PATTERN_ON) {
9D00BE90  97C30018   LHU V1, 24(S8)
9D00BE94  24027FFF   ADDIU V0, ZERO, 32767
9D00BE98  1462000B   BNE V1, V0, 0x9D00BEC8
9D00BE9C  00000000   NOP
94:                              p->state = TRUE;
9D00BEA0  8FC30014   LW V1, 20(S8)
9D00BEA4  8C620000   LW V0, 0(V1)
9D00BEA8  24040001   ADDIU A0, ZERO, 1
9D00BEAC  7C828404   INS V0, A0, 16, 1
9D00BEB0  AC620000   SW V0, 0(V1)
95:                              p->posEdge = TRUE;
9D00BEB4  8FC30014   LW V1, 20(S8)
9D00BEB8  8C620000   LW V0, 0(V1)
9D00BEBC  24040001   ADDIU A0, ZERO, 1
9D00BEC0  7C828C44   INS V0, A0, 17, 1
9D00BEC4  AC620000   SW V0, 0(V1)
96:                          }
97:                  
98:                          eosEnableInterrupts();
9D00BEC8  00002021   ADDU A0, ZERO, ZERO
9D00BECC  0F403708   JAL PLIB_INT_Enable
9D00BED0  00000000   NOP
99:                  
100:                     } while (id--);
9D00BED4  93C20010   LBU V0, 16(S8)
9D00BED8  0002102B   SLTU V0, ZERO, V0
9D00BEDC  304200FF   ANDI V0, V0, 255
9D00BEE0  93C30010   LBU V1, 16(S8)
9D00BEE4  2463FFFF   ADDIU V1, V1, -1
9D00BEE8  A3C30010   SB V1, 16(S8)
9D00BEEC  1440FFCD   BNE V0, ZERO, 0x9D00BE24
9D00BEF0  00000000   NOP
101:                 }
9D00BEF4  03C0E821   ADDU SP, S8, ZERO
9D00BEF8  8FBF0024   LW RA, 36(SP)
9D00BEFC  8FBE0020   LW S8, 32(SP)
9D00BF00  27BD0028   ADDIU SP, SP, 40
9D00BF04  03E00008   JR RA
9D00BF08  00000000   NOP
102:                 
103:                 
104:                 /*************************************************************************
105:                  *
106:                  *       Obte l'estat d'una entrada
107:                  *
108:                  *       Funcio:
109:                  *           BOOL eosInpGet(UINT8 id)
110:                  *
111:                  *       Entrada:
112:                  *           id: Numero d'entrada
113:                  *
114:                  *       Retorn:
115:                  *           TRUE si esta en estat actiu (ON), FALSE en cas contrari
116:                  *
117:                  *************************************************************************/
118:                 
119:                 BOOL eosInpGet(UINT8 id) {
9D00BF0C  27BDFFF8   ADDIU SP, SP, -8
9D00BF10  AFBE0004   SW S8, 4(SP)
9D00BF14  03A0F021   ADDU S8, SP, ZERO
9D00BF18  00801021   ADDU V0, A0, ZERO
9D00BF1C  A3C20008   SB V0, 8(S8)
120:                 
121:                     if (id < EOS_NUM_INPUTS)
9D00BF20  93C20008   LBU V0, 8(S8)
9D00BF24  2C420003   SLTIU V0, V0, 3
9D00BF28  1040000B   BEQ V0, ZERO, 0x9D00BF58
9D00BF2C  00000000   NOP
122:                         return ports[id].state;
9D00BF30  93C30008   LBU V1, 8(S8)
9D00BF34  3C02A000   LUI V0, -24576
9D00BF38  00031880   SLL V1, V1, 2
9D00BF3C  244201A4   ADDIU V0, V0, 420
9D00BF40  00621021   ADDU V0, V1, V0
9D00BF44  8C420000   LW V0, 0(V0)
9D00BF48  7C420400   EXT V0, V0, 16, 1
9D00BF4C  304200FF   ANDI V0, V0, 255
9D00BF50  0B402FD7   J 0x9D00BF5C
9D00BF54  00000000   NOP
123:                     else
124:                         return FALSE;
9D00BF58  00001021   ADDU V0, ZERO, ZERO
125:                 }
9D00BF5C  03C0E821   ADDU SP, S8, ZERO
9D00BF60  8FBE0004   LW S8, 4(SP)
9D00BF64  27BD0008   ADDIU SP, SP, 8
9D00BF68  03E00008   JR RA
9D00BF6C  00000000   NOP
126:                 
127:                 
128:                 /*************************************************************************
129:                  *
130:                  *       Detecta si ha arribat un flanc positiu a una entrada
131:                  *
132:                  *       Funcio:
133:                  *           BOOL eosInpPosEdge(UINT8 id)
134:                  *
135:                  *       Entrada:
136:                  *           id: Numero d'entrada
137:                  *
138:                  *       Retorn:
139:                  *           TRUE si s'ha detectat un flanc positiu
140:                  *
141:                  *       Notes:
142:                  *           Un cop es crida a la funcio, aquesta no retornara TRUE, fins
143:                  *           que arribi un altre flanc positiu
144:                  *
145:                  *************************************************************************/
146:                 
147:                 BOOL eosInpPosEdge(UINT8 id) {
9D00BF70  27BDFFF0   ADDIU SP, SP, -16
9D00BF74  AFBE000C   SW S8, 12(SP)
9D00BF78  03A0F021   ADDU S8, SP, ZERO
9D00BF7C  00801021   ADDU V0, A0, ZERO
9D00BF80  A3C20010   SB V0, 16(S8)
148:                 
149:                     if (id < EOS_NUM_INPUTS) {
9D00BF84  93C20010   LBU V0, 16(S8)
9D00BF88  2C420003   SLTIU V0, V0, 3
9D00BF8C  10400013   BEQ V0, ZERO, 0x9D00BFDC
9D00BF90  00000000   NOP
150:                 
151:                         PORTINFO *p = &ports[id];
9D00BF94  93C20010   LBU V0, 16(S8)
9D00BF98  00021880   SLL V1, V0, 2
9D00BF9C  3C02A000   LUI V0, -24576
9D00BFA0  244201A4   ADDIU V0, V0, 420
9D00BFA4  00621021   ADDU V0, V1, V0
9D00BFA8  AFC20000   SW V0, 0(S8)
152:                         BOOL result = p->posEdge;
9D00BFAC  8FC20000   LW V0, 0(S8)
9D00BFB0  8C420000   LW V0, 0(V0)
9D00BFB4  7C420440   EXT V0, V0, 17, 1
9D00BFB8  304200FF   ANDI V0, V0, 255
9D00BFBC  AFC20004   SW V0, 4(S8)
153:                         p->posEdge = FALSE;
9D00BFC0  8FC30000   LW V1, 0(S8)
9D00BFC4  8C620000   LW V0, 0(V1)
9D00BFC8  7C028C44   INS V0, ZERO, 17, 1
9D00BFCC  AC620000   SW V0, 0(V1)
154:                 
155:                         return result;
9D00BFD0  8FC20004   LW V0, 4(S8)
9D00BFD4  0B402FF8   J 0x9D00BFE0
9D00BFD8  00000000   NOP
156:                     }
157:                     else
158:                         return FALSE;
9D00BFDC  00001021   ADDU V0, ZERO, ZERO
159:                 }
9D00BFE0  03C0E821   ADDU SP, S8, ZERO
9D00BFE4  8FBE000C   LW S8, 12(SP)
9D00BFE8  27BD0010   ADDIU SP, SP, 16
9D00BFEC  03E00008   JR RA
9D00BFF0  00000000   NOP
160:                 
161:                 
162:                 /*************************************************************************
163:                  *
164:                  *       Detecta si ha arribat un flanc negatiu a una entrada
165:                  *
166:                  *       Funcio:
167:                  *           BOOL eosInpNegEdge(UINT8 id)
168:                  *
169:                  *       Entrada:
170:                  *           id: Numero d'entrada
171:                  *
172:                  *       Retorn:
173:                  *           TRUE si s'ha detectat un flanc negatiu
174:                  *
175:                  *       Notes:
176:                  *           Un cop es crida a la funcio, aquesta no retornara TRUE, fins
177:                  *           que arribi un altre flanc negatiu
178:                  *
179:                  *************************************************************************/
180:                 
181:                 BOOL eosInpNegEdge(UINT8 id) {
9D00BFF4  27BDFFF0   ADDIU SP, SP, -16
9D00BFF8  AFBE000C   SW S8, 12(SP)
9D00BFFC  03A0F021   ADDU S8, SP, ZERO
9D00C000  00801021   ADDU V0, A0, ZERO
9D00C004  A3C20010   SB V0, 16(S8)
182:                 
183:                     if (id < EOS_NUM_INPUTS) {
9D00C008  93C20010   LBU V0, 16(S8)
9D00C00C  2C420003   SLTIU V0, V0, 3
9D00C010  10400013   BEQ V0, ZERO, 0x9D00C060
9D00C014  00000000   NOP
184:                 
185:                         PORTINFO *p = &ports[id];
9D00C018  93C20010   LBU V0, 16(S8)
9D00C01C  00021880   SLL V1, V0, 2
9D00C020  3C02A000   LUI V0, -24576
9D00C024  244201A4   ADDIU V0, V0, 420
9D00C028  00621021   ADDU V0, V1, V0
9D00C02C  AFC20000   SW V0, 0(S8)
186:                         BOOL result = p->negEdge;
9D00C030  8FC20000   LW V0, 0(S8)
9D00C034  8C420000   LW V0, 0(V0)
9D00C038  7C420480   EXT V0, V0, 18, 1
9D00C03C  304200FF   ANDI V0, V0, 255
9D00C040  AFC20004   SW V0, 4(S8)
187:                         p->negEdge = FALSE;
9D00C044  8FC30000   LW V1, 0(S8)
9D00C048  8C620000   LW V0, 0(V1)
9D00C04C  7C029484   INS V0, ZERO, 18, 1
9D00C050  AC620000   SW V0, 0(V1)
188:                 
189:                         return result;
9D00C054  8FC20004   LW V0, 4(S8)
9D00C058  0B403019   J 0x9D00C064
9D00C05C  00000000   NOP
190:                     }
191:                     else
192:                         return FALSE;
9D00C060  00001021   ADDU V0, ZERO, ZERO
193:                 }
9D00C064  03C0E821   ADDU SP, S8, ZERO
9D00C068  8FBE000C   LW S8, 12(SP)
9D00C06C  27BD0010   ADDIU SP, SP, 16
9D00C070  03E00008   JR RA
9D00C074  00000000   NOP
194:                 
195:                 
196:                 /*************************************************************************
197:                  *
198:                  *       Reseteja el detector de flancs per aquesta entrada
199:                  *
200:                  *       Funcio:
201:                  *           void eosInpClearEdge(UINT8 id)
202:                  *
203:                  *       Entrada:
204:                  *           id: Numero d'entrada
205:                  *
206:                  *************************************************************************/
207:                 
208:                 void eosInpClearEdge(UINT8 id) {
9D00C078  27BDFFF0   ADDIU SP, SP, -16
9D00C07C  AFBE000C   SW S8, 12(SP)
9D00C080  03A0F021   ADDU S8, SP, ZERO
9D00C084  00801021   ADDU V0, A0, ZERO
9D00C088  A3C20010   SB V0, 16(S8)
209:                 
210:                     if (id < EOS_NUM_INPUTS) {
9D00C08C  93C20010   LBU V0, 16(S8)
9D00C090  2C420003   SLTIU V0, V0, 3
9D00C094  1040000F   BEQ V0, ZERO, 0x9D00C0D4
9D00C098  00000000   NOP
211:                         
212:                         PORTINFO *p = &ports[id];
9D00C09C  93C20010   LBU V0, 16(S8)
9D00C0A0  00021880   SLL V1, V0, 2
9D00C0A4  3C02A000   LUI V0, -24576
9D00C0A8  244201A4   ADDIU V0, V0, 420
9D00C0AC  00621021   ADDU V0, V1, V0
9D00C0B0  AFC20000   SW V0, 0(S8)
213:                         p->posEdge = FALSE;
9D00C0B4  8FC30000   LW V1, 0(S8)
9D00C0B8  8C620000   LW V0, 0(V1)
9D00C0BC  7C028C44   INS V0, ZERO, 17, 1
9D00C0C0  AC620000   SW V0, 0(V1)
214:                         p->negEdge = FALSE;
9D00C0C4  8FC30000   LW V1, 0(S8)
9D00C0C8  8C620000   LW V0, 0(V1)
9D00C0CC  7C029484   INS V0, ZERO, 18, 1
9D00C0D0  AC620000   SW V0, 0(V1)
215:                     }
216:                 }
9D00C0D4  03C0E821   ADDU SP, S8, ZERO
9D00C0D8  8FBE000C   LW S8, 12(SP)
9D00C0DC  27BD0010   ADDIU SP, SP, 16
9D00C0E0  03E00008   JR RA
9D00C0E4  00000000   NOP
217:                 
218:                 
219:                 #endif
---  c:/projectes/projectes mplab/eos/source/memory.c  --------------------------------------------------
1:                   #include "eos.h"
2:                   
3:                   #ifdef EOS_USE_FREERTOS
4:                   #include "FreeRTOS.h"
5:                   #endif
6:                   
7:                   
8:                   /*************************************************************************
9:                    *
10:                   *       Obte un bloc de memoria
11:                   *
12:                   *       Funcio:
13:                   *           void *eosAlloc(unsigned size)
14:                   *
15:                   *       Entrada:
16:                   *           size: El tamany del bloc en bytes
17:                   *
18:                   *       Retorn:
19:                   *           L'adressa del bloc de momoria. NULL en cas d'error
20:                   *
21:                   *************************************************************************/
22:                  
23:                  #ifndef eosAlloc
24:                  void *eosAlloc(unsigned size) {
00000000  00000000   NOP
00000004  00000000   NOP
00000008  00000000   NOP
0000000C  00000000   NOP
00000010  00000000   NOP
00000014  00000000   NOP
00000018  00000000   NOP
0000001C  00000000   NOP
25:                  
26:                  #ifdef EOS_USE_FREERTOS
27:                      return pvPortMalloc(size);
28:                  #else
29:                      return malloc(size);
00000014  00000000   NOP
00000018  00000000   NOP
0000001C  00000000   NOP
30:                  #endif
31:                  }
00000020  00000000   NOP
00000024  00000000   NOP
00000028  00000000   NOP
0000002C  00000000   NOP
00000030  00000000   NOP
00000034  00000000   NOP
32:                  #endif
33:                  
34:                  
35:                  /*************************************************************************
36:                   *
37:                   *       Obte una bloc de memoria per una cadena
38:                   *
39:                   *       Funcio:
40:                   *           void* eosAllocString(const char *str)
41:                   *
42:                   *       Entrada:
43:                   *           str: La cadena a memoritzar
44:                   *
45:                   *       Retorn:
46:                   *           Punter al bloc de memoria, NULL en cas d'error
47:                   *
48:                   *************************************************************************/
49:                  
50:                  void *eosAllocString(const char* str) {
00000038  00000000   NOP
0000003C  00000000   NOP
00000040  00000000   NOP
00000044  00000000   NOP
00000048  00000000   NOP
0000004C  00000000   NOP
00000050  00000000   NOP
00000054  00000000   NOP
00000058  00000000   NOP
0000005C  00000000   NOP
51:                  
52:                      int size = strlen(str) + 1;
0000004C  00000000   NOP
00000050  00000000   NOP
00000054  00000000   NOP
00000058  00000000   NOP
0000005C  00000000   NOP
00000060  00000000   NOP
00000064  00000000   NOP
00000068  00000000   NOP
0000006C  00000000   NOP
00000070  00000000   NOP
00000074  00000000   NOP
00000078  00000000   NOP
0000007C  00000000   NOP
53:                      return memcpy(eosAlloc(size), str, size);
00000060  00000000   NOP
00000064  00000000   NOP
00000068  00000000   NOP
0000006C  00000000   NOP
00000070  00000000   NOP
00000074  00000000   NOP
00000078  00000000   NOP
0000007C  00000000   NOP
00000080  00000000   NOP
00000084  00000000   NOP
00000088  00000000   NOP
54:                  }
0000008C  00000000   NOP
00000090  00000000   NOP
00000094  00000000   NOP
00000098  00000000   NOP
0000009C  00000000   NOP
000000A0  00000000   NOP
000000A4  00000000   NOP
000000A8  00000000   NOP
000000AC  00000000   NOP
000000B0  00000000   NOP
000000B4  00000000   NOP
000000B8  00000000   NOP
000000BC  00000000   NOP
000000C0  00000000   NOP
55:                  
56:                  
57:                  /*************************************************************************
58:                   *
59:                   *       Modifica un bloc de memoria
60:                   *
61:                   *       Funcio:
62:                   *           void* eosRealloc(void *p, unsigned size)
63:                   *
64:                   *       Entrada:
65:                   *           p   : Punter al bloc a modificar
66:                   *           size: Tamany el bytes del bloc
67:                   *
68:                   *       Retorn:
69:                   *           Punter al bloc de memoria, NULL en cas d'error
70:                   *
71:                   *************************************************************************/
72:                  
73:                  void* eosRealloc(void *p, unsigned size) {
000000A4  00000000   NOP
000000A8  00000000   NOP
000000AC  00000000   NOP
000000B0  00000000   NOP
000000B4  00000000   NOP
000000B8  00000000   NOP
74:                  
75:                  #ifdef EOS_USE_FREERTOS
76:                      void *p2 = pvPortMalloc(size);
77:                      if (p2) {
78:                          memcpy(p2, p, size);
79:                          vPortFree(p);
80:                      }
81:                      return p2;
82:                  #else
83:                      return realloc(p, size);
000000BC  00000000   NOP
000000C0  00000000   NOP
000000C4  00000000   NOP
000000C8  00000000   NOP
84:                  #endif
85:                  }
000000CC  00000000   NOP
000000D0  00000000   NOP
000000D4  00000000   NOP
000000D8  00000000   NOP
000000DC  00000000   NOP
000000E0  00000000   NOP
86:                  
87:                  
88:                  /*************************************************************************
89:                   *
90:                   *       Allibera un bloc de memoria
91:                   *
92:                   *       Funcio:
93:                   *           void eosFree(void *p)
94:                   *
95:                   *       Entrada:
96:                   *           p: Adressa del bloc a alliberar
97:                   *
98:                   *************************************************************************/
99:                  
100:                 #ifndef eosFree
101:                 void eosFree(void *p) {
000000E4  00000000   NOP
000000E8  00000000   NOP
000000EC  00000000   NOP
000000F0  00000000   NOP
000000F4  00000000   NOP
000000F8  00000000   NOP
000000FC  00000000   NOP
00000100  00000000   NOP
00000104  00000000   NOP
00000108  00000000   NOP
0000010C  00000000   NOP
102:                 
103:                 #ifdef EOS_USE_FREERTOS
104:                     vPortFree(p);
105:                 #else
106:                     free(p);
000000F8  00000000   NOP
000000FC  00000000   NOP
00000100  00000000   NOP
00000104  00000000   NOP
00000108  00000000   NOP
0000010C  00000000   NOP
00000110  00000000   NOP
00000114  00000000   NOP
107:                 #endif
108:                 }
00000104  00000000   NOP
00000108  00000000   NOP
0000010C  00000000   NOP
00000110  00000000   NOP
00000114  00000000   NOP
00000118  00000000   NOP
0000011C  00000000   NOP
00000120  00000000   NOP
109:                 #endif
---  c:/projectes/projectes mplab/eos/demo/main.c  ------------------------------------------------------
1:                   #include "eos.h"
2:                   
3:                   
4:                   /*************************************************************************
5:                    *
6:                    *       Inicialitzacio de l'aplicacio d'usuari
7:                    *
8:                    *       Funcio:
9:                    *           void usrSetup(void)
10:                   *
11:                   *************************************************************************/
12:                  
13:                  void usrSetup(void) {
9D00D0A4  27BDFFF8   ADDIU SP, SP, -8
9D00D0A8  AFBE0004   SW S8, 4(SP)
9D00D0AC  03A0F021   ADDU S8, SP, ZERO
14:                  
15:                  //    eosOutPulse(0, 1000);
16:                  //    eosOutPulse(1, 2000);
17:                  }
9D00D0B0  03C0E821   ADDU SP, S8, ZERO
9D00D0B4  8FBE0004   LW S8, 4(SP)
9D00D0B8  27BD0008   ADDIU SP, SP, 8
9D00D0BC  03E00008   JR RA
9D00D0C0  00000000   NOP
18:                  
19:                  
20:                  /*************************************************************************
21:                   *
22:                   *       Bucle principal de l'aplicacio
23:                   *
24:                   *       Funcio:
25:                   *           void usrLoop(void)
26:                   *
27:                   *************************************************************************/
28:                  
29:                  void usrLoop(void) {
9D00D0C4  27BDFFE8   ADDIU SP, SP, -24
9D00D0C8  AFBF0014   SW RA, 20(SP)
9D00D0CC  AFBE0010   SW S8, 16(SP)
9D00D0D0  03A0F021   ADDU S8, SP, ZERO
30:                  
31:                      eosOutSet(0, eosInpGet(0) || eosInpGet(2));
9D00D0D4  00002021   ADDU A0, ZERO, ZERO
9D00D0D8  0F402FC3   JAL eosInpGet
9D00D0DC  00000000   NOP
9D00D0E0  14400006   BNE V0, ZERO, 0x9D00D0FC
9D00D0E4  00000000   NOP
9D00D0E8  24040002   ADDIU A0, ZERO, 2
9D00D0EC  0F402FC3   JAL eosInpGet
9D00D0F0  00000000   NOP
9D00D0F4  10400004   BEQ V0, ZERO, 0x9D00D108
9D00D0F8  00000000   NOP
9D00D0FC  24020001   ADDIU V0, ZERO, 1
9D00D100  0B403443   J 0x9D00D10C
9D00D104  00000000   NOP
9D00D108  00001021   ADDU V0, ZERO, ZERO
9D00D10C  00002021   ADDU A0, ZERO, ZERO
9D00D110  00402821   ADDU A1, V0, ZERO
9D00D114  0F402AFA   JAL eosOutSet
9D00D118  00000000   NOP
32:                      eosOutSet(1, eosInpGet(1) || eosInpGet(2));
9D00D11C  24040001   ADDIU A0, ZERO, 1
9D00D120  0F402FC3   JAL eosInpGet
9D00D124  00000000   NOP
9D00D128  14400006   BNE V0, ZERO, 0x9D00D144
9D00D12C  00000000   NOP
9D00D130  24040002   ADDIU A0, ZERO, 2
9D00D134  0F402FC3   JAL eosInpGet
9D00D138  00000000   NOP
9D00D13C  10400004   BEQ V0, ZERO, 0x9D00D150
9D00D140  00000000   NOP
9D00D144  24020001   ADDIU V0, ZERO, 1
9D00D148  0B403455   J 0x9D00D154
9D00D14C  00000000   NOP
9D00D150  00001021   ADDU V0, ZERO, ZERO
9D00D154  24040001   ADDIU A0, ZERO, 1
9D00D158  00402821   ADDU A1, V0, ZERO
9D00D15C  0F402AFA   JAL eosOutSet
9D00D160  00000000   NOP
33:                  }
9D00D164  03C0E821   ADDU SP, S8, ZERO
9D00D168  8FBF0014   LW RA, 20(SP)
9D00D16C  8FBE0010   LW S8, 16(SP)
9D00D170  27BD0018   ADDIU SP, SP, 24
9D00D174  03E00008   JR RA
9D00D178  00000000   NOP
---  c:/projectes/projectes mplab/eos/demo/hal/hal_pic32mx_ethernet_starter_kit.c  ----------------------
1:                   #include "eos.h"
2:                   
3:                   #include "peripheral/ports/plib_ports.h"
4:                   //#include "peripheral/osc/plib_osc.h"
5:                   #include "peripheral/tmr/plib_tmr.h"
6:                   
7:                   
8:                   static PORTS_CHANNEL outPortChannel[EOS_NUM_OUTPUTS] = {
9:                       PORT_CHANNEL_D,
10:                      PORT_CHANNEL_D,
11:                      //PORT_CHANNEL_PORT_D
12:                  };
13:                  
14:                  static PORTS_BIT_POS outPortBit[EOS_NUM_OUTPUTS] = {
15:                      PORTS_BIT_POS_0,
16:                      PORTS_BIT_POS_1,
17:                      //PORTS_BIT_POS_2
18:                  };
19:                  
20:                  static PORTS_CHANNEL inpPortChannel[EOS_NUM_INPUTS] =  {
21:                      PORT_CHANNEL_D,
22:                      PORT_CHANNEL_D,
23:                      PORT_CHANNEL_D
24:                  };
25:                  
26:                  static PORTS_BIT_POS inpPortBit[EOS_NUM_INPUTS] = {
27:                      PORTS_BIT_POS_6,
28:                      PORTS_BIT_POS_7,
29:                      PORTS_BIT_POS_13
30:                  };
31:                  
32:                  static int inpPullUpChannel[EOS_NUM_INPUTS] = {
33:                      CN15,
34:                      CN16,
35:                      CN19
36:                  };
37:                  
38:                  
39:                  /*************************************************************************
40:                   *
41:                   *       Inicialitza el hardware
42:                   *
43:                   *       Funcio:
44:                   *           void halInitialize(void)
45:                   *
46:                   *************************************************************************/
47:                  
48:                  void halInitialize(void) {
9D00AF14  27BDFFE0   ADDIU SP, SP, -32
9D00AF18  AFBF001C   SW RA, 28(SP)
9D00AF1C  AFBE0018   SW S8, 24(SP)
9D00AF20  03A0F021   ADDU S8, SP, ZERO
49:                  
50:                      extern unsigned int SYSTEMConfigPerformance(unsigned int sys_clock);
51:                  
52:                      unsigned i;
53:                  
54:                      // Configura el sistema
55:                      //
56:                      SYSTEMConfigPerformance(GetSystemClock());
9D00AF24  3C0204C4   LUI V0, 1220
9D00AF28  3444B400   ORI A0, V0, -19456
9D00AF2C  0F403113   JAL SYSTEMConfigPerformance
9D00AF30  00000000   NOP
57:                  
58:                      // Configura el temporitzador per que generi interrupcions TICK cada 1ms
59:                      //
60:                      PLIB_TMR_Stop(TMR_ID_2);
9D00AF34  24040001   ADDIU A0, ZERO, 1
9D00AF38  0F4034C1   JAL PLIB_TMR_Stop
9D00AF3C  00000000   NOP
61:                      PLIB_TMR_ClockSourceSelect(TMR_ID_2, TMR_CLOCK_SOURCE_PERIPHERAL_CLOCK);
9D00AF40  24040001   ADDIU A0, ZERO, 1
9D00AF44  00002821   ADDU A1, ZERO, ZERO
9D00AF48  0F40321B   JAL PLIB_TMR_ClockSourceSelect
9D00AF4C  00000000   NOP
62:                      PLIB_TMR_PrescaleSelect(TMR_ID_2, TMR_PRESCALE_VALUE_64);
9D00AF50  24040001   ADDIU A0, ZERO, 1
9D00AF54  24050006   ADDIU A1, ZERO, 6
9D00AF58  0F4031B3   JAL PLIB_TMR_PrescaleSelect
9D00AF5C  00000000   NOP
63:                      PLIB_TMR_Mode16BitEnable(TMR_ID_2);
9D00AF60  24040001   ADDIU A0, ZERO, 1
9D00AF64  0F40351B   JAL PLIB_TMR_Mode16BitEnable
9D00AF68  00000000   NOP
64:                      PLIB_TMR_Counter16BitClear(TMR_ID_2);
9D00AF6C  24040001   ADDIU A0, ZERO, 1
9D00AF70  0F403566   JAL PLIB_TMR_Counter16BitClear
9D00AF74  00000000   NOP
65:                      PLIB_TMR_Period16BitSet(TMR_ID_2, GetPeriphericalClock() / 64 / 1000);
9D00AF78  24040001   ADDIU A0, ZERO, 1
9D00AF7C  240504E2   ADDIU A1, ZERO, 1250
9D00AF80  0F4032D1   JAL PLIB_TMR_Period16BitSet
9D00AF84  00000000   NOP
66:                  
67:                      // Inicialitza els ports de sortida
68:                      //
69:                      for (i = 0; i < EOS_NUM_OUTPUTS; i++)
9D00AF88  AFC00010   SW ZERO, 16(S8)
9D00AF8C  0B402BF7   J 0x9D00AFDC
9D00AF90  00000000   NOP
9D00AFD0  8FC20010   LW V0, 16(S8)
9D00AFD4  24420001   ADDIU V0, V0, 1
9D00AFD8  AFC20010   SW V0, 16(S8)
9D00AFDC  8FC20010   LW V0, 16(S8)
9D00AFE0  2C420002   SLTIU V0, V0, 2
9D00AFE4  1440FFEB   BNE V0, ZERO, 0x9D00AF94
9D00AFE8  00000000   NOP
70:                          PLIB_PORTS_PinDirectionOutputSet(PORTS_ID_0, outPortChannel[i], outPortBit[i]);
9D00AF94  8FC20010   LW V0, 16(S8)
9D00AF98  00021880   SLL V1, V0, 2
9D00AF9C  27828010   ADDIU V0, GP, -32752
9D00AFA0  00621021   ADDU V0, V1, V0
9D00AFA4  8C430000   LW V1, 0(V0)
9D00AFA8  8FC20010   LW V0, 16(S8)
9D00AFAC  00022080   SLL A0, V0, 2
9D00AFB0  27828018   ADDIU V0, GP, -32744
9D00AFB4  00821021   ADDU V0, A0, V0
9D00AFB8  8C420000   LW V0, 0(V0)
9D00AFBC  00002021   ADDU A0, ZERO, ZERO
9D00AFC0  00602821   ADDU A1, V1, ZERO
9D00AFC4  00403021   ADDU A2, V0, ZERO
9D00AFC8  0F403690   JAL PLIB_PORTS_PinDirectionOutputSet
9D00AFCC  00000000   NOP
71:                  
72:                      // Inicialitza els ports d'entrada
73:                      //
74:                      for (i = 0; i < EOS_NUM_INPUTS; i++) {
9D00AFEC  AFC00010   SW ZERO, 16(S8)
9D00AFF0  0B402C1C   J 0x9D00B070
9D00AFF4  00000000   NOP
9D00B064  8FC20010   LW V0, 16(S8)
9D00B068  24420001   ADDIU V0, V0, 1
9D00B06C  AFC20010   SW V0, 16(S8)
9D00B070  8FC20010   LW V0, 16(S8)
9D00B074  2C420003   SLTIU V0, V0, 3
9D00B078  1440FFDF   BNE V0, ZERO, 0x9D00AFF8
9D00B07C  00000000   NOP
75:                          PLIB_PORTS_PinDirectionInputSet(PORTS_ID_0, inpPortChannel[i], inpPortBit[i]);
9D00AFF8  3C02A000   LUI V0, -24576
9D00AFFC  8FC30010   LW V1, 16(S8)
9D00B000  00031880   SLL V1, V1, 2
9D00B004  24420168   ADDIU V0, V0, 360
9D00B008  00621021   ADDU V0, V1, V0
9D00B00C  8C430000   LW V1, 0(V0)
9D00B010  3C02A000   LUI V0, -24576
9D00B014  8FC40010   LW A0, 16(S8)
9D00B018  00042080   SLL A0, A0, 2
9D00B01C  24420174   ADDIU V0, V0, 372
9D00B020  00821021   ADDU V0, A0, V0
9D00B024  8C420000   LW V0, 0(V0)
9D00B028  00002021   ADDU A0, ZERO, ZERO
9D00B02C  00602821   ADDU A1, V1, ZERO
9D00B030  00403021   ADDU A2, V0, ZERO
9D00B034  0F403681   JAL PLIB_PORTS_PinDirectionInputSet
9D00B038  00000000   NOP
76:                          PLIB_PORTS_ChangeNoticePullUpEnable(PORTS_ID_0, inpPullUpChannel[i]);
9D00B03C  3C02A000   LUI V0, -24576
9D00B040  8FC30010   LW V1, 16(S8)
9D00B044  00031880   SLL V1, V1, 2
9D00B048  24420180   ADDIU V0, V0, 384
9D00B04C  00621021   ADDU V0, V1, V0
9D00B050  8C420000   LW V0, 0(V0)
9D00B054  00002021   ADDU A0, ZERO, ZERO
9D00B058  00402821   ADDU A1, V0, ZERO
9D00B05C  0F4036F9   JAL PLIB_PORTS_ChangeNoticePullUpEnable
9D00B060  00000000   NOP
77:                      }
78:                  
79:                      // Inicialitza el led
80:                      //
81:                      PLIB_PORTS_PinClear(PORTS_ID_0, PORT_CHANNEL_D, PORTS_BIT_POS_2);
9D00B080  00002021   ADDU A0, ZERO, ZERO
9D00B084  24050003   ADDIU A1, ZERO, 3
9D00B088  24060002   ADDIU A2, ZERO, 2
9D00B08C  0F403672   JAL PLIB_PORTS_PinClear
9D00B090  00000000   NOP
82:                      PLIB_PORTS_PinDirectionOutputSet(PORTS_ID_0, PORT_CHANNEL_D, PORTS_BIT_POS_2);
9D00B094  00002021   ADDU A0, ZERO, ZERO
9D00B098  24050003   ADDIU A1, ZERO, 3
9D00B09C  24060002   ADDIU A2, ZERO, 2
9D00B0A0  0F403690   JAL PLIB_PORTS_PinDirectionOutputSet
9D00B0A4  00000000   NOP
83:                  
84:                      // Configura les interrupcions
85:                      //
86:                      PLIB_INT_SourceEnable(INT_ID_0, INT_SOURCE_TIMER_2);
9D00B0A8  00002021   ADDU A0, ZERO, ZERO
9D00B0AC  24050008   ADDIU A1, ZERO, 8
9D00B0B0  0F4036C8   JAL PLIB_INT_SourceEnable
9D00B0B4  00000000   NOP
87:                      PLIB_INT_VectorPrioritySet(INT_ID_0, INT_VECTOR_T2, INT_PRIORITY_LEVEL2);
9D00B0B8  00002021   ADDU A0, ZERO, ZERO
9D00B0BC  24050040   ADDIU A1, ZERO, 64
9D00B0C0  24060002   ADDIU A2, ZERO, 2
9D00B0C4  0F403606   JAL PLIB_INT_VectorPrioritySet
9D00B0C8  00000000   NOP
88:                      PLIB_INT_VectorSubPrioritySet(INT_ID_0, INT_VECTOR_T2, INT_SUBPRIORITY_LEVEL0);
9D00B0CC  00002021   ADDU A0, ZERO, ZERO
9D00B0D0  24050040   ADDIU A1, ZERO, 64
9D00B0D4  00003021   ADDU A2, ZERO, ZERO
9D00B0D8  0F40361B   JAL PLIB_INT_VectorSubPrioritySet
9D00B0DC  00000000   NOP
89:                      PLIB_INT_MultiVectorSelect(INT_ID_0);
9D00B0E0  00002021   ADDU A0, ZERO, ZERO
9D00B0E4  0F403701   JAL PLIB_INT_MultiVectorSelect
9D00B0E8  00000000   NOP
90:                  
91:                      // Activa el temporitzador i comena a generar interrupcions TICK
92:                      //
93:                      PLIB_TMR_Start(TMR_ID_2);
9D00B0EC  24040001   ADDIU A0, ZERO, 1
9D00B0F0  0F403494   JAL PLIB_TMR_Start
9D00B0F4  00000000   NOP
94:                  }
9D00B0F8  03C0E821   ADDU SP, S8, ZERO
9D00B0FC  8FBF001C   LW RA, 28(SP)
9D00B100  8FBE0018   LW S8, 24(SP)
9D00B104  27BD0020   ADDIU SP, SP, 32
9D00B108  03E00008   JR RA
9D00B10C  00000000   NOP
95:                  
96:                  
97:                  /*************************************************************************
98:                   *
99:                   *       Escriu en un port de sortida
100:                  *
101:                  *       Funcio:
102:                  *           void halOutPortWrite(UINT8 id, BOOL state)
103:                  *
104:                  *       Entrada:
105:                  *           id   : Identificador del port
106:                  *           state: Esl nou estat
107:                  *
108:                  *************************************************************************/
109:                 
110:                 void halOutPortWrite(UINT8 id, BOOL state) {
9D00B110  27BDFFE8   ADDIU SP, SP, -24
9D00B114  AFBF0014   SW RA, 20(SP)
9D00B118  AFBE0010   SW S8, 16(SP)
9D00B11C  03A0F021   ADDU S8, SP, ZERO
9D00B120  00801021   ADDU V0, A0, ZERO
9D00B124  AFC5001C   SW A1, 28(S8)
9D00B128  A3C20018   SB V0, 24(S8)
111:                     
112:                     if (state)
9D00B12C  8FC2001C   LW V0, 28(S8)
9D00B130  10400012   BEQ V0, ZERO, 0x9D00B17C
9D00B134  00000000   NOP
113:                         PLIB_PORTS_PinSet(PORTS_ID_0, outPortChannel[id], outPortBit[id]);
9D00B138  93C20018   LBU V0, 24(S8)
9D00B13C  00021880   SLL V1, V0, 2
9D00B140  27828010   ADDIU V0, GP, -32752
9D00B144  00621021   ADDU V0, V1, V0
9D00B148  8C430000   LW V1, 0(V0)
9D00B14C  93C20018   LBU V0, 24(S8)
9D00B150  00022080   SLL A0, V0, 2
9D00B154  27828018   ADDIU V0, GP, -32744
9D00B158  00821021   ADDU V0, A0, V0
9D00B15C  8C420000   LW V0, 0(V0)
9D00B160  00002021   ADDU A0, ZERO, ZERO
9D00B164  00602821   ADDU A1, V1, ZERO
9D00B168  00403021   ADDU A2, V0, ZERO
9D00B16C  0F403663   JAL PLIB_PORTS_PinSet
9D00B170  00000000   NOP
9D00B174  0B402C6E   J 0x9D00B1B8
9D00B178  00000000   NOP
114:                     else
115:                         PLIB_PORTS_PinClear(PORTS_ID_0, outPortChannel[id], outPortBit[id]);
9D00B17C  93C20018   LBU V0, 24(S8)
9D00B180  00021880   SLL V1, V0, 2
9D00B184  27828010   ADDIU V0, GP, -32752
9D00B188  00621021   ADDU V0, V1, V0
9D00B18C  8C430000   LW V1, 0(V0)
9D00B190  93C20018   LBU V0, 24(S8)
9D00B194  00022080   SLL A0, V0, 2
9D00B198  27828018   ADDIU V0, GP, -32744
9D00B19C  00821021   ADDU V0, A0, V0
9D00B1A0  8C420000   LW V0, 0(V0)
9D00B1A4  00002021   ADDU A0, ZERO, ZERO
9D00B1A8  00602821   ADDU A1, V1, ZERO
9D00B1AC  00403021   ADDU A2, V0, ZERO
9D00B1B0  0F403672   JAL PLIB_PORTS_PinClear
9D00B1B4  00000000   NOP
116:                 }
9D00B1B8  03C0E821   ADDU SP, S8, ZERO
9D00B1BC  8FBF0014   LW RA, 20(SP)
9D00B1C0  8FBE0010   LW S8, 16(SP)
9D00B1C4  27BD0018   ADDIU SP, SP, 24
9D00B1C8  03E00008   JR RA
9D00B1CC  00000000   NOP
117:                 
118:                 
119:                 /*************************************************************************
120:                  *
121:                  *       Llegeix un port d'entrada
122:                  *
123:                  *       Funcio:
124:                  *           BOOL halInpPortRead(UINT8 inpupId)
125:                  *
126:                  *       Entrada:
127:                  *           inputId: Identificador del port
128:                  *
129:                  *       Retorn:
130:                  *           Estat del port
131:                  *
132:                  *************************************************************************/
133:                 
134:                 BOOL halInpPortRead(UINT8 id) {
9D00B1D0  27BDFFE8   ADDIU SP, SP, -24
9D00B1D4  AFBF0014   SW RA, 20(SP)
9D00B1D8  AFBE0010   SW S8, 16(SP)
9D00B1DC  03A0F021   ADDU S8, SP, ZERO
9D00B1E0  00801021   ADDU V0, A0, ZERO
9D00B1E4  A3C20018   SB V0, 24(S8)
135:                 
136:                     return !PLIB_PORTS_PinGet(PORTS_ID_0, inpPortChannel[id], inpPortBit[id]);
9D00B1E8  93C30018   LBU V1, 24(S8)
9D00B1EC  3C02A000   LUI V0, -24576
9D00B1F0  00031880   SLL V1, V1, 2
9D00B1F4  24420168   ADDIU V0, V0, 360
9D00B1F8  00621021   ADDU V0, V1, V0
9D00B1FC  8C430000   LW V1, 0(V0)
9D00B200  93C40018   LBU A0, 24(S8)
9D00B204  3C02A000   LUI V0, -24576
9D00B208  00042080   SLL A0, A0, 2
9D00B20C  24420174   ADDIU V0, V0, 372
9D00B210  00821021   ADDU V0, A0, V0
9D00B214  8C420000   LW V0, 0(V0)
9D00B218  00002021   ADDU A0, ZERO, ZERO
9D00B21C  00602821   ADDU A1, V1, ZERO
9D00B220  00403021   ADDU A2, V0, ZERO
9D00B224  0F403653   JAL PLIB_PORTS_PinGet
9D00B228  00000000   NOP
9D00B22C  38420001   XORI V0, V0, 1
9D00B230  304200FF   ANDI V0, V0, 255
137:                 }
9D00B234  03C0E821   ADDU SP, S8, ZERO
9D00B238  8FBF0014   LW RA, 20(SP)
9D00B23C  8FBE0010   LW S8, 16(SP)
9D00B240  27BD0018   ADDIU SP, SP, 24
9D00B244  03E00008   JR RA
9D00B248  00000000   NOP
138:                 
139:                 
140:                 /*************************************************************************
141:                  *
142:                  *       Escriu en el port del led
143:                  *
144:                  *       Funcio:
145:                  *           void halLedPortWrite(BOOL state)
146:                  *
147:                  *       Entrada:
148:                  *           state: El nou estat
149:                  *
150:                  *************************************************************************/
151:                 
152:                 void halLedPortWrite(BOOL state) {
9D00B24C  27BDFFE8   ADDIU SP, SP, -24
9D00B250  AFBF0014   SW RA, 20(SP)
9D00B254  AFBE0010   SW S8, 16(SP)
9D00B258  03A0F021   ADDU S8, SP, ZERO
9D00B25C  AFC40018   SW A0, 24(S8)
153:                 
154:                     if (state)
9D00B260  8FC20018   LW V0, 24(S8)
9D00B264  10400008   BEQ V0, ZERO, 0x9D00B288
9D00B268  00000000   NOP
155:                         PLIB_PORTS_PinSet(PORTS_ID_0, PORT_CHANNEL_D, PORTS_BIT_POS_2);
9D00B26C  00002021   ADDU A0, ZERO, ZERO
9D00B270  24050003   ADDIU A1, ZERO, 3
9D00B274  24060002   ADDIU A2, ZERO, 2
9D00B278  0F403663   JAL PLIB_PORTS_PinSet
9D00B27C  00000000   NOP
9D00B280  0B402CA7   J 0x9D00B29C
9D00B284  00000000   NOP
156:                     else
157:                         PLIB_PORTS_PinClear(PORTS_ID_0, PORT_CHANNEL_D, PORTS_BIT_POS_2);
9D00B288  00002021   ADDU A0, ZERO, ZERO
9D00B28C  24050003   ADDIU A1, ZERO, 3
9D00B290  24060002   ADDIU A2, ZERO, 2
9D00B294  0F403672   JAL PLIB_PORTS_PinClear
9D00B298  00000000   NOP
158:                 }
9D00B29C  03C0E821   ADDU SP, S8, ZERO
9D00B2A0  8FBF0014   LW RA, 20(SP)
9D00B2A4  8FBE0010   LW S8, 16(SP)
9D00B2A8  27BD0018   ADDIU SP, SP, 24
9D00B2AC  03E00008   JR RA
9D00B2B0  00000000   NOP
159:                 
160:                 
161:                 void halVarSave(void *data, unsigned dataSize) {
9D00B2B4  27BDFFF8   ADDIU SP, SP, -8
9D00B2B8  AFBE0004   SW S8, 4(SP)
9D00B2BC  03A0F021   ADDU S8, SP, ZERO
9D00B2C0  AFC40008   SW A0, 8(S8)
9D00B2C4  AFC5000C   SW A1, 12(S8)
162:                 
163:                 }
9D00B2C8  03C0E821   ADDU SP, S8, ZERO
9D00B2CC  8FBE0004   LW S8, 4(SP)
9D00B2D0  27BD0008   ADDIU SP, SP, 8
9D00B2D4  03E00008   JR RA
9D00B2D8  00000000   NOP
164:                 
165:                 void halVarRestore(void *data, unsigned dataSize) {
9D00B2DC  27BDFFF8   ADDIU SP, SP, -8
9D00B2E0  AFBE0004   SW S8, 4(SP)
9D00B2E4  03A0F021   ADDU S8, SP, ZERO
9D00B2E8  AFC40008   SW A0, 8(S8)
9D00B2EC  AFC5000C   SW A1, 12(S8)
166:                 
167:                 }
9D00B2F0  03C0E821   ADDU SP, S8, ZERO
9D00B2F4  8FBE0004   LW S8, 4(SP)
9D00B2F8  27BD0008   ADDIU SP, SP, 8
9D00B2FC  03E00008   JR RA
9D00B300  00000000   NOP
168:                 
169:                 
170:                 /*************************************************************************
171:                  *
172:                  *       Interrupcio del temporitzador
173:                  *
174:                  *       Funcio:
175:                  *           void TickHandler(void)
176:                  *
177:                  *************************************************************************/
178:                 
179:                 void  __attribute__((interrupt(ipl2), vector(_TIMER_2_VECTOR))) TickHandler(void) {
9D00B304  415DE800   RDPGPR SP, SP
9D00B308  401A7000   MFC0 K0, EPC
9D00B30C  401B6000   MFC0 K1, Status
9D00B310  27BDFF90   ADDIU SP, SP, -112
9D00B314  AFBA006C   SW K0, 108(SP)
9D00B318  AFBB0068   SW K1, 104(SP)
9D00B31C  7C1B7844   INS K1, ZERO, 1, 15
9D00B320  377B0800   ORI K1, K1, 2048
9D00B324  409B6000   MTC0 K1, Status
9D00B328  AFBF005C   SW RA, 92(SP)
9D00B32C  AFBE0058   SW S8, 88(SP)
9D00B330  AFB90054   SW T9, 84(SP)
9D00B334  AFB80050   SW T8, 80(SP)
9D00B338  AFAF004C   SW T7, 76(SP)
9D00B33C  AFAE0048   SW T6, 72(SP)
9D00B340  AFAD0044   SW T5, 68(SP)
9D00B344  AFAC0040   SW T4, 64(SP)
9D00B348  AFAB003C   SW T3, 60(SP)
9D00B34C  AFAA0038   SW T2, 56(SP)
9D00B350  AFA90034   SW T1, 52(SP)
9D00B354  AFA80030   SW T0, 48(SP)
9D00B358  AFA7002C   SW A3, 44(SP)
9D00B35C  AFA60028   SW A2, 40(SP)
9D00B360  AFA50024   SW A1, 36(SP)
9D00B364  AFA40020   SW A0, 32(SP)
9D00B368  AFA3001C   SW V1, 28(SP)
9D00B36C  AFA20018   SW V0, 24(SP)
9D00B370  AFA10014   SW AT, 20(SP)
9D00B374  00001012   MFLO V0, 0
9D00B378  AFA20064   SW V0, 100(SP)
9D00B37C  00001810   MFHI V1, 0
9D00B380  AFA30060   SW V1, 96(SP)
9D00B384  03A0F021   ADDU S8, SP, ZERO
180:                 
181:                     eosTickInterrupt();
9D00B388  0F40337C   JAL eosTickInterrupt
9D00B38C  00000000   NOP
182:                     
183:                     PLIB_INT_SourceFlagClear(INT_ID_0, INT_SOURCE_TIMER_2);
9D00B390  00002021   ADDU A0, ZERO, ZERO
9D00B394  24050008   ADDIU A1, ZERO, 8
9D00B398  0F4036BB   JAL PLIB_INT_SourceFlagClear
9D00B39C  00000000   NOP
184:                 }
9D00B3A0  03C0E821   ADDU SP, S8, ZERO
9D00B3A4  8FA20064   LW V0, 100(SP)
9D00B3A8  00400013   MTLO V0, 0
9D00B3AC  8FA30060   LW V1, 96(SP)
9D00B3B0  00600011   MTHI V1, 0
9D00B3B4  8FBF005C   LW RA, 92(SP)
9D00B3B8  8FBE0058   LW S8, 88(SP)
9D00B3BC  8FB90054   LW T9, 84(SP)
9D00B3C0  8FB80050   LW T8, 80(SP)
9D00B3C4  8FAF004C   LW T7, 76(SP)
9D00B3C8  8FAE0048   LW T6, 72(SP)
9D00B3CC  8FAD0044   LW T5, 68(SP)
9D00B3D0  8FAC0040   LW T4, 64(SP)
9D00B3D4  8FAB003C   LW T3, 60(SP)
9D00B3D8  8FAA0038   LW T2, 56(SP)
9D00B3DC  8FA90034   LW T1, 52(SP)
9D00B3E0  8FA80030   LW T0, 48(SP)
9D00B3E4  8FA7002C   LW A3, 44(SP)
9D00B3E8  8FA60028   LW A2, 40(SP)
9D00B3EC  8FA50024   LW A1, 36(SP)
9D00B3F0  8FA40020   LW A0, 32(SP)
9D00B3F4  8FA3001C   LW V1, 28(SP)
9D00B3F8  8FA20018   LW V0, 24(SP)
9D00B3FC  8FA10014   LW AT, 20(SP)
9D00B400  41606000   DI ZERO
9D00B404  000000C0   EHB
9D00B408  8FBA006C   LW K0, 108(SP)
9D00B40C  8FBB0068   LW K1, 104(SP)
9D00B410  409A7000   MTC0 K0, EPC
9D00B414  27BD0070   ADDIU SP, SP, 112
9D00B418  41DDE800   WRPGPR SP, SP
9D00B41C  409B6000   MTC0 K1, Status
9D00B420  42000018   ERET
---  c:/microchip/harmony/v0_70b/bsp/sk_pic32_mx_usb/config_performance.c  ------------------------------
1:                   /*******************************************************************************
2:                     System Config Performance function implementation
3:                   
4:                     Company:
5:                       Microchip Technology Incorported
6:                   
7:                     File Name:
8:                       config_performance.c
9:                   
10:                    Summary:
11:                      Contains a non-Harmony implementation of legacy SYSTEMConfigPerformance
12:                      function
13:                  
14:                    Description:
15:                      This file contains a non-Harmony implementation of the legacy
16:                      SYSTEMConfigPerformance function. The file is self contained and does
17:                      not require inclusion of legacy plib.h file.
18:                  *******************************************************************************/
19:                  
20:                  //DOM-IGNORE-BEGIN
21:                  /******************************************************************************
22:                  Copyright (c) 2012 released Microchip Technology Inc.  All rights reserved.
23:                  
24:                  Microchip licenses to you the right to use, modify, copy and distribute
25:                  Software only when embedded on a Microchip microcontroller or digital signal
26:                  controller that is integrated into your product or third party product
27:                  (pursuant to the sublicense terms in the accompanying license agreement).
28:                  
29:                  You should refer to the license agreement accompanying this Software for
30:                  additional information regarding your rights and obligations.
31:                  
32:                  SOFTWARE AND DOCUMENTATION ARE PROVIDED AS IS WITHOUT WARRANTY OF ANY KIND,
33:                  EITHER EXPRESS OR IMPLIED, INCLUDING WITHOUT LIMITATION, ANY WARRANTY OF
34:                  MERCHANTABILITY, TITLE, NON-INFRINGEMENT AND FITNESS FOR A PARTICULAR PURPOSE.
35:                  IN NO EVENT SHALL MICROCHIP OR ITS LICENSORS BE LIABLE OR OBLIGATED UNDER
36:                  CONTRACT, NEGLIGENCE, STRICT LIABILITY, CONTRIBUTION, BREACH OF WARRANTY, OR
37:                  OTHER LEGAL EQUITABLE THEORY ANY DIRECT OR INDIRECT DAMAGES OR EXPENSES
38:                  INCLUDING BUT NOT LIMITED TO ANY INCIDENTAL, SPECIAL, INDIRECT, PUNITIVE OR
39:                  CONSEQUENTIAL DAMAGES, LOST PROFITS OR LOST DATA, COST OF PROCUREMENT OF
40:                  SUBSTITUTE GOODS, TECHNOLOGY, SERVICES, OR ANY CLAIMS BY THIRD PARTIES
41:                  (INCLUDING BUT NOT LIMITED TO ANY DEFENSE THEREOF), OR OTHER SIMILAR COSTS.
42:                  *******************************************************************************/
43:                  //DOM-IGNORE-END
44:                  
45:                  #if defined (__PIC32MX__)
46:                  
47:                  #include <p32xxxx.h>
48:                  
49:                  #define OSC_PB_DIV_2    (1 << _OSCCON_PBDIV_POSITION)
50:                  #define OSC_PB_DIV_1    (0 << _OSCCON_PBDIV_POSITION)
51:                  
52:                  #define PB_BUS_MAX_FREQ_HZ      80000000
53:                  #define FLASH_SPEED_HZ          30000000
54:                  
55:                  #define CHE_CONF_PF_ALL      (3 << _CHECON_PREFEN_POSITION)
56:                  
57:                  #ifdef _DMAC
58:                  	#define	mSYSTEMUnlock(intStat, dmaSusp)	do{intStat=INTDisableInterrupts(); dmaSusp=DmaSuspend(); \
59:                  						SYSKEY = 0, SYSKEY = 0xAA996655, SYSKEY = 0x556699AA;}while(0)
60:                  #else
61:                  	#define	mSYSTEMUnlock(intStat, dmaSusp)	do{intStat=INTDisableInterrupts(); \
62:                  						SYSKEY = 0, SYSKEY = 0xAA996655, SYSKEY = 0x556699AA;}while(0)
63:                  #endif	// _DMAC
64:                  
65:                  #ifdef _DMAC
66:                  	#define mSYSTEMLock(intStat, dmaSusp)	do{SYSKEY = 0x33333333; DmaResume(dmaSusp); INTRestoreInterrupts(intStat);}while(0)
67:                  #else
68:                  	#define mSYSTEMLock(intStat, dmaSusp)	do{SYSKEY = 0x33333333; INTRestoreInterrupts(intStat);}while(0)
69:                  #endif // _DMAC
70:                  
71:                  #define mBMXDisableDRMWaitState() 	(BMXCONCLR = _BMXCON_BMXWSDRM_MASK)
72:                  
73:                  #define mCheGetCon() CHECON
74:                  
75:                  #define mCheConfigure(val) (CHECON = (val))
76:                  
77:                  void __attribute__ ((nomips16)) CheKseg0CacheOn()
78:                  {
9D00C0E8  27BDFFF8   ADDIU SP, SP, -8
9D00C0EC  AFBE0004   SW S8, 4(SP)
9D00C0F0  AFB00000   SW S0, 0(SP)
9D00C0F4  03A0F021   ADDU S8, SP, ZERO
79:                  	register unsigned long tmp;
80:                  	asm("mfc0 %0,$16,0" :  "=r"(tmp));
9D00C0F8  40108000   MFC0 S0, Config
81:                  	tmp = (tmp & ~7) | 3;
9D00C0FC  2402FFF8   ADDIU V0, ZERO, -8
9D00C100  02021024   AND V0, S0, V0
9D00C104  34500003   ORI S0, V0, 3
82:                  	asm("mtc0 %0,$16,0" :: "r" (tmp));
9D00C108  40908000   MTC0 S0, Config
83:                  }
9D00C10C  03C0E821   ADDU SP, S8, ZERO
9D00C110  8FBE0004   LW S8, 4(SP)
9D00C114  8FB00000   LW S0, 0(SP)
9D00C118  03E00008   JR RA
9D00C11C  27BD0008   ADDIU SP, SP, 8
84:                  
85:                  int DmaSuspend(void)
86:                  {
9D00C120  27BDFFF0   ADDIU SP, SP, -16
9D00C124  AFBE000C   SW S8, 12(SP)
9D00C128  03A0F021   ADDU S8, SP, ZERO
87:                      int suspSt;
88:                      if(!(suspSt=DMACONbits.SUSPEND))
9D00C12C  3C02BF88   LUI V0, -16504
9D00C130  8C423000   LW V0, 12288(V0)
9D00C134  7C420300   EXT V0, V0, 12, 1
9D00C138  304200FF   ANDI V0, V0, 255
9D00C13C  AFC20000   SW V0, 0(S8)
9D00C140  8FC20000   LW V0, 0(S8)
9D00C144  1440000A   BNE V0, ZERO, 0x9D00C170
9D00C148  00000000   NOP
89:                      {
90:                          DMACONSET=_DMACON_SUSPEND_MASK;		// suspend
9D00C14C  3C02BF88   LUI V0, -16504
9D00C150  24031000   ADDIU V1, ZERO, 4096
9D00C154  AC433008   SW V1, 12296(V0)
91:                          while((DMACONbits.DMABUSY));	// wait to be actually suspended
9D00C158  00000000   NOP
9D00C15C  3C02BF88   LUI V0, -16504
9D00C160  8C423000   LW V0, 12288(V0)
9D00C164  30420800   ANDI V0, V0, 2048
9D00C168  1440FFFC   BNE V0, ZERO, 0x9D00C15C
9D00C16C  00000000   NOP
92:                      }
93:                      return suspSt;
9D00C170  8FC20000   LW V0, 0(S8)
94:                  }
9D00C174  03C0E821   ADDU SP, S8, ZERO
9D00C178  8FBE000C   LW S8, 12(SP)
9D00C17C  27BD0010   ADDIU SP, SP, 16
9D00C180  03E00008   JR RA
9D00C184  00000000   NOP
95:                  
96:                  void DmaResume(int susp)
97:                  {
9D00C188  27BDFFE8   ADDIU SP, SP, -24
9D00C18C  AFBF0014   SW RA, 20(SP)
9D00C190  AFBE0010   SW S8, 16(SP)
9D00C194  03A0F021   ADDU S8, SP, ZERO
9D00C198  AFC40018   SW A0, 24(S8)
98:                      if(susp)
9D00C19C  8FC20018   LW V0, 24(S8)
9D00C1A0  10400005   BEQ V0, ZERO, 0x9D00C1B8
9D00C1A4  00000000   NOP
99:                      {
100:                         DmaSuspend();
9D00C1A8  0F403048   JAL DmaSuspend
9D00C1AC  00000000   NOP
9D00C1B0  0B403071   J 0x9D00C1C4
9D00C1B4  00000000   NOP
101:                     }
102:                     else
103:                     {
104:                         DMACONCLR=_DMACON_SUSPEND_MASK;		// resume DMA activity
9D00C1B8  3C02BF88   LUI V0, -16504
9D00C1BC  24031000   ADDIU V1, ZERO, 4096
9D00C1C0  AC433004   SW V1, 12292(V0)
105:                     }
106:                 }
9D00C1C4  03C0E821   ADDU SP, S8, ZERO
9D00C1C8  8FBF0014   LW RA, 20(SP)
9D00C1CC  8FBE0010   LW S8, 16(SP)
9D00C1D0  27BD0018   ADDIU SP, SP, 24
9D00C1D4  03E00008   JR RA
9D00C1D8  00000000   NOP
107:                 
108:                 
109:                 
110:                 unsigned int INTDisableInterrupts(void)
111:                 {
9D00C1DC  27BDFFF0   ADDIU SP, SP, -16
9D00C1E0  AFBE000C   SW S8, 12(SP)
9D00C1E4  AFB00008   SW S0, 8(SP)
9D00C1E8  03A0F021   ADDU S8, SP, ZERO
112:                     unsigned int status = 0;
9D00C1EC  AFC00000   SW ZERO, 0(S8)
113:                 
114:                     asm volatile("di    %0" : "=r"(status));
9D00C1F0  41706000   DI S0
9D00C1F4  AFD00000   SW S0, 0(S8)
115:                 
116:                     return status;
9D00C1F8  8FC20000   LW V0, 0(S8)
117:                 }
9D00C1FC  03C0E821   ADDU SP, S8, ZERO
9D00C200  8FBE000C   LW S8, 12(SP)
9D00C204  8FB00008   LW S0, 8(SP)
9D00C208  03E00008   JR RA
9D00C20C  27BD0010   ADDIU SP, SP, 16
118:                 
119:                 void INTRestoreInterrupts(unsigned int status)
120:                 {
9D00C210  27BDFFF8   ADDIU SP, SP, -8
9D00C214  AFBE0004   SW S8, 4(SP)
9D00C218  03A0F021   ADDU S8, SP, ZERO
9D00C21C  AFC40008   SW A0, 8(S8)
121:                     if(status & 0x00000001)
9D00C220  8FC20008   LW V0, 8(S8)
9D00C224  30420001   ANDI V0, V0, 1
9D00C228  304200FF   ANDI V0, V0, 255
9D00C22C  10400003   BEQ V0, ZERO, 0x9D00C23C
9D00C230  00000000   NOP
122:                     {
123:                         asm volatile("ei");
9D00C234  0B403090   J 0x9D00C240
9D00C238  41606020   EI ZERO
124:                     }
125:                     else
126:                     {
127:                         asm volatile("di");
9D00C23C  41606000   DI ZERO
128:                     }
129:                 }
9D00C240  03C0E821   ADDU SP, S8, ZERO
9D00C244  8FBE0004   LW S8, 4(SP)
9D00C248  03E00008   JR RA
9D00C24C  27BD0008   ADDIU SP, SP, 8
130:                 
131:                 void OSCSetPBDIV(unsigned int oscPbDiv)
132:                 {
9D00C250  27BDFFD8   ADDIU SP, SP, -40
9D00C254  AFBF0024   SW RA, 36(SP)
9D00C258  AFBE0020   SW S8, 32(SP)
9D00C25C  03A0F021   ADDU S8, SP, ZERO
9D00C260  AFC40028   SW A0, 40(S8)
133:                 	unsigned int dma_status;
134:                 	unsigned int int_status;
135:                 	__OSCCONbits_t oscBits;
136:                 
137:                 	mSYSTEMUnlock(int_status, dma_status);
9D00C264  0F403077   JAL INTDisableInterrupts
9D00C268  00000000   NOP
9D00C26C  AFC20010   SW V0, 16(S8)
9D00C270  0F403048   JAL DmaSuspend
9D00C274  00000000   NOP
9D00C278  AFC20014   SW V0, 20(S8)
9D00C27C  3C02BF81   LUI V0, -16511
9D00C280  AC40F230   SW ZERO, -3536(V0)
9D00C284  3C02BF81   LUI V0, -16511
9D00C288  3C03AA99   LUI V1, -21863
9D00C28C  34636655   ORI V1, V1, 26197
9D00C290  AC43F230   SW V1, -3536(V0)
9D00C294  3C02BF81   LUI V0, -16511
9D00C298  3C035566   LUI V1, 21862
9D00C29C  346399AA   ORI V1, V1, -26198
9D00C2A0  AC43F230   SW V1, -3536(V0)
138:                 
139:                 	oscBits.w=OSCCON;		// read to be in sync. flush any pending write
9D00C2A4  3C02BF81   LUI V0, -16511
9D00C2A8  8C42F000   LW V0, -4096(V0)
9D00C2AC  AFC20018   SW V0, 24(S8)
140:                 	oscBits.PBDIV=0;
9D00C2B0  8FC20018   LW V0, 24(S8)
9D00C2B4  7C02A4C4   INS V0, ZERO, 19, 2
9D00C2B8  AFC20018   SW V0, 24(S8)
141:                 	oscBits.w|=oscPbDiv;
9D00C2BC  8FC30018   LW V1, 24(S8)
9D00C2C0  8FC20028   LW V0, 40(S8)
9D00C2C4  00621025   OR V0, V1, V0
9D00C2C8  AFC20018   SW V0, 24(S8)
142:                 	OSCCON=oscBits.w;		// write back
9D00C2CC  8FC30018   LW V1, 24(S8)
9D00C2D0  3C02BF81   LUI V0, -16511
9D00C2D4  AC43F000   SW V1, -4096(V0)
143:                 	oscBits.w=OSCCON;		// make sure the write occurred before returning from this function
9D00C2D8  3C02BF81   LUI V0, -16511
9D00C2DC  8C42F000   LW V0, -4096(V0)
9D00C2E0  AFC20018   SW V0, 24(S8)
144:                 
145:                 	mSYSTEMLock(int_status, dma_status);
9D00C2E4  3C02BF81   LUI V0, -16511
9D00C2E8  3C033333   LUI V1, 13107
9D00C2EC  34633333   ORI V1, V1, 13107
9D00C2F0  AC43F230   SW V1, -3536(V0)
9D00C2F4  8FC20014   LW V0, 20(S8)
9D00C2F8  00402021   ADDU A0, V0, ZERO
9D00C2FC  0F403062   JAL DmaResume
9D00C300  00000000   NOP
9D00C304  8FC40010   LW A0, 16(S8)
9D00C308  0F403084   JAL INTRestoreInterrupts
9D00C30C  00000000   NOP
146:                 }
9D00C310  03C0E821   ADDU SP, S8, ZERO
9D00C314  8FBF0024   LW RA, 36(SP)
9D00C318  8FBE0020   LW S8, 32(SP)
9D00C31C  27BD0028   ADDIU SP, SP, 40
9D00C320  03E00008   JR RA
9D00C324  00000000   NOP
147:                 
148:                 unsigned int SYSTEMConfigPB(unsigned int sys_clock)
149:                 {
9D00C328  27BDFFE0   ADDIU SP, SP, -32
9D00C32C  AFBF001C   SW RA, 28(SP)
9D00C330  AFBE0018   SW S8, 24(SP)
9D00C334  03A0F021   ADDU S8, SP, ZERO
9D00C338  AFC40020   SW A0, 32(S8)
150:                     unsigned int pb_div;
151:                     unsigned int pb_clock;
152:                 
153:                     pb_clock = sys_clock;
9D00C33C  8FC20020   LW V0, 32(S8)
9D00C340  AFC20014   SW V0, 20(S8)
154:                 
155:                     if(sys_clock > PB_BUS_MAX_FREQ_HZ)
9D00C344  8FC30020   LW V1, 32(S8)
9D00C348  3C0204C4   LUI V0, 1220
9D00C34C  3442B401   ORI V0, V0, -19455
9D00C350  0062102B   SLTU V0, V1, V0
9D00C354  14400008   BNE V0, ZERO, 0x9D00C378
9D00C358  00000000   NOP
156:                     {
157:                         pb_div=OSC_PB_DIV_2;
9D00C35C  3C020008   LUI V0, 8
9D00C360  AFC20010   SW V0, 16(S8)
158:                         pb_clock >>= 1;
9D00C364  8FC20014   LW V0, 20(S8)
9D00C368  00021042   SRL V0, V0, 1
9D00C36C  AFC20014   SW V0, 20(S8)
9D00C370  0B4030DF   J 0x9D00C37C
9D00C374  00000000   NOP
159:                     }
160:                     else
161:                     {
162:                         pb_div=OSC_PB_DIV_1;
9D00C378  AFC00010   SW ZERO, 16(S8)
163:                     }
164:                 
165:                     OSCSetPBDIV(pb_div);
9D00C37C  8FC40010   LW A0, 16(S8)
9D00C380  0F403094   JAL OSCSetPBDIV
9D00C384  00000000   NOP
166:                 
167:                     return pb_clock;
9D00C388  8FC20014   LW V0, 20(S8)
168:                 }
9D00C38C  03C0E821   ADDU SP, S8, ZERO
9D00C390  8FBF001C   LW RA, 28(SP)
9D00C394  8FBE0018   LW S8, 24(SP)
9D00C398  27BD0020   ADDIU SP, SP, 32
9D00C39C  03E00008   JR RA
9D00C3A0  00000000   NOP
169:                 
170:                 
171:                 unsigned int SYSTEMConfigWaitStatesAndPB(unsigned int sys_clock)
172:                 {
9D00C3A4  27BDFFD8   ADDIU SP, SP, -40
9D00C3A8  AFBF0024   SW RA, 36(SP)
9D00C3AC  AFBE0020   SW S8, 32(SP)
9D00C3B0  03A0F021   ADDU S8, SP, ZERO
9D00C3B4  AFC40028   SW A0, 40(S8)
173:                 #ifdef _PCACHE
174:                     unsigned int wait_states;
175:                 #endif
176:                     unsigned int pb_clock;
177:                     unsigned int int_status;
178:                 
179:                     pb_clock = SYSTEMConfigPB(sys_clock);
9D00C3B8  8FC40028   LW A0, 40(S8)
9D00C3BC  0F4030CA   JAL SYSTEMConfigPB
9D00C3C0  00000000   NOP
9D00C3C4  AFC20014   SW V0, 20(S8)
180:                 
181:                 
182:                     // set the flash wait states based on 1 wait state
183:                     // for every 20 MHz
184:                 #ifdef _PCACHE
185:                     wait_states = 0;
9D00C3C8  AFC00010   SW ZERO, 16(S8)
186:                 
187:                     while(sys_clock > FLASH_SPEED_HZ)
9D00C3CC  0B4030FD   J 0x9D00C3F4
9D00C3D0  00000000   NOP
9D00C3F4  8FC30028   LW V1, 40(S8)
9D00C3F8  3C0201C9   LUI V0, 457
9D00C3FC  3442C381   ORI V0, V0, -15487
9D00C400  0062102B   SLTU V0, V1, V0
9D00C404  1040FFF3   BEQ V0, ZERO, 0x9D00C3D4
9D00C408  00000000   NOP
188:                     {
189:                         wait_states++;
9D00C3D4  8FC20010   LW V0, 16(S8)
9D00C3D8  24420001   ADDIU V0, V0, 1
9D00C3DC  AFC20010   SW V0, 16(S8)
190:                         sys_clock -= FLASH_SPEED_HZ;
9D00C3E0  8FC30028   LW V1, 40(S8)
9D00C3E4  3C02FE36   LUI V0, -458
9D00C3E8  34423C80   ORI V0, V0, 15488
9D00C3EC  00621021   ADDU V0, V1, V0
9D00C3F0  AFC20028   SW V0, 40(S8)
191:                     }
192:                 
193:                     int_status=INTDisableInterrupts();
9D00C40C  0F403077   JAL INTDisableInterrupts
9D00C410  00000000   NOP
9D00C414  AFC20018   SW V0, 24(S8)
194:                     mCheConfigure(wait_states);
9D00C418  3C02BF88   LUI V0, -16504
9D00C41C  8FC30010   LW V1, 16(S8)
9D00C420  AC434000   SW V1, 16384(V0)
195:                     INTRestoreInterrupts(int_status);
9D00C424  8FC40018   LW A0, 24(S8)
9D00C428  0F403084   JAL INTRestoreInterrupts
9D00C42C  00000000   NOP
196:                 
197:                 #endif
198:                 
199:                     return pb_clock;
9D00C430  8FC20014   LW V0, 20(S8)
200:                 }
9D00C434  03C0E821   ADDU SP, S8, ZERO
9D00C438  8FBF0024   LW RA, 36(SP)
9D00C43C  8FBE0020   LW S8, 32(SP)
9D00C440  27BD0028   ADDIU SP, SP, 40
9D00C444  03E00008   JR RA
9D00C448  00000000   NOP
201:                 
202:                 unsigned int SYSTEMConfigPerformance(unsigned int sys_clock)
203:                 {
9D00C44C  27BDFFD8   ADDIU SP, SP, -40
9D00C450  AFBF0024   SW RA, 36(SP)
9D00C454  AFBE0020   SW S8, 32(SP)
9D00C458  03A0F021   ADDU S8, SP, ZERO
9D00C45C  AFC40028   SW A0, 40(S8)
204:                     // set up the wait states
205:                     unsigned int pb_clk;
206:                 #ifdef _PCACHE
207:                     unsigned int cache_status;
208:                 #endif
209:                     unsigned int int_status;
210:                 
211:                     pb_clk = SYSTEMConfigWaitStatesAndPB(sys_clock);
9D00C460  8FC40028   LW A0, 40(S8)
9D00C464  0F4030E9   JAL SYSTEMConfigWaitStatesAndPB
9D00C468  00000000   NOP
9D00C46C  AFC20010   SW V0, 16(S8)
212:                 
213:                     int_status=INTDisableInterrupts();
9D00C470  0F403077   JAL INTDisableInterrupts
9D00C474  00000000   NOP
9D00C478  AFC20014   SW V0, 20(S8)
214:                 
215:                     mBMXDisableDRMWaitState();
9D00C47C  3C02BF88   LUI V0, -16504
9D00C480  24030040   ADDIU V1, ZERO, 64
9D00C484  AC432004   SW V1, 8196(V0)
216:                 
217:                 #ifdef _PCACHE
218:                     cache_status = mCheGetCon();
9D00C488  3C02BF88   LUI V0, -16504
9D00C48C  8C424000   LW V0, 16384(V0)
9D00C490  AFC20018   SW V0, 24(S8)
219:                     cache_status |= CHE_CONF_PF_ALL;
9D00C494  8FC20018   LW V0, 24(S8)
9D00C498  34420030   ORI V0, V0, 48
9D00C49C  AFC20018   SW V0, 24(S8)
220:                     mCheConfigure(cache_status);
9D00C4A0  3C02BF88   LUI V0, -16504
9D00C4A4  8FC30018   LW V1, 24(S8)
9D00C4A8  AC434000   SW V1, 16384(V0)
221:                     CheKseg0CacheOn();
9D00C4AC  0F40303A   JAL CheKseg0CacheOn
9D00C4B0  00000000   NOP
222:                 #endif
223:                 
224:                     INTRestoreInterrupts(int_status);
9D00C4B4  8FC40014   LW A0, 20(S8)
9D00C4B8  0F403084   JAL INTRestoreInterrupts
9D00C4BC  00000000   NOP
225:                 
226:                     return pb_clk;
9D00C4C0  8FC20010   LW V0, 16(S8)
227:                 
228:                 }
9D00C4C4  03C0E821   ADDU SP, S8, ZERO
9D00C4C8  8FBF0024   LW RA, 36(SP)
9D00C4CC  8FBE0020   LW S8, 32(SP)
9D00C4D0  27BD0028   ADDIU SP, SP, 40
9D00C4D4  03E00008   JR RA
9D00C4D8  00000000   NOP
229:                 #endif
---  /Volumes/home/c11067/xc32/build/xc32-XC32_v1_30_branch/src45x/gcc/gcc/libgcc2.c  -------------------
9D00B424  00C04021   ADDU T0, A2, ZERO
9D00B888  00C01021   ADDU V0, A2, ZERO
9D00B428  00804821   ADDU T1, A0, ZERO
9D00B88C  00804021   ADDU T0, A0, ZERO
9D00B42C  14E0003B   BNE A3, ZERO, 0x9D00B51C
9D00B430  00A01821   ADDU V1, A1, ZERO
9D00B890  14E0003D   BNE A3, ZERO, 0x9D00B988
9D00B894  00A01821   ADDU V1, A1, ZERO
9D00B434  00A6102B   SLTU V0, A1, A2
9D00B438  10400048   BEQ V0, ZERO, 0x9D00B55C
9D00B43C  70C21020   CLZ V0, A2
9D00B898  00A6302B   SLTU A2, A1, A2
9D00B89C  10C00046   BEQ A2, ZERO, 0x9D00B9B8
9D00B8A0  00000000   NOP
9D00B8A4  70442020   CLZ A0, V0
9D00B440  10400008   BEQ V0, ZERO, 0x9D00B464
9D00B444  00085402   SRL T2, T0, 16
9D00B8A8  10800008   BEQ A0, ZERO, 0x9D00B8CC
9D00B8AC  00022C02   SRL A1, V0, 16
9D00B454  00464004   SLLV T0, A2, V0
9D00B8BC  00821004   SLLV V0, V0, A0
9D00B448  00022023   SUBU A0, ZERO, V0
9D00B44C  00892006   SRLV A0, T1, A0
9D00B450  00451804   SLLV V1, A1, V0
9D00B458  00831825   OR V1, A0, V1
9D00B8B0  00042823   SUBU A1, ZERO, A0
9D00B8B4  00A82806   SRLV A1, T0, A1
9D00B8B8  00831804   SLLV V1, V1, A0
9D00B8C0  00A31825   OR V1, A1, V1
9D00B45C  00494804   SLLV T1, T1, V0
9D00B8C4  00884004   SLLV T0, T0, A0
9D00B460  00085402   SRL T2, T0, 16
9D00B464  006A001B   DIVU V1, T2
9D00B468  014001F4   TEQ T2, ZERO
9D00B46C  310CFFFF   ANDI T4, T0, -1
9D00B470  00092402   SRL A0, T1, 16
9D00B474  00005812   MFLO T3, 0
9D00B478  00003010   MFHI A2, 0
9D00B47C  716C5802   MUL T3, T3, T4
9D00B480  00063400   SLL A2, A2, 16
9D00B484  00C43025   OR A2, A2, A0
9D00B488  00CB682B   SLTU T5, A2, T3
9D00B48C  006A001B   DIVU V1, T2
9D00B490  014001F4   TEQ T2, ZERO
9D00B494  51A00009   BEQL T5, ZERO, 0x9D00B4BC
9D00B498  00CB3023   SUBU A2, A2, T3
9D00B49C  00C83021   ADDU A2, A2, T0
9D00B4A0  00C8182B   SLTU V1, A2, T0
9D00B4A4  54600005   BNEL V1, ZERO, 0x9D00B4BC
9D00B4A8  00CB3023   SUBU A2, A2, T3
9D00B4AC  00CB202B   SLTU A0, A2, T3
9D00B4B0  00C81821   ADDU V1, A2, T0
9D00B4B4  0064300B   MOVN A2, V1, A0
9D00B4B8  00CB3023   SUBU A2, A2, T3
9D00B4BC  00CA001B   DIVU A2, T2
9D00B4C0  014001F4   TEQ T2, ZERO
9D00B4C4  3129FFFF   ANDI T1, T1, -1
9D00B4C8  00002012   MFLO A0, 0
9D00B4CC  00001810   MFHI V1, 0
9D00B4D0  708C2002   MUL A0, A0, T4
9D00B4D4  00031C00   SLL V1, V1, 16
9D00B4D8  00694825   OR T1, V1, T1
9D00B4DC  0124182B   SLTU V1, T1, A0
9D00B4E0  00CA001B   DIVU A2, T2
9D00B4E4  014001F4   TEQ T2, ZERO
9D00B4E8  50600009   BEQL V1, ZERO, 0x9D00B510
9D00B4EC  01244823   SUBU T1, T1, A0
9D00B4F0  01284821   ADDU T1, T1, T0
9D00B4F4  0128182B   SLTU V1, T1, T0
9D00B4F8  54600005   BNEL V1, ZERO, 0x9D00B510
9D00B4FC  01244823   SUBU T1, T1, A0
9D00B500  0124182B   SLTU V1, T1, A0
9D00B504  01284021   ADDU T0, T1, T0
9D00B508  0103480B   MOVN T1, T0, V1
9D00B50C  01244823   SUBU T1, T1, A0
9D00B8C8  00022C02   SRL A1, V0, 16
9D00B8CC  0065001B   DIVU V1, A1
9D00B8D0  00A001F4   TEQ A1, ZERO
9D00B8D4  304AFFFF   ANDI T2, V0, -1
9D00B8D8  00085C02   SRL T3, T0, 16
9D00B8DC  00004812   MFLO T1, 0
9D00B8E0  00003810   MFHI A3, 0
9D00B8E4  712A2002   MUL A0, T1, T2
9D00B8E8  00073C00   SLL A3, A3, 16
9D00B8EC  00EB3825   OR A3, A3, T3
9D00B8F0  00E4302B   SLTU A2, A3, A0
9D00B8F4  0065001B   DIVU V1, A1
9D00B8F8  00A001F4   TEQ A1, ZERO
9D00B8FC  10C0000B   BEQ A2, ZERO, 0x9D00B92C
9D00B900  00E41823   SUBU V1, A3, A0
9D00B904  00E23821   ADDU A3, A3, V0
9D00B908  00E2182B   SLTU V1, A3, V0
9D00B90C  14600006   BNE V1, ZERO, 0x9D00B928
9D00B910  2529FFFF   ADDIU T1, T1, -1
9D00B914  00E4182B   SLTU V1, A3, A0
9D00B918  10600004   BEQ V1, ZERO, 0x9D00B92C
9D00B91C  00E41823   SUBU V1, A3, A0
9D00B920  2529FFFF   ADDIU T1, T1, -1
9D00B924  00E23821   ADDU A3, A3, V0
9D00B928  00E41823   SUBU V1, A3, A0
9D00B92C  0065001B   DIVU V1, A1
9D00B930  00A001F4   TEQ A1, ZERO
9D00B934  3108FFFF   ANDI T0, T0, -1
9D00B938  00002012   MFLO A0, 0
9D00B93C  00003010   MFHI A2, 0
9D00B940  708A5002   MUL T2, A0, T2
9D00B944  00063400   SLL A2, A2, 16
9D00B948  00C84025   OR T0, A2, T0
9D00B94C  010A302B   SLTU A2, T0, T2
9D00B950  0065001B   DIVU V1, A1
9D00B954  00A001F4   TEQ A1, ZERO
9D00B958  10C00006   BEQ A2, ZERO, 0x9D00B974
9D00B95C  01024021   ADDU T0, T0, V0
9D00B960  0102102B   SLTU V0, T0, V0
9D00B964  14400003   BNE V0, ZERO, 0x9D00B974
9D00B968  2484FFFF   ADDIU A0, A0, -1
9D00B96C  010A502B   SLTU T2, T0, T2
9D00B970  008A2023   SUBU A0, A0, T2
9D00B974  00094C00   SLL T1, T1, 16
9D00B978  00892025   OR A0, A0, T1
9D00B97C  00001821   ADDU V1, ZERO, ZERO
9D00B55C  14C00006   BNE A2, ZERO, 0x9D00B578
9D00B560  71021020   CLZ V0, T0
9D00B9B8  14400006   BNE V0, ZERO, 0x9D00B9D4
9D00B9BC  70463020   CLZ A2, V0
9D00B564  24020001   ADDIU V0, ZERO, 1
9D00B568  0046001B   DIVU V0, A2
9D00B56C  00C001F4   TEQ A2, ZERO
9D00B570  00004012   MFLO T0, 0
9D00B9C0  24030001   ADDIU V1, ZERO, 1
9D00B9C4  0062001B   DIVU V1, V0
9D00B9C8  004001F4   TEQ V0, ZERO
9D00B9CC  00001012   MFLO V0, 0
9D00B574  71021020   CLZ V0, T0
9D00B9D0  70463020   CLZ A2, V0
9D00B578  5440007B   BNEL V0, ZERO, 0x9D00B768
9D00B57C  24090020   ADDIU T1, ZERO, 32
9D00B9D4  54C00077   BNEL A2, ZERO, 0x9D00BBB4
9D00B9D8  24080020   ADDIU T0, ZERO, 32
9D00B580  00A82823   SUBU A1, A1, T0
9D00B584  00081C02   SRL V1, T0, 16
9D00B588  3107FFFF   ANDI A3, T0, -1
9D00B9DC  00A24823   SUBU T1, A1, V0
9D00B9E0  00023C02   SRL A3, V0, 16
9D00B9E4  304CFFFF   ANDI T4, V0, -1
9D00B9E8  24030001   ADDIU V1, ZERO, 1
9D00B768  01224823   SUBU T1, T1, V0
9D00BBB8  01064023   SUBU T0, T0, A2
9D00B76C  00484004   SLLV T0, T0, V0
9D00BBB4  00C21004   SLLV V0, V0, A2
9D00B770  01253006   SRLV A2, A1, T1
9D00BBBC  01055006   SRLV T2, A1, T0
9D00B784  01245806   SRLV T3, A0, T1
9D00B788  00452804   SLLV A1, A1, V0
9D00B78C  01655825   OR T3, T3, A1
9D00BBCC  01044006   SRLV T0, A0, T0
9D00BBD0  00C52804   SLLV A1, A1, A2
9D00BBD8  01052825   OR A1, T0, A1
9D00B794  00444804   SLLV T1, A0, V0
9D00BBDC  00C44004   SLLV T0, A0, A2
9D00B774  00081C02   SRL V1, T0, 16
9D00B778  00C3001B   DIVU A2, V1
9D00B77C  006001F4   TEQ V1, ZERO
9D00B780  3107FFFF   ANDI A3, T0, -1
9D00B790  000B2C02   SRL A1, T3, 16
9D00B798  00005012   MFLO T2, 0
9D00B79C  00006010   MFHI T4, 0
9D00B7A0  71475002   MUL T2, T2, A3
9D00B7A4  000C2400   SLL A0, T4, 16
9D00B7A8  00A42025   OR A0, A1, A0
9D00B7AC  008A282B   SLTU A1, A0, T2
9D00B7B0  00C3001B   DIVU A2, V1
9D00B7B4  006001F4   TEQ V1, ZERO
9D00B7B8  50A00006   BEQL A1, ZERO, 0x9D00B7D4
9D00B7BC  008A2023   SUBU A0, A0, T2
9D00B7C0  00882021   ADDU A0, A0, T0
9D00B7C4  0088282B   SLTU A1, A0, T0
9D00B7C8  10A00024   BEQ A1, ZERO, 0x9D00B85C
9D00B7CC  008A302B   SLTU A2, A0, T2
9D00B7D0  008A2023   SUBU A0, A0, T2
9D00B7D4  0083001B   DIVU A0, V1
9D00B7D8  006001F4   TEQ V1, ZERO
9D00B7DC  316BFFFF   ANDI T3, T3, -1
9D00B7E0  00003012   MFLO A2, 0
9D00B7E4  00002810   MFHI A1, 0
9D00B7E8  70C73002   MUL A2, A2, A3
9D00B7EC  00052C00   SLL A1, A1, 16
9D00B7F0  00AB2825   OR A1, A1, T3
9D00B7F4  00A6502B   SLTU T2, A1, A2
9D00B7F8  0083001B   DIVU A0, V1
9D00B7FC  006001F4   TEQ V1, ZERO
9D00B800  5140FF62   BEQL T2, ZERO, 0x9D00B58C
9D00B804  00A62823   SUBU A1, A1, A2
9D00B808  00A82821   ADDU A1, A1, T0
9D00B80C  00A8202B   SLTU A0, A1, T0
9D00B810  5480FF5E   BNEL A0, ZERO, 0x9D00B58C
9D00B814  00A62823   SUBU A1, A1, A2
9D00B818  00A6502B   SLTU T2, A1, A2
9D00B81C  00A82021   ADDU A0, A1, T0
9D00B820  008A280B   MOVN A1, A0, T2
9D00B824  0B402D63   J 0x9D00B58C
9D00B828  00A62823   SUBU A1, A1, A2
9D00B85C  00882821   ADDU A1, A0, T0
9D00B860  0B402DF4   J 0x9D00B7D0
9D00B864  00A6200B   MOVN A0, A1, A2
9D00BBC0  00023C02   SRL A3, V0, 16
9D00BBC4  0147001B   DIVU T2, A3
9D00BBC8  00E001F4   TEQ A3, ZERO
9D00BBD4  304CFFFF   ANDI T4, V0, -1
9D00BBE0  00054C02   SRL T1, A1, 16
9D00BBE4  00001812   MFLO V1, 0
9D00BBE8  00005810   MFHI T3, 0
9D00BBEC  00003012   MFLO A2, 0
9D00BBF0  706C1802   MUL V1, V1, T4
9D00BBF4  000B2400   SLL A0, T3, 16
9D00BBF8  01242025   OR A0, T1, A0
9D00BBFC  0083482B   SLTU T1, A0, V1
9D00BC00  0147001B   DIVU T2, A3
9D00BC04  00E001F4   TEQ A3, ZERO
9D00BC08  5120000B   BEQL T1, ZERO, 0x9D00BC38
9D00BC0C  00832023   SUBU A0, A0, V1
9D00BC10  00822021   ADDU A0, A0, V0
9D00BC14  0082482B   SLTU T1, A0, V0
9D00BC18  15200006   BNE T1, ZERO, 0x9D00BC34
9D00BC1C  24C6FFFF   ADDIU A2, A2, -1
9D00BC20  0083482B   SLTU T1, A0, V1
9D00BC24  51200004   BEQL T1, ZERO, 0x9D00BC38
9D00BC28  00832023   SUBU A0, A0, V1
9D00BC2C  24C6FFFF   ADDIU A2, A2, -1
9D00BC30  00822021   ADDU A0, A0, V0
9D00BC34  00832023   SUBU A0, A0, V1
9D00BC38  0087001B   DIVU A0, A3
9D00BC3C  00E001F4   TEQ A3, ZERO
9D00BC40  30AAFFFF   ANDI T2, A1, -1
9D00BC44  00001812   MFLO V1, 0
9D00BC48  00004810   MFHI T1, 0
9D00BC4C  706C2802   MUL A1, V1, T4
9D00BC50  00094C00   SLL T1, T1, 16
9D00BC54  012A4825   OR T1, T1, T2
9D00BC58  0125502B   SLTU T2, T1, A1
9D00BC5C  0087001B   DIVU A0, A3
9D00BC60  00E001F4   TEQ A3, ZERO
9D00BC64  5140000B   BEQL T2, ZERO, 0x9D00BC94
9D00BC68  00063400   SLL A2, A2, 16
9D00BC6C  01224821   ADDU T1, T1, V0
9D00BC70  0122202B   SLTU A0, T1, V0
9D00BC74  14800006   BNE A0, ZERO, 0x9D00BC90
9D00BC78  2463FFFF   ADDIU V1, V1, -1
9D00BC7C  0125202B   SLTU A0, T1, A1
9D00BC80  50800004   BEQL A0, ZERO, 0x9D00BC94
9D00BC84  00063400   SLL A2, A2, 16
9D00BC88  2463FFFF   ADDIU V1, V1, -1
9D00BC8C  01224821   ADDU T1, T1, V0
9D00BC90  00063400   SLL A2, A2, 16
9D00BC94  01254823   SUBU T1, T1, A1
9D00BC98  0B402E7B   J 0x9D00B9EC
9D00BC9C  00661825   OR V1, V1, A2
9D00B58C  00A3001B   DIVU A1, V1
9D00B590  006001F4   TEQ V1, ZERO
9D00B594  00095402   SRL T2, T1, 16
9D00B598  00002012   MFLO A0, 0
9D00B59C  00003010   MFHI A2, 0
9D00B5A0  70872002   MUL A0, A0, A3
9D00B5A4  00063400   SLL A2, A2, 16
9D00B5A8  00CA3025   OR A2, A2, T2
9D00B5AC  00C4502B   SLTU T2, A2, A0
9D00B5B0  00A3001B   DIVU A1, V1
9D00B5B4  006001F4   TEQ V1, ZERO
9D00B5B8  51400009   BEQL T2, ZERO, 0x9D00B5E0
9D00B5BC  00C43023   SUBU A2, A2, A0
9D00B5C0  00C83021   ADDU A2, A2, T0
9D00B5C4  00C8282B   SLTU A1, A2, T0
9D00B5C8  54A00005   BNEL A1, ZERO, 0x9D00B5E0
9D00B5CC  00C43023   SUBU A2, A2, A0
9D00B5D0  00C4502B   SLTU T2, A2, A0
9D00B5D4  00C82821   ADDU A1, A2, T0
9D00B5D8  00AA300B   MOVN A2, A1, T2
9D00B5DC  00C43023   SUBU A2, A2, A0
9D00B5E0  00C3001B   DIVU A2, V1
9D00B5E4  006001F4   TEQ V1, ZERO
9D00B5E8  3129FFFF   ANDI T1, T1, -1
9D00B5EC  00005012   MFLO T2, 0
9D00B5F0  00002010   MFHI A0, 0
9D00B5F4  71473802   MUL A3, T2, A3
9D00B5F8  00042400   SLL A0, A0, 16
9D00B5FC  00894825   OR T1, A0, T1
9D00B600  0127202B   SLTU A0, T1, A3
9D00B604  00C3001B   DIVU A2, V1
9D00B608  006001F4   TEQ V1, ZERO
9D00B60C  50800009   BEQL A0, ZERO, 0x9D00B634
9D00B610  01274823   SUBU T1, T1, A3
9D00B614  01284821   ADDU T1, T1, T0
9D00B618  0128182B   SLTU V1, T1, T0
9D00B61C  54600005   BNEL V1, ZERO, 0x9D00B634
9D00B620  01274823   SUBU T1, T1, A3
9D00B624  0127182B   SLTU V1, T1, A3
9D00B628  01284021   ADDU T0, T1, T0
9D00B62C  0103480B   MOVN T1, T0, V1
9D00B630  01274823   SUBU T1, T1, A3
9D00B9EC  0127001B   DIVU T1, A3
9D00B9F0  00E001F4   TEQ A3, ZERO
9D00B9F4  00086C02   SRL T5, T0, 16
9D00B9F8  00005812   MFLO T3, 0
9D00B9FC  00005010   MFHI T2, 0
9D00BA00  716C2002   MUL A0, T3, T4
9D00BA04  000A5400   SLL T2, T2, 16
9D00BA08  014D5025   OR T2, T2, T5
9D00BA0C  0144302B   SLTU A2, T2, A0
9D00BA10  0127001B   DIVU T1, A3
9D00BA14  00E001F4   TEQ A3, ZERO
9D00BA18  10C00009   BEQ A2, ZERO, 0x9D00BA40
9D00BA1C  01442823   SUBU A1, T2, A0
9D00BA20  01425021   ADDU T2, T2, V0
9D00BA24  0142282B   SLTU A1, T2, V0
9D00BA28  14A00004   BNE A1, ZERO, 0x9D00BA3C
9D00BA2C  256BFFFF   ADDIU T3, T3, -1
9D00BA30  0144282B   SLTU A1, T2, A0
9D00BA34  54A0009F   BNEL A1, ZERO, 0x9D00BCB4
9D00BA38  256BFFFF   ADDIU T3, T3, -1
9D00BA3C  01442823   SUBU A1, T2, A0
9D00BA40  00A7001B   DIVU A1, A3
9D00BA44  00E001F4   TEQ A3, ZERO
9D00BA48  3108FFFF   ANDI T0, T0, -1
9D00BA4C  00002012   MFLO A0, 0
9D00BA50  00003010   MFHI A2, 0
9D00BA54  708C6002   MUL T4, A0, T4
9D00BA58  00063400   SLL A2, A2, 16
9D00BA5C  00C84025   OR T0, A2, T0
9D00BA60  010C302B   SLTU A2, T0, T4
9D00BA64  00A7001B   DIVU A1, A3
9D00BA68  00E001F4   TEQ A3, ZERO
9D00BA6C  10C00006   BEQ A2, ZERO, 0x9D00BA88
9D00BA70  01024021   ADDU T0, T0, V0
9D00BA74  0102102B   SLTU V0, T0, V0
9D00BA78  14400003   BNE V0, ZERO, 0x9D00BA88
9D00BA7C  2484FFFF   ADDIU A0, A0, -1
9D00BA80  010C602B   SLTU T4, T0, T4
9D00BA84  008C2023   SUBU A0, A0, T4
9D00BA88  000B5C00   SLL T3, T3, 16
9D00BA8C  008B2025   OR A0, A0, T3
9D00BCB4  0B402E8F   J 0x9D00BA3C
9D00BCB8  01425021   ADDU T2, T2, V0
9D00B510  00491006   SRLV V0, T1, V0
9D00B634  00491006   SRLV V0, T1, V0
9D00B514  03E00008   JR RA
9D00B518  00001821   ADDU V1, ZERO, ZERO
9D00B638  03E00008   JR RA
9D00B63C  00001821   ADDU V1, ZERO, ZERO
9D00B51C  00A7102B   SLTU V0, A1, A3
9D00B520  14400047   BNE V0, ZERO, 0x9D00B640
9D00B524  70E84020   CLZ T0, A3
9D00B988  00A7102B   SLTU V0, A1, A3
9D00B98C  54400042   BNEL V0, ZERO, 0x9D00BA98
9D00B990  00002021   ADDU A0, ZERO, ZERO
9D00BA98  00001821   ADDU V1, ZERO, ZERO
9D00B640  00801021   ADDU V0, A0, ZERO
9D00B644  03E00008   JR RA
9D00B648  00A01821   ADDU V1, A1, ZERO
9D00B994  70E31820   CLZ V1, A3
9D00B528  15000048   BNE T0, ZERO, 0x9D00B64C
9D00B52C  240A0020   ADDIU T2, ZERO, 32
9D00B998  14600042   BNE V1, ZERO, 0x9D00BAA4
9D00B99C  240B0020   ADDIU T3, ZERO, 32
9D00B530  00E5102B   SLTU V0, A3, A1
9D00B534  14400005   BNE V0, ZERO, 0x9D00B54C
9D00B538  00861023   SUBU V0, A0, A2
9D00B53C  0086102B   SLTU V0, A0, A2
9D00B540  544000CF   BNEL V0, ZERO, 0x9D00B880
9D00B544  00801021   ADDU V0, A0, ZERO
9D00B9A0  00E5282B   SLTU A1, A3, A1
9D00B9A4  54A000C1   BNEL A1, ZERO, 0x9D00BCAC
9D00B9A8  00001821   ADDU V1, ZERO, ZERO
9D00B9AC  0086202B   SLTU A0, A0, A2
9D00B9B0  0B402E60   J 0x9D00B980
9D00B9B4  2C840001   SLTIU A0, A0, 1
9D00BCAC  0B402E60   J 0x9D00B980
9D00BCB0  24040001   ADDIU A0, ZERO, 1
9D00B548  00861023   SUBU V0, A0, A2
9D00B54C  00A71823   SUBU V1, A1, A3
9D00B550  0082202B   SLTU A0, A0, V0
9D00B554  03E00008   JR RA
9D00B558  00641823   SUBU V1, V1, A0
9D00B64C  01485023   SUBU T2, T2, T0
9D00BAA4  01635823   SUBU T3, T3, V1
9D00B650  01461006   SRLV V0, A2, T2
9D00B654  01073804   SLLV A3, A3, T0
9D00B658  00473825   OR A3, V0, A3
9D00BAA8  01661006   SRLV V0, A2, T3
9D00BAAC  00673804   SLLV A3, A3, V1
9D00BAB0  00473825   OR A3, V0, A3
9D00B680  01063004   SLLV A2, A2, T0
9D00B65C  01455806   SRLV T3, A1, T2
9D00BAB4  01654806   SRLV T1, A1, T3
9D00B670  01441806   SRLV V1, A0, T2
9D00B674  01052804   SLLV A1, A1, T0
9D00B678  00652825   OR A1, V1, A1
9D00BAC8  01645806   SRLV T3, A0, T3
9D00BACC  00652804   SLLV A1, A1, V1
9D00BAD0  01652825   OR A1, T3, A1
9D00B660  00074C02   SRL T1, A3, 16
9D00B664  0169001B   DIVU T3, T1
9D00B668  012001F4   TEQ T1, ZERO
9D00B66C  30EDFFFF   ANDI T5, A3, -1
9D00B67C  00051C02   SRL V1, A1, 16
9D00B684  00006012   MFLO T4, 0
9D00B688  00001010   MFHI V0, 0
9D00B68C  718D7002   MUL T6, T4, T5
9D00B690  00021400   SLL V0, V0, 16
9D00B694  00431025   OR V0, V0, V1
9D00B698  004E182B   SLTU V1, V0, T6
9D00B69C  0169001B   DIVU T3, T1
9D00B6A0  012001F4   TEQ T1, ZERO
9D00B6A4  1060000A   BEQ V1, ZERO, 0x9D00B6D0
9D00B6A8  01042004   SLLV A0, A0, T0
9D00B6AC  00471021   ADDU V0, V0, A3
9D00B6B0  0047182B   SLTU V1, V0, A3
9D00B6B4  14600006   BNE V1, ZERO, 0x9D00B6D0
9D00B6B8  258CFFFF   ADDIU T4, T4, -1
9D00B6BC  004E182B   SLTU V1, V0, T6
9D00B6C0  50600004   BEQL V1, ZERO, 0x9D00B6D4
9D00B6C4  004E1023   SUBU V0, V0, T6
9D00B6C8  258CFFFF   ADDIU T4, T4, -1
9D00B6CC  00471021   ADDU V0, V0, A3
9D00B6D0  004E1023   SUBU V0, V0, T6
9D00B6D4  0049001B   DIVU V0, T1
9D00B6D8  012001F4   TEQ T1, ZERO
9D00B6DC  30A5FFFF   ANDI A1, A1, -1
9D00B6E0  00005812   MFLO T3, 0
9D00B6E4  00001810   MFHI V1, 0
9D00B6E8  716D6802   MUL T5, T3, T5
9D00B6EC  00031C00   SLL V1, V1, 16
9D00B6F0  00652825   OR A1, V1, A1
9D00B6F4  00AD182B   SLTU V1, A1, T5
9D00B6F8  0049001B   DIVU V0, T1
9D00B6FC  012001F4   TEQ T1, ZERO
9D00B700  50600006   BEQL V1, ZERO, 0x9D00B71C
9D00B704  000C6400   SLL T4, T4, 16
9D00B708  00A72821   ADDU A1, A1, A3
9D00B70C  00A7102B   SLTU V0, A1, A3
9D00B710  1040004C   BEQ V0, ZERO, 0x9D00B844
9D00B714  256BFFFF   ADDIU T3, T3, -1
9D00B718  000C6400   SLL T4, T4, 16
9D00B71C  016C5825   OR T3, T3, T4
9D00B724  00AD2823   SUBU A1, A1, T5
9D00B844  00AD102B   SLTU V0, A1, T5
9D00B848  5040FFB4   BEQL V0, ZERO, 0x9D00B71C
9D00B84C  000C6400   SLL T4, T4, 16
9D00B850  256BFFFF   ADDIU T3, T3, -1
9D00B854  0B402DC6   J 0x9D00B718
9D00B858  00A72821   ADDU A1, A1, A3
9D00BAB8  00071402   SRL V0, A3, 16
9D00BABC  0122001B   DIVU T1, V0
9D00BAC0  004001F4   TEQ V0, ZERO
9D00BAC4  30ECFFFF   ANDI T4, A3, -1
9D00BAD4  00055C02   SRL T3, A1, 16
9D00BAD8  00005012   MFLO T2, 0
9D00BADC  00004010   MFHI T0, 0
9D00BAE0  714C6802   MUL T5, T2, T4
9D00BAE4  00084400   SLL T0, T0, 16
9D00BAE8  010B4025   OR T0, T0, T3
9D00BAEC  010D582B   SLTU T3, T0, T5
9D00BAF0  0122001B   DIVU T1, V0
9D00BAF4  004001F4   TEQ V0, ZERO
9D00BAF8  1160000A   BEQ T3, ZERO, 0x9D00BB24
9D00BAFC  00663004   SLLV A2, A2, V1
9D00BB00  01074021   ADDU T0, T0, A3
9D00BB04  0107482B   SLTU T1, T0, A3
9D00BB08  15200006   BNE T1, ZERO, 0x9D00BB24
9D00BB0C  254AFFFF   ADDIU T2, T2, -1
9D00BB10  010D482B   SLTU T1, T0, T5
9D00BB14  51200004   BEQL T1, ZERO, 0x9D00BB28
9D00BB18  010D4023   SUBU T0, T0, T5
9D00BB1C  254AFFFF   ADDIU T2, T2, -1
9D00BB20  01074021   ADDU T0, T0, A3
9D00BB24  010D4023   SUBU T0, T0, T5
9D00BB28  0102001B   DIVU T0, V0
9D00BB2C  004001F4   TEQ V0, ZERO
9D00BB30  30A5FFFF   ANDI A1, A1, -1
9D00BB34  00004812   MFLO T1, 0
9D00BB38  00005810   MFHI T3, 0
9D00BB3C  712C6002   MUL T4, T1, T4
9D00BB40  000B5C00   SLL T3, T3, 16
9D00BB44  01652825   OR A1, T3, A1
9D00BB48  00AC582B   SLTU T3, A1, T4
9D00BB4C  0102001B   DIVU T0, V0
9D00BB50  004001F4   TEQ V0, ZERO
9D00BB54  5160000B   BEQL T3, ZERO, 0x9D00BB84
9D00BB58  000A5400   SLL T2, T2, 16
9D00BB5C  00A72821   ADDU A1, A1, A3
9D00BB60  00A7102B   SLTU V0, A1, A3
9D00BB64  14400006   BNE V0, ZERO, 0x9D00BB80
9D00BB68  2529FFFF   ADDIU T1, T1, -1
9D00BB6C  00AC102B   SLTU V0, A1, T4
9D00BB70  50400004   BEQL V0, ZERO, 0x9D00BB84
9D00BB74  000A5400   SLL T2, T2, 16
9D00BB78  2529FFFF   ADDIU T1, T1, -1
9D00BB7C  00A72821   ADDU A1, A1, A3
9D00BB80  000A5400   SLL T2, T2, 16
9D00BB84  012A4825   OR T1, T1, T2
9D00BB8C  00AC2823   SUBU A1, A1, T4
9D00B720  01660019   MULTU 0, T3, A2
9D00B728  0000C810   MFHI T9, 0
9D00B72C  00004812   MFLO T1, 0
9D00BB88  01260019   MULTU 0, T1, A2
9D00BB90  00005810   MFHI T3, 0
9D00B730  00B9682B   SLTU T5, A1, T9
9D00B734  15A0003D   BNE T5, ZERO, 0x9D00B82C
9D00B738  03207021   ADDU T6, T9, ZERO
9D00B73C  10B9004A   BEQ A1, T9, 0x9D00B868
9D00B740  00001012   MFLO V0, 0
9D00B744  00B91823   SUBU V1, A1, T9
9D00B868  0089182B   SLTU V1, A0, T1
9D00B86C  5460FFF0   BNEL V1, ZERO, 0x9D00B830
9D00B870  01261023   SUBU V0, T1, A2
9D00B874  00001012   MFLO V0, 0
9D00B878  0B402DD2   J 0x9D00B748
9D00B87C  00001821   ADDU V1, ZERO, ZERO
9D00B880  03E00008   JR RA
9D00B884  00000000   NOP
9D00BB94  00AB382B   SLTU A3, A1, T3
9D00BB98  14E00041   BNE A3, ZERO, 0x9D00BCA0
9D00BB9C  00005012   MFLO T2, 0
9D00BBA0  50AB0046   BEQL A1, T3, 0x9D00BCBC
9D00BBA4  00641804   SLLV V1, A0, V1
9D00BBA8  01202021   ADDU A0, T1, ZERO
9D00BBAC  0B402E60   J 0x9D00B980
9D00BBB0  00001821   ADDU V1, ZERO, ZERO
9D00BCBC  006A182B   SLTU V1, V1, T2
9D00BCC0  5460FFF8   BNEL V1, ZERO, 0x9D00BCA4
9D00BCC4  2524FFFF   ADDIU A0, T1, -1
9D00BCC8  0B402E60   J 0x9D00B980
9D00BCCC  01202021   ADDU A0, T1, ZERO
9D00BCA0  2524FFFF   ADDIU A0, T1, -1
9D00BCA4  0B402E60   J 0x9D00B980
9D00BCA8  00001821   ADDU V1, ZERO, ZERO
9D00B82C  01261023   SUBU V0, T1, A2
9D00B830  01C71823   SUBU V1, T6, A3
9D00B834  0122482B   SLTU T1, T1, V0
9D00B838  00691823   SUBU V1, V1, T1
9D00B83C  0B402DD2   J 0x9D00B748
9D00B840  00A31823   SUBU V1, A1, V1
9D00B748  00821023   SUBU V0, A0, V0
9D00B74C  0082202B   SLTU A0, A0, V0
9D00B750  00641823   SUBU V1, V1, A0
9D00B754  01435004   SLLV T2, V1, T2
9D00B758  01021006   SRLV V0, V0, T0
9D00B75C  004A1025   OR V0, V0, T2
9D00B760  03E00008   JR RA
9D00B764  01031806   SRLV V1, V1, T0
9D00B980  03E00008   JR RA
9D00B984  00801021   ADDU V0, A0, ZERO
9D00BA90  03E00008   JR RA
9D00BA94  00801021   ADDU V0, A0, ZERO
9D00BA9C  03E00008   JR RA
9D00BAA0  00801021   ADDU V0, A0, ZERO
---  /Volumes/home/c11067/xc32/build/xc32-XC32_v1_30_branch/src45x/gcc/gcc/config/floatunsisf.c  --------
00000000  00000000   NOP
00000008  00000000   NOP
00000024  00000000   NOP
00000010  00000000   NOP
00000018  00000000   NOP
00000040  00000000   NOP
